
../target/debug/anatomy:	file format mach-o arm64

Disassembly of section __TEXT,__text:

0000000100001118 <__ZN4core3ops8function6FnOnce40call_once$u7b$$u7b$vtable.shim$u7d$$u7d$17h380a80d50c0872a0E>:
100001118: ff 83 00 d1 	sub	sp, sp, #32
10000111c: fd 7b 01 a9 	stp	x29, x30, [sp, #16]
100001120: fd 43 00 91 	add	x29, sp, #16
100001124: e8 03 00 aa 	mov	x8, x0
100001128: e8 07 00 f9 	str	x8, [sp, #8]
10000112c: 00 00 40 f9 	ldr	x0, [x0]
100001130: 10 00 00 94 	bl	0x100001170 <__ZN4core3ops8function6FnOnce9call_once17h96314cf0ed090881E>
100001134: e0 03 00 b9 	str	w0, [sp]
100001138: 01 00 00 14 	b	0x10000113c <__ZN4core3ops8function6FnOnce40call_once$u7b$$u7b$vtable.shim$u7d$$u7d$17h380a80d50c0872a0E+0x24>
10000113c: e0 03 40 b9 	ldr	w0, [sp]
100001140: fd 7b 41 a9 	ldp	x29, x30, [sp, #16]
100001144: ff 83 00 91 	add	sp, sp, #32
100001148: c0 03 5f d6 	ret

000000010000114c <__ZN4core3ops8function6FnOnce9call_once17h5c51ee73773abee0E>:
10000114c: ff 83 00 d1 	sub	sp, sp, #32
100001150: fd 7b 01 a9 	stp	x29, x30, [sp, #16]
100001154: fd 43 00 91 	add	x29, sp, #16
100001158: e0 07 00 f9 	str	x0, [sp, #8]
10000115c: 00 00 3f d6 	blr	x0
100001160: 01 00 00 14 	b	0x100001164 <__ZN4core3ops8function6FnOnce9call_once17h5c51ee73773abee0E+0x18>
100001164: fd 7b 41 a9 	ldp	x29, x30, [sp, #16]
100001168: ff 83 00 91 	add	sp, sp, #32
10000116c: c0 03 5f d6 	ret

0000000100001170 <__ZN4core3ops8function6FnOnce9call_once17h96314cf0ed090881E>:
100001170: ff 03 01 d1 	sub	sp, sp, #64
100001174: fd 7b 03 a9 	stp	x29, x30, [sp, #48]
100001178: fd c3 00 91 	add	x29, sp, #48
10000117c: e8 03 00 aa 	mov	x8, x0
100001180: e0 43 00 91 	add	x0, sp, #16
100001184: e8 0b 00 f9 	str	x8, [sp, #16]
100001188: 31 00 00 94 	bl	0x10000124c <__ZN3std2rt10lang_start28_$u7b$$u7b$closure$u7d$$u7d$17h45587e7c4b4d66c0E>
10000118c: e0 0f 00 b9 	str	w0, [sp, #12]
100001190: 06 00 00 14 	b	0x1000011a8 <__ZN4core3ops8function6FnOnce9call_once17h96314cf0ed090881E+0x38>
100001194: 06 00 00 14 	b	0x1000011ac <__ZN4core3ops8function6FnOnce9call_once17h96314cf0ed090881E+0x3c>
100001198: e8 03 01 aa 	mov	x8, x1
10000119c: a0 03 1f f8 	stur	x0, [x29, #-16]
1000011a0: a8 83 1f b8 	stur	w8, [x29, #-8]
1000011a4: fc ff ff 17 	b	0x100001194 <__ZN4core3ops8function6FnOnce9call_once17h96314cf0ed090881E+0x24>
1000011a8: 03 00 00 14 	b	0x1000011b4 <__ZN4core3ops8function6FnOnce9call_once17h96314cf0ed090881E+0x44>
1000011ac: a0 03 5f f8 	ldur	x0, [x29, #-16]
1000011b0: 1c c1 00 94 	bl	0x100031620 <_writev+0x100031620>
1000011b4: e0 0f 40 b9 	ldr	w0, [sp, #12]
1000011b8: fd 7b 43 a9 	ldp	x29, x30, [sp, #48]
1000011bc: ff 03 01 91 	add	sp, sp, #64
1000011c0: c0 03 5f d6 	ret

00000001000011c4 <__ZN4core3ptr85drop_in_place$LT$std..rt..lang_start$LT$$LP$$RP$$GT$..$u7b$$u7b$closure$u7d$$u7d$$GT$17h55566b4a18dc4a2aE>:
1000011c4: ff 43 00 d1 	sub	sp, sp, #16
1000011c8: e0 07 00 f9 	str	x0, [sp, #8]
1000011cc: ff 43 00 91 	add	sp, sp, #16
1000011d0: c0 03 5f d6 	ret

00000001000011d4 <__ZN3std3sys4unix7process14process_common8ExitCode6as_i3217h68806d46195c944dE>:
1000011d4: ff 43 00 d1 	sub	sp, sp, #16
1000011d8: e8 03 00 aa 	mov	x8, x0
1000011dc: e8 07 00 f9 	str	x8, [sp, #8]
1000011e0: 00 00 40 39 	ldrb	w0, [x0]
1000011e4: ff 43 00 91 	add	sp, sp, #16
1000011e8: c0 03 5f d6 	ret

00000001000011ec <__ZN3std2rt10lang_start17he92e6761e3752a17E>:
1000011ec: ff 43 01 d1 	sub	sp, sp, #80
1000011f0: fd 7b 04 a9 	stp	x29, x30, [sp, #64]
1000011f4: fd 03 01 91 	add	x29, sp, #64
1000011f8: e8 03 00 aa 	mov	x8, x0
1000011fc: e1 07 00 f9 	str	x1, [sp, #8]
100001200: e3 03 02 aa 	mov	x3, x2
100001204: e2 07 40 f9 	ldr	x2, [sp, #8]
100001208: e0 03 08 aa 	mov	x0, x8
10000120c: e0 13 00 f9 	str	x0, [sp, #32]
100001210: a2 83 1e f8 	stur	x2, [x29, #-24]
100001214: e9 03 03 aa 	mov	x9, x3
100001218: a9 03 1f f8 	stur	x9, [x29, #-16]
10000121c: e0 63 00 91 	add	x0, sp, #24
100001220: e8 0f 00 f9 	str	x8, [sp, #24]
100001224: a1 01 00 f0 	adrp	x1, 0x100038000 <__ZN7anatomy4main17h5f4252de78a9c6b7E+0x58>
100001228: 21 20 08 91 	add	x1, x1, #520
10000122c: f5 4a 00 94 	bl	0x100013e00 <__ZN3std2rt19lang_start_internal17hef2161f9571a51d7E>
100001230: e0 0b 00 f9 	str	x0, [sp, #16]
100001234: 01 00 00 14 	b	0x100001238 <__ZN3std2rt10lang_start17he92e6761e3752a17E+0x4c>
100001238: e0 0b 40 f9 	ldr	x0, [sp, #16]
10000123c: a0 83 1f f8 	stur	x0, [x29, #-8]
100001240: fd 7b 44 a9 	ldp	x29, x30, [sp, #64]
100001244: ff 43 01 91 	add	sp, sp, #80
100001248: c0 03 5f d6 	ret

000000010000124c <__ZN3std2rt10lang_start28_$u7b$$u7b$closure$u7d$$u7d$17h45587e7c4b4d66c0E>:
10000124c: ff 83 00 d1 	sub	sp, sp, #32
100001250: fd 7b 01 a9 	stp	x29, x30, [sp, #16]
100001254: fd 43 00 91 	add	x29, sp, #16
100001258: e8 03 00 aa 	mov	x8, x0
10000125c: e8 07 00 f9 	str	x8, [sp, #8]
100001260: 00 00 40 f9 	ldr	x0, [x0]
100001264: 33 00 00 94 	bl	0x100001330 <__ZN3std10sys_common9backtrace28__rust_begin_short_backtrace17h622416bb002979b1E>
100001268: 01 00 00 14 	b	0x10000126c <__ZN3std2rt10lang_start28_$u7b$$u7b$closure$u7d$$u7d$17h45587e7c4b4d66c0E+0x20>
10000126c: 51 00 00 94 	bl	0x1000013b0 <__ZN54_$LT$$LP$$RP$$u20$as$u20$std..process..Termination$GT$6report17h5aff3b032014d825E>
100001270: e0 07 00 b9 	str	w0, [sp, #4]
100001274: 01 00 00 14 	b	0x100001278 <__ZN3std2rt10lang_start28_$u7b$$u7b$closure$u7d$$u7d$17h45587e7c4b4d66c0E+0x2c>
100001278: e0 07 40 b9 	ldr	w0, [sp, #4]
10000127c: 40 00 00 94 	bl	0x10000137c <__ZN3std7process8ExitCode6to_i3217hdf8f22e09dba08c7E>
100001280: e0 03 00 b9 	str	w0, [sp]
100001284: 01 00 00 14 	b	0x100001288 <__ZN3std2rt10lang_start28_$u7b$$u7b$closure$u7d$$u7d$17h45587e7c4b4d66c0E+0x3c>
100001288: e0 03 40 b9 	ldr	w0, [sp]
10000128c: fd 7b 41 a9 	ldp	x29, x30, [sp, #16]
100001290: ff 83 00 91 	add	sp, sp, #32
100001294: c0 03 5f d6 	ret

0000000100001298 <__ZN4core4hint9black_box17h8dd039b7c6ceaf01E>:
100001298: ff 43 00 d1 	sub	sp, sp, #16
10000129c: 01 00 00 14 	b	0x1000012a0 <__ZN4core4hint9black_box17h8dd039b7c6ceaf01E+0x8>
1000012a0: ff 43 00 91 	add	sp, sp, #16
1000012a4: c0 03 5f d6 	ret

00000001000012a8 <__ZN7anatomy4main17h5f4252de78a9c6b7E>:
1000012a8: ff 43 01 d1 	sub	sp, sp, #80
1000012ac: fd 7b 04 a9 	stp	x29, x30, [sp, #64]
1000012b0: fd 03 01 91 	add	x29, sp, #64
1000012b4: 88 01 00 b0 	adrp	x8, 0x100032000 <__ZN3std10sys_common9backtrace28__rust_begin_short_backtrace17h622416bb002979b1E+0x48>
1000012b8: 08 81 1d 91 	add	x8, x8, #1888
1000012bc: a8 03 1f f8 	stur	x8, [x29, #-16]
1000012c0: 48 08 80 52 	mov	w8, #66
1000012c4: a8 83 1f f8 	stur	x8, [x29, #-8]
1000012c8: e8 03 00 91 	mov	x8, sp
1000012cc: a0 01 00 f0 	adrp	x0, 0x100038000 <__ZN3std7process8ExitCode6to_i3217hdf8f22e09dba08c7E+0x2c>
1000012d0: 00 e0 08 91 	add	x0, x0, #568
1000012d4: 29 00 80 52 	mov	w9, #1
1000012d8: e1 03 09 aa 	mov	x1, x9
1000012dc: 82 01 00 b0 	adrp	x2, 0x100032000 <__ZN3std7process8ExitCode6to_i3217hdf8f22e09dba08c7E+0x24>
1000012e0: 42 c0 1e 91 	add	x2, x2, #1968
1000012e4: 03 00 80 d2 	mov	x3, #0
1000012e8: 36 00 00 94 	bl	0x1000013c0 <__ZN4core3fmt9Arguments6new_v117h48bbaedc3410a848E>
1000012ec: 01 00 00 14 	b	0x1000012f0 <__ZN7anatomy4main17h5f4252de78a9c6b7E+0x48>
1000012f0: e0 03 00 91 	mov	x0, sp
1000012f4: e7 53 00 94 	bl	0x100016290 <__ZN3std2io5stdio6_print17h054a520e489320f8E>
1000012f8: 01 00 00 14 	b	0x1000012fc <__ZN7anatomy4main17h5f4252de78a9c6b7E+0x54>
1000012fc: fd 7b 44 a9 	ldp	x29, x30, [sp, #64]
100001300: ff 43 01 91 	add	sp, sp, #80
100001304: c0 03 5f d6 	ret

0000000100001308 <_main>:
100001308: fd 7b bf a9 	stp	x29, x30, [sp, #-16]!
10000130c: fd 03 00 91 	mov	x29, sp
100001310: e2 03 01 aa 	mov	x2, x1
100001314: e8 03 00 aa 	mov	x8, x0
100001318: 01 7d 40 93 	sxtw	x1, w8
10000131c: 00 00 00 90 	adrp	x0, 0x100001000 <_main+0x14>
100001320: 00 a0 0a 91 	add	x0, x0, #680
100001324: b2 ff ff 97 	bl	0x1000011ec <__ZN3std2rt10lang_start17he92e6761e3752a17E>
100001328: fd 7b c1 a8 	ldp	x29, x30, [sp], #16
10000132c: c0 03 5f d6 	ret

0000000100001330 <__ZN3std10sys_common9backtrace28__rust_begin_short_backtrace17h622416bb002979b1E>:
100001330: ff c3 00 d1 	sub	sp, sp, #48
100001334: fd 7b 02 a9 	stp	x29, x30, [sp, #32]
100001338: fd 83 00 91 	add	x29, sp, #32
10000133c: e8 03 00 aa 	mov	x8, x0
100001340: e8 07 00 f9 	str	x8, [sp, #8]
100001344: 82 ff ff 97 	bl	0x10000114c <__ZN4core3ops8function6FnOnce9call_once17h5c51ee73773abee0E>
100001348: 01 00 00 14 	b	0x10000134c <__ZN3std10sys_common9backtrace28__rust_begin_short_backtrace17h622416bb002979b1E+0x1c>
10000134c: d3 ff ff 97 	bl	0x100001298 <__ZN4core4hint9black_box17h8dd039b7c6ceaf01E>
100001350: 06 00 00 14 	b	0x100001368 <__ZN3std10sys_common9backtrace28__rust_begin_short_backtrace17h622416bb002979b1E+0x38>
100001354: 08 00 00 14 	b	0x100001374 <__ZN3std10sys_common9backtrace28__rust_begin_short_backtrace17h622416bb002979b1E+0x44>
100001358: e8 03 01 aa 	mov	x8, x1
10000135c: e0 0b 00 f9 	str	x0, [sp, #16]
100001360: e8 1b 00 b9 	str	w8, [sp, #24]
100001364: fc ff ff 17 	b	0x100001354 <__ZN3std10sys_common9backtrace28__rust_begin_short_backtrace17h622416bb002979b1E+0x24>
100001368: fd 7b 42 a9 	ldp	x29, x30, [sp, #32]
10000136c: ff c3 00 91 	add	sp, sp, #48
100001370: c0 03 5f d6 	ret
100001374: e0 0b 40 f9 	ldr	x0, [sp, #16]
100001378: aa c0 00 94 	bl	0x100031620 <_writev+0x100031620>

000000010000137c <__ZN3std7process8ExitCode6to_i3217hdf8f22e09dba08c7E>:
10000137c: ff 83 00 d1 	sub	sp, sp, #32
100001380: fd 7b 01 a9 	stp	x29, x30, [sp, #16]
100001384: fd 43 00 91 	add	x29, sp, #16
100001388: e8 03 00 aa 	mov	x8, x0
10000138c: a0 07 00 d1 	sub	x0, x29, #1
100001390: a8 f3 1f 38 	sturb	w8, [x29, #-1]
100001394: 90 ff ff 97 	bl	0x1000011d4 <__ZN3std3sys4unix7process14process_common8ExitCode6as_i3217h68806d46195c944dE>
100001398: e0 0b 00 b9 	str	w0, [sp, #8]
10000139c: 01 00 00 14 	b	0x1000013a0 <__ZN3std7process8ExitCode6to_i3217hdf8f22e09dba08c7E+0x24>
1000013a0: e0 0b 40 b9 	ldr	w0, [sp, #8]
1000013a4: fd 7b 41 a9 	ldp	x29, x30, [sp, #16]
1000013a8: ff 83 00 91 	add	sp, sp, #32
1000013ac: c0 03 5f d6 	ret

00000001000013b0 <__ZN54_$LT$$LP$$RP$$u20$as$u20$std..process..Termination$GT$6report17h5aff3b032014d825E>:
1000013b0: ff 43 00 d1 	sub	sp, sp, #16
1000013b4: 00 00 80 52 	mov	w0, #0
1000013b8: ff 43 00 91 	add	sp, sp, #16
1000013bc: c0 03 5f d6 	ret

00000001000013c0 <__ZN4core3fmt9Arguments6new_v117h48bbaedc3410a848E>:
1000013c0: ff 83 02 d1 	sub	sp, sp, #160
1000013c4: fd 7b 09 a9 	stp	x29, x30, [sp, #144]
1000013c8: fd 43 02 91 	add	x29, sp, #144
1000013cc: e8 03 00 f9 	str	x8, [sp]
1000013d0: e0 07 00 f9 	str	x0, [sp, #8]
1000013d4: e1 0b 00 f9 	str	x1, [sp, #16]
1000013d8: e2 0f 00 f9 	str	x2, [sp, #24]
1000013dc: e3 13 00 f9 	str	x3, [sp, #32]
1000013e0: a0 03 1e f8 	stur	x0, [x29, #-32]
1000013e4: a1 83 1e f8 	stur	x1, [x29, #-24]
1000013e8: a2 03 1f f8 	stur	x2, [x29, #-16]
1000013ec: a3 83 1f f8 	stur	x3, [x29, #-8]
1000013f0: 28 00 03 eb 	subs	x8, x1, x3
1000013f4: 43 01 00 54 	b.lo	0x10000141c <__ZN4core3fmt9Arguments6new_v117h48bbaedc3410a848E+0x5c>
1000013f8: 01 00 00 14 	b	0x1000013fc <__ZN4core3fmt9Arguments6new_v117h48bbaedc3410a848E+0x3c>
1000013fc: e8 0b 40 f9 	ldr	x8, [sp, #16]
100001400: e9 13 40 f9 	ldr	x9, [sp, #32]
100001404: 29 05 00 91 	add	x9, x9, #1
100001408: 08 01 09 eb 	subs	x8, x8, x9
10000140c: e8 97 9f 1a 	cset	w8, hi
100001410: 08 01 00 12 	and	w8, w8, #0x1
100001414: e8 bf 00 39 	strb	w8, [sp, #47]
100001418: 04 00 00 14 	b	0x100001428 <__ZN4core3fmt9Arguments6new_v117h48bbaedc3410a848E+0x68>
10000141c: 28 00 80 52 	mov	w8, #1
100001420: e8 bf 00 39 	strb	w8, [sp, #47]
100001424: 01 00 00 14 	b	0x100001428 <__ZN4core3fmt9Arguments6new_v117h48bbaedc3410a848E+0x68>
100001428: e8 bf 40 39 	ldrb	w8, [sp, #47]
10000142c: a8 02 00 37 	tbnz	w8, #0, 0x100001480 <__ZN4core3fmt9Arguments6new_v117h48bbaedc3410a848E+0xc0>
100001430: 01 00 00 14 	b	0x100001434 <__ZN4core3fmt9Arguments6new_v117h48bbaedc3410a848E+0x74>
100001434: e8 13 40 f9 	ldr	x8, [sp, #32]
100001438: e9 03 40 f9 	ldr	x9, [sp]
10000143c: ea 0f 40 f9 	ldr	x10, [sp, #24]
100001440: eb 0b 40 f9 	ldr	x11, [sp, #16]
100001444: ec 07 40 f9 	ldr	x12, [sp, #8]
100001448: bf 03 1d f8 	stur	xzr, [x29, #-48]
10000144c: bf 83 1d f8 	stur	xzr, [x29, #-40]
100001450: bf 03 1d f8 	stur	xzr, [x29, #-48]
100001454: 2c 01 00 f9 	str	x12, [x9]
100001458: 2b 05 00 f9 	str	x11, [x9, #8]
10000145c: ac 03 5d f8 	ldur	x12, [x29, #-48]
100001460: ab 83 5d f8 	ldur	x11, [x29, #-40]
100001464: 2c 09 00 f9 	str	x12, [x9, #16]
100001468: 2b 0d 00 f9 	str	x11, [x9, #24]
10000146c: 2a 11 00 f9 	str	x10, [x9, #32]
100001470: 28 15 00 f9 	str	x8, [x9, #40]
100001474: fd 7b 49 a9 	ldp	x29, x30, [sp, #144]
100001478: ff 83 02 91 	add	sp, sp, #160
10000147c: c0 03 5f d6 	ret
100001480: e8 c3 00 91 	add	x8, sp, #48
100001484: a0 01 00 f0 	adrp	x0, 0x100038000 <__ZN42_$LT$$RF$T$u20$as$u20$core..fmt..Debug$GT$3fmt17h07a6338995e5dc3dE+0x5c>
100001488: 00 20 09 91 	add	x0, x0, #584
10000148c: 29 00 80 52 	mov	w9, #1
100001490: e1 03 09 aa 	mov	x1, x9
100001494: 82 01 00 b0 	adrp	x2, 0x100032000 <__ZN42_$LT$$RF$T$u20$as$u20$core..fmt..Debug$GT$3fmt17h07a6338995e5dc3dE+0x54>
100001498: 42 20 1f 91 	add	x2, x2, #1992
10000149c: 03 00 80 d2 	mov	x3, #0
1000014a0: c8 ff ff 97 	bl	0x1000013c0 <__ZN4core3fmt9Arguments6new_v117h48bbaedc3410a848E>
1000014a4: 01 00 00 14 	b	0x1000014a8 <__ZN4core3fmt9Arguments6new_v117h48bbaedc3410a848E+0xe8>
1000014a8: e0 c3 00 91 	add	x0, sp, #48
1000014ac: a1 01 00 f0 	adrp	x1, 0x100038000 <__ZN42_$LT$$RF$T$u20$as$u20$core..fmt..Debug$GT$3fmt17h27b6d62e7bccf6dbE+0x10>
1000014b0: 21 60 09 91 	add	x1, x1, #600
1000014b4: fe bf 00 94 	bl	0x1000314ac <__ZN4core9panicking9panic_fmt17hbfde5533e1c0592eE>

00000001000014b8 <___rust_alloc>:
1000014b8: 97 60 00 14 	b	0x100019714 <___rdl_alloc>

00000001000014bc <___rust_dealloc>:
1000014bc: b1 60 00 14 	b	0x100019780 <___rdl_dealloc>

00000001000014c0 <___rust_realloc>:
1000014c0: b1 60 00 14 	b	0x100019784 <___rdl_realloc>

00000001000014c4 <___rust_alloc_error_handler>:
1000014c4: 7f a1 00 14 	b	0x100029ac0 <___rg_oom>

00000001000014c8 <__ZN36_$LT$T$u20$as$u20$core..any..Any$GT$7type_id17h3c1b6aeaf0244bf5E>:
1000014c8: 60 02 8c d2 	mov	x0, #24595
1000014cc: 20 56 be f2 	movk	x0, #62129, lsl #16
1000014d0: 20 63 c5 f2 	movk	x0, #11033, lsl #32
1000014d4: 20 7b fb f2 	movk	x0, #56281, lsl #48
1000014d8: c0 03 5f d6 	ret

00000001000014dc <__ZN36_$LT$T$u20$as$u20$core..any..Any$GT$7type_id17h5c74df9cd0719cc2E>:
1000014dc: 60 41 9e d2 	mov	x0, #61963
1000014e0: 20 57 a4 f2 	movk	x0, #8889, lsl #16
1000014e4: e0 b8 c7 f2 	movk	x0, #15815, lsl #32
1000014e8: c0 15 f7 f2 	movk	x0, #47278, lsl #48
1000014ec: c0 03 5f d6 	ret

00000001000014f0 <__ZN36_$LT$T$u20$as$u20$core..any..Any$GT$7type_id17he5a781d608351a97E>:
1000014f0: 20 a3 91 d2 	mov	x0, #36121
1000014f4: a0 f6 ba f2 	movk	x0, #55221, lsl #16
1000014f8: c0 c0 d5 f2 	movk	x0, #44550, lsl #32
1000014fc: 40 79 f0 f2 	movk	x0, #33738, lsl #48
100001500: c0 03 5f d6 	ret

0000000100001504 <__ZN42_$LT$$RF$T$u20$as$u20$core..fmt..Debug$GT$3fmt17h07a6338995e5dc3dE>:
100001504: f4 4f be a9 	stp	x20, x19, [sp, #-32]!
100001508: fd 7b 01 a9 	stp	x29, x30, [sp, #16]
10000150c: fd 43 00 91 	add	x29, sp, #16
100001510: f3 03 01 aa 	mov	x19, x1
100001514: 14 00 40 f9 	ldr	x20, [x0]
100001518: e0 03 01 aa 	mov	x0, x1
10000151c: 18 aa 00 94 	bl	0x10002bd7c <__ZN4core3fmt9Formatter15debug_lower_hex17hef56a57550e3dee1E>
100001520: c0 00 00 36 	tbz	w0, #0, 0x100001538 <__ZN42_$LT$$RF$T$u20$as$u20$core..fmt..Debug$GT$3fmt17h07a6338995e5dc3dE+0x34>
100001524: e0 03 14 aa 	mov	x0, x20
100001528: e1 03 13 aa 	mov	x1, x19
10000152c: fd 7b 41 a9 	ldp	x29, x30, [sp, #16]
100001530: f4 4f c2 a8 	ldp	x20, x19, [sp], #32
100001534: 7d b4 00 14 	b	0x10002e728 <__ZN4core3fmt3num53_$LT$impl$u20$core..fmt..LowerHex$u20$for$u20$i32$GT$3fmt17h7a5e9cbb7827bfc6E>
100001538: e0 03 13 aa 	mov	x0, x19
10000153c: 13 aa 00 94 	bl	0x10002bd88 <__ZN4core3fmt9Formatter15debug_upper_hex17hbd70161b233d58f6E>
100001540: c0 00 00 36 	tbz	w0, #0, 0x100001558 <__ZN42_$LT$$RF$T$u20$as$u20$core..fmt..Debug$GT$3fmt17h07a6338995e5dc3dE+0x54>
100001544: e0 03 14 aa 	mov	x0, x20
100001548: e1 03 13 aa 	mov	x1, x19
10000154c: fd 7b 41 a9 	ldp	x29, x30, [sp, #16]
100001550: f4 4f c2 a8 	ldp	x20, x19, [sp], #32
100001554: 9a b4 00 14 	b	0x10002e7bc <__ZN4core3fmt3num53_$LT$impl$u20$core..fmt..UpperHex$u20$for$u20$i32$GT$3fmt17h73d7b5c940bc6831E>
100001558: e0 03 14 aa 	mov	x0, x20
10000155c: e1 03 13 aa 	mov	x1, x19
100001560: fd 7b 41 a9 	ldp	x29, x30, [sp, #16]
100001564: f4 4f c2 a8 	ldp	x20, x19, [sp], #32
100001568: 1e b6 00 14 	b	0x10002ede0 <__ZN4core3fmt3num3imp52_$LT$impl$u20$core..fmt..Display$u20$for$u20$i32$GT$3fmt17h9b32c6f748704445E>

000000010000156c <__ZN42_$LT$$RF$T$u20$as$u20$core..fmt..Debug$GT$3fmt17h13eb672be297f5eeE>:
10000156c: 08 00 40 f9 	ldr	x8, [x0]
100001570: 00 01 40 f9 	ldr	x0, [x8]
100001574: bc a2 00 14 	b	0x10002a064 <__ZN64_$LT$alloc..ffi..c_str..NulError$u20$as$u20$core..fmt..Debug$GT$3fmt17h4e7186fad2ec0c02E>

0000000100001578 <__ZN42_$LT$$RF$T$u20$as$u20$core..fmt..Debug$GT$3fmt17h27b6d62e7bccf6dbE>:
100001578: f4 4f be a9 	stp	x20, x19, [sp, #-32]!
10000157c: fd 7b 01 a9 	stp	x29, x30, [sp, #16]
100001580: fd 43 00 91 	add	x29, sp, #16
100001584: f3 03 01 aa 	mov	x19, x1
100001588: 14 00 40 f9 	ldr	x20, [x0]
10000158c: e0 03 01 aa 	mov	x0, x1
100001590: fb a9 00 94 	bl	0x10002bd7c <__ZN4core3fmt9Formatter15debug_lower_hex17hef56a57550e3dee1E>
100001594: c0 00 00 36 	tbz	w0, #0, 0x1000015ac <__ZN42_$LT$$RF$T$u20$as$u20$core..fmt..Debug$GT$3fmt17h27b6d62e7bccf6dbE+0x34>
100001598: e0 03 14 aa 	mov	x0, x20
10000159c: e1 03 13 aa 	mov	x1, x19
1000015a0: fd 7b 41 a9 	ldp	x29, x30, [sp, #16]
1000015a4: f4 4f c2 a8 	ldp	x20, x19, [sp], #32
1000015a8: aa b4 00 14 	b	0x10002e850 <__ZN4core3fmt3num55_$LT$impl$u20$core..fmt..LowerHex$u20$for$u20$usize$GT$3fmt17hf45b4eb1668eb976E>
1000015ac: e0 03 13 aa 	mov	x0, x19
1000015b0: f6 a9 00 94 	bl	0x10002bd88 <__ZN4core3fmt9Formatter15debug_upper_hex17hbd70161b233d58f6E>
1000015b4: c0 00 00 36 	tbz	w0, #0, 0x1000015cc <__ZN42_$LT$$RF$T$u20$as$u20$core..fmt..Debug$GT$3fmt17h27b6d62e7bccf6dbE+0x54>
1000015b8: e0 03 14 aa 	mov	x0, x20
1000015bc: e1 03 13 aa 	mov	x1, x19
1000015c0: fd 7b 41 a9 	ldp	x29, x30, [sp, #16]
1000015c4: f4 4f c2 a8 	ldp	x20, x19, [sp], #32
1000015c8: c7 b4 00 14 	b	0x10002e8e4 <__ZN4core3fmt3num55_$LT$impl$u20$core..fmt..UpperHex$u20$for$u20$usize$GT$3fmt17hbcf19ae3f663aa0aE>
1000015cc: e0 03 14 aa 	mov	x0, x20
1000015d0: e1 03 13 aa 	mov	x1, x19
1000015d4: fd 7b 41 a9 	ldp	x29, x30, [sp, #16]
1000015d8: f4 4f c2 a8 	ldp	x20, x19, [sp], #32
1000015dc: a7 b6 00 14 	b	0x10002f078 <__ZN4core3fmt3num3imp54_$LT$impl$u20$core..fmt..Display$u20$for$u20$usize$GT$3fmt17h9b6465145ebe078bE>

00000001000015e0 <__ZN42_$LT$$RF$T$u20$as$u20$core..fmt..Debug$GT$3fmt17h6168101843d57a87E>:
1000015e0: 08 00 40 f9 	ldr	x8, [x0]
1000015e4: 00 21 40 a9 	ldp	x0, x8, [x8]
1000015e8: 02 0d 40 f9 	ldr	x2, [x8, #24]
1000015ec: 40 00 1f d6 	br	x2

00000001000015f0 <__ZN42_$LT$$RF$T$u20$as$u20$core..fmt..Debug$GT$3fmt17h743bcce75ea5b788E>:
1000015f0: e0 03 01 aa 	mov	x0, x1
1000015f4: c1 cc 18 70 	adr	x1, #203163
1000015f8: 1f 20 03 d5 	nop
1000015fc: 42 00 80 52 	mov	w2, #2
100001600: fb a8 00 14 	b	0x10002b9ec <__ZN4core3fmt9Formatter3pad17h3d4f54dd64e3e096E>

0000000100001604 <__ZN42_$LT$$RF$T$u20$as$u20$core..fmt..Debug$GT$3fmt17h9a1776c4b5b26127E>:
100001604: e2 03 01 aa 	mov	x2, x1
100001608: 08 04 40 a9 	ldp	x8, x1, [x0]
10000160c: e0 03 08 aa 	mov	x0, x8
100001610: d6 aa 00 14 	b	0x10002c168 <__ZN40_$LT$str$u20$as$u20$core..fmt..Debug$GT$3fmt17h6a2178a946c36754E>

0000000100001614 <__ZN42_$LT$$RF$T$u20$as$u20$core..fmt..Debug$GT$3fmt17hb51298a9db3608d2E>:
100001614: 00 00 40 f9 	ldr	x0, [x0]
100001618: 70 65 00 14 	b	0x10001abd8 <__ZN62_$LT$std..io..error..ErrorKind$u20$as$u20$core..fmt..Debug$GT$3fmt17hff7c8353d930297cE>

000000010000161c <__ZN44_$LT$$RF$T$u20$as$u20$core..fmt..Display$GT$3fmt17h30e9b3f1941c9337E>:
10000161c: 00 00 40 f9 	ldr	x0, [x0]
100001620: ba a3 00 14 	b	0x10002a508 <__ZN70_$LT$core..panic..location..Location$u20$as$u20$core..fmt..Display$GT$3fmt17h71afd75288ebe4cfE>

0000000100001624 <__ZN44_$LT$$RF$T$u20$as$u20$core..fmt..Display$GT$3fmt17h6aa3b28cae5f6209E>:
100001624: e2 03 01 aa 	mov	x2, x1
100001628: 08 04 40 a9 	ldp	x8, x1, [x0]
10000162c: e0 03 08 aa 	mov	x0, x8
100001630: d6 ab 00 14 	b	0x10002c588 <__ZN42_$LT$str$u20$as$u20$core..fmt..Display$GT$3fmt17h450d48871660337aE>

0000000100001634 <__ZN4core3fmt3num50_$LT$impl$u20$core..fmt..Debug$u20$for$u20$i32$GT$3fmt17h3cd1e344a247ef92E>:
100001634: f4 4f be a9 	stp	x20, x19, [sp, #-32]!
100001638: fd 7b 01 a9 	stp	x29, x30, [sp, #16]
10000163c: fd 43 00 91 	add	x29, sp, #16
100001640: f3 03 01 aa 	mov	x19, x1
100001644: f4 03 00 aa 	mov	x20, x0
100001648: e0 03 01 aa 	mov	x0, x1
10000164c: cc a9 00 94 	bl	0x10002bd7c <__ZN4core3fmt9Formatter15debug_lower_hex17hef56a57550e3dee1E>
100001650: c0 00 00 36 	tbz	w0, #0, 0x100001668 <__ZN4core3fmt3num50_$LT$impl$u20$core..fmt..Debug$u20$for$u20$i32$GT$3fmt17h3cd1e344a247ef92E+0x34>
100001654: e0 03 14 aa 	mov	x0, x20
100001658: e1 03 13 aa 	mov	x1, x19
10000165c: fd 7b 41 a9 	ldp	x29, x30, [sp, #16]
100001660: f4 4f c2 a8 	ldp	x20, x19, [sp], #32
100001664: 31 b4 00 14 	b	0x10002e728 <__ZN4core3fmt3num53_$LT$impl$u20$core..fmt..LowerHex$u20$for$u20$i32$GT$3fmt17h7a5e9cbb7827bfc6E>
100001668: e0 03 13 aa 	mov	x0, x19
10000166c: c7 a9 00 94 	bl	0x10002bd88 <__ZN4core3fmt9Formatter15debug_upper_hex17hbd70161b233d58f6E>
100001670: c0 00 00 36 	tbz	w0, #0, 0x100001688 <__ZN4core3fmt3num50_$LT$impl$u20$core..fmt..Debug$u20$for$u20$i32$GT$3fmt17h3cd1e344a247ef92E+0x54>
100001674: e0 03 14 aa 	mov	x0, x20
100001678: e1 03 13 aa 	mov	x1, x19
10000167c: fd 7b 41 a9 	ldp	x29, x30, [sp, #16]
100001680: f4 4f c2 a8 	ldp	x20, x19, [sp], #32
100001684: 4e b4 00 14 	b	0x10002e7bc <__ZN4core3fmt3num53_$LT$impl$u20$core..fmt..UpperHex$u20$for$u20$i32$GT$3fmt17h73d7b5c940bc6831E>
100001688: e0 03 14 aa 	mov	x0, x20
10000168c: e1 03 13 aa 	mov	x1, x19
100001690: fd 7b 41 a9 	ldp	x29, x30, [sp, #16]
100001694: f4 4f c2 a8 	ldp	x20, x19, [sp], #32
100001698: d2 b5 00 14 	b	0x10002ede0 <__ZN4core3fmt3num3imp52_$LT$impl$u20$core..fmt..Display$u20$for$u20$i32$GT$3fmt17h9b32c6f748704445E>

000000010000169c <__ZN4core3fmt5Write10write_char17h52f9fc92fde17b02E>:
10000169c: ff c3 00 d1 	sub	sp, sp, #48
1000016a0: f4 4f 01 a9 	stp	x20, x19, [sp, #16]
1000016a4: fd 7b 02 a9 	stp	x29, x30, [sp, #32]
1000016a8: fd 83 00 91 	add	x29, sp, #32
1000016ac: f3 03 00 aa 	mov	x19, x0
1000016b0: ff 0f 00 b9 	str	wzr, [sp, #12]
1000016b4: 3f 00 02 71 	cmp	w1, #128
1000016b8: 22 01 00 54 	b.hs	0x1000016dc <__ZN4core3fmt5Write10write_char17h52f9fc92fde17b02E+0x40>
1000016bc: e1 33 00 39 	strb	w1, [sp, #12]
1000016c0: 22 00 80 52 	mov	w2, #1
1000016c4: 60 02 40 f9 	ldr	x0, [x19]
1000016c8: e1 33 00 91 	add	x1, sp, #12
1000016cc: 62 52 00 94 	bl	0x100016054 <__ZN61_$LT$std..io..stdio..StdoutLock$u20$as$u20$std..io..Write$GT$9write_all17hd69ae4041a249c5aE>
1000016d0: f4 03 00 aa 	mov	x20, x0
1000016d4: 40 07 00 b5 	cbnz	x0, 0x1000017bc <__ZN4core3fmt5Write10write_char17h52f9fc92fde17b02E+0x120>
1000016d8: 21 00 00 14 	b	0x10000175c <__ZN4core3fmt5Write10write_char17h52f9fc92fde17b02E+0xc0>
1000016dc: 3f 00 20 71 	cmp	w1, #2048
1000016e0: c2 01 00 54 	b.hs	0x100001718 <__ZN4core3fmt5Write10write_char17h52f9fc92fde17b02E+0x7c>
1000016e4: 28 7c 06 53 	lsr	w8, w1, #6
1000016e8: 08 05 1a 32 	orr	w8, w8, #0xc0
1000016ec: e8 33 00 39 	strb	w8, [sp, #12]
1000016f0: 08 10 80 52 	mov	w8, #128
1000016f4: 28 14 00 33 	bfxil	w8, w1, #0, #6
1000016f8: e8 37 00 39 	strb	w8, [sp, #13]
1000016fc: 42 00 80 52 	mov	w2, #2
100001700: 60 02 40 f9 	ldr	x0, [x19]
100001704: e1 33 00 91 	add	x1, sp, #12
100001708: 53 52 00 94 	bl	0x100016054 <__ZN61_$LT$std..io..stdio..StdoutLock$u20$as$u20$std..io..Write$GT$9write_all17hd69ae4041a249c5aE>
10000170c: f4 03 00 aa 	mov	x20, x0
100001710: 60 05 00 b5 	cbnz	x0, 0x1000017bc <__ZN4core3fmt5Write10write_char17h52f9fc92fde17b02E+0x120>
100001714: 12 00 00 14 	b	0x10000175c <__ZN4core3fmt5Write10write_char17h52f9fc92fde17b02E+0xc0>
100001718: 3f 40 40 71 	cmp	w1, #16, lsl #12        ; =65536
10000171c: c2 02 00 54 	b.hs	0x100001774 <__ZN4core3fmt5Write10write_char17h52f9fc92fde17b02E+0xd8>
100001720: 28 7c 0c 53 	lsr	w8, w1, #12
100001724: 08 09 1b 32 	orr	w8, w8, #0xe0
100001728: e8 33 00 39 	strb	w8, [sp, #12]
10000172c: 08 10 80 52 	mov	w8, #128
100001730: 09 10 80 52 	mov	w9, #128
100001734: 29 2c 06 33 	bfxil	w9, w1, #6, #6
100001738: e9 37 00 39 	strb	w9, [sp, #13]
10000173c: 28 14 00 33 	bfxil	w8, w1, #0, #6
100001740: e8 3b 00 39 	strb	w8, [sp, #14]
100001744: 62 00 80 52 	mov	w2, #3
100001748: 60 02 40 f9 	ldr	x0, [x19]
10000174c: e1 33 00 91 	add	x1, sp, #12
100001750: 41 52 00 94 	bl	0x100016054 <__ZN61_$LT$std..io..stdio..StdoutLock$u20$as$u20$std..io..Write$GT$9write_all17hd69ae4041a249c5aE>
100001754: f4 03 00 aa 	mov	x20, x0
100001758: 20 03 00 b5 	cbnz	x0, 0x1000017bc <__ZN4core3fmt5Write10write_char17h52f9fc92fde17b02E+0x120>
10000175c: 9f 02 00 f1 	cmp	x20, #0
100001760: e0 07 9f 1a 	cset	w0, ne
100001764: fd 7b 42 a9 	ldp	x29, x30, [sp, #32]
100001768: f4 4f 41 a9 	ldp	x20, x19, [sp, #16]
10000176c: ff c3 00 91 	add	sp, sp, #48
100001770: c0 03 5f d6 	ret
100001774: 08 1e 80 52 	mov	w8, #240
100001778: 28 50 12 33 	bfxil	w8, w1, #18, #3
10000177c: e8 33 00 39 	strb	w8, [sp, #12]
100001780: 08 10 80 52 	mov	w8, #128
100001784: 09 10 80 52 	mov	w9, #128
100001788: 29 44 0c 33 	bfxil	w9, w1, #12, #6
10000178c: e9 37 00 39 	strb	w9, [sp, #13]
100001790: 09 10 80 52 	mov	w9, #128
100001794: 29 2c 06 33 	bfxil	w9, w1, #6, #6
100001798: e9 3b 00 39 	strb	w9, [sp, #14]
10000179c: 28 14 00 33 	bfxil	w8, w1, #0, #6
1000017a0: e8 3f 00 39 	strb	w8, [sp, #15]
1000017a4: 82 00 80 52 	mov	w2, #4
1000017a8: 60 02 40 f9 	ldr	x0, [x19]
1000017ac: e1 33 00 91 	add	x1, sp, #12
1000017b0: 29 52 00 94 	bl	0x100016054 <__ZN61_$LT$std..io..stdio..StdoutLock$u20$as$u20$std..io..Write$GT$9write_all17hd69ae4041a249c5aE>
1000017b4: f4 03 00 aa 	mov	x20, x0
1000017b8: 20 fd ff b4 	cbz	x0, 0x10000175c <__ZN4core3fmt5Write10write_char17h52f9fc92fde17b02E+0xc0>
1000017bc: 68 8e 40 f8 	ldr	x8, [x19, #8]!
1000017c0: 68 00 00 b4 	cbz	x8, 0x1000017cc <__ZN4core3fmt5Write10write_char17h52f9fc92fde17b02E+0x130>
1000017c4: e0 03 13 aa 	mov	x0, x19
1000017c8: 4a 04 00 94 	bl	0x1000028f0 <__ZN4core3ptr42drop_in_place$LT$std..io..error..Error$GT$17h779b7ab2fb8f1a5eE>
1000017cc: 74 02 00 f9 	str	x20, [x19]
1000017d0: 9f 02 00 f1 	cmp	x20, #0
1000017d4: e0 07 9f 1a 	cset	w0, ne
1000017d8: fd 7b 42 a9 	ldp	x29, x30, [sp, #32]
1000017dc: f4 4f 41 a9 	ldp	x20, x19, [sp, #16]
1000017e0: ff c3 00 91 	add	sp, sp, #48
1000017e4: c0 03 5f d6 	ret
1000017e8: 74 02 00 f9 	str	x20, [x19]
1000017ec: 8d bf 00 94 	bl	0x100031620 <_writev+0x100031620>

00000001000017f0 <__ZN4core3fmt5Write10write_char17h83589bd6cccc2436E>:
1000017f0: ff 03 01 d1 	sub	sp, sp, #64
1000017f4: f6 57 01 a9 	stp	x22, x21, [sp, #16]
1000017f8: f4 4f 02 a9 	stp	x20, x19, [sp, #32]
1000017fc: fd 7b 03 a9 	stp	x29, x30, [sp, #48]
100001800: fd c3 00 91 	add	x29, sp, #48
100001804: ff 0f 00 b9 	str	wzr, [sp, #12]
100001808: 3f 00 02 71 	cmp	w1, #128
10000180c: 82 00 00 54 	b.hs	0x10000181c <__ZN4core3fmt5Write10write_char17h83589bd6cccc2436E+0x2c>
100001810: e1 33 00 39 	strb	w1, [sp, #12]
100001814: 33 00 80 52 	mov	w19, #1
100001818: 25 00 00 14 	b	0x1000018ac <__ZN4core3fmt5Write10write_char17h83589bd6cccc2436E+0xbc>
10000181c: 3f 00 20 71 	cmp	w1, #2048
100001820: 22 01 00 54 	b.hs	0x100001844 <__ZN4core3fmt5Write10write_char17h83589bd6cccc2436E+0x54>
100001824: 28 7c 06 53 	lsr	w8, w1, #6
100001828: 08 05 1a 32 	orr	w8, w8, #0xc0
10000182c: e8 33 00 39 	strb	w8, [sp, #12]
100001830: 08 10 80 52 	mov	w8, #128
100001834: 28 14 00 33 	bfxil	w8, w1, #0, #6
100001838: e8 37 00 39 	strb	w8, [sp, #13]
10000183c: 53 00 80 52 	mov	w19, #2
100001840: 1b 00 00 14 	b	0x1000018ac <__ZN4core3fmt5Write10write_char17h83589bd6cccc2436E+0xbc>
100001844: 3f 40 40 71 	cmp	w1, #16, lsl #12        ; =65536
100001848: 82 01 00 54 	b.hs	0x100001878 <__ZN4core3fmt5Write10write_char17h83589bd6cccc2436E+0x88>
10000184c: 28 7c 0c 53 	lsr	w8, w1, #12
100001850: 08 09 1b 32 	orr	w8, w8, #0xe0
100001854: e8 33 00 39 	strb	w8, [sp, #12]
100001858: 08 10 80 52 	mov	w8, #128
10000185c: 09 10 80 52 	mov	w9, #128
100001860: 29 2c 06 33 	bfxil	w9, w1, #6, #6
100001864: e9 37 00 39 	strb	w9, [sp, #13]
100001868: 28 14 00 33 	bfxil	w8, w1, #0, #6
10000186c: e8 3b 00 39 	strb	w8, [sp, #14]
100001870: 73 00 80 52 	mov	w19, #3
100001874: 0e 00 00 14 	b	0x1000018ac <__ZN4core3fmt5Write10write_char17h83589bd6cccc2436E+0xbc>
100001878: 08 1e 80 52 	mov	w8, #240
10000187c: 28 50 12 33 	bfxil	w8, w1, #18, #3
100001880: e8 33 00 39 	strb	w8, [sp, #12]
100001884: 08 10 80 52 	mov	w8, #128
100001888: 09 10 80 52 	mov	w9, #128
10000188c: 29 44 0c 33 	bfxil	w9, w1, #12, #6
100001890: e9 37 00 39 	strb	w9, [sp, #13]
100001894: 09 10 80 52 	mov	w9, #128
100001898: 29 2c 06 33 	bfxil	w9, w1, #6, #6
10000189c: e9 3b 00 39 	strb	w9, [sp, #14]
1000018a0: 28 14 00 33 	bfxil	w8, w1, #0, #6
1000018a4: e8 3f 00 39 	strb	w8, [sp, #15]
1000018a8: 93 00 80 52 	mov	w19, #4
1000018ac: 14 00 40 f9 	ldr	x20, [x0]
1000018b0: 88 d6 40 a9 	ldp	x8, x21, [x20, #8]
1000018b4: 08 01 15 cb 	sub	x8, x8, x21
1000018b8: 1f 01 13 eb 	cmp	x8, x19
1000018bc: c3 01 00 54 	b.lo	0x1000018f4 <__ZN4core3fmt5Write10write_char17h83589bd6cccc2436E+0x104>
1000018c0: 88 02 40 f9 	ldr	x8, [x20]
1000018c4: 00 01 15 8b 	add	x0, x8, x21
1000018c8: e1 33 00 91 	add	x1, sp, #12
1000018cc: e2 03 13 aa 	mov	x2, x19
1000018d0: 90 bf 00 94 	bl	0x100031710 <_writev+0x100031710>
1000018d4: a8 02 13 8b 	add	x8, x21, x19
1000018d8: 88 0a 00 f9 	str	x8, [x20, #16]
1000018dc: 00 00 80 52 	mov	w0, #0
1000018e0: fd 7b 43 a9 	ldp	x29, x30, [sp, #48]
1000018e4: f4 4f 42 a9 	ldp	x20, x19, [sp, #32]
1000018e8: f6 57 41 a9 	ldp	x22, x21, [sp, #16]
1000018ec: ff 03 01 91 	add	sp, sp, #64
1000018f0: c0 03 5f d6 	ret
1000018f4: e0 03 14 aa 	mov	x0, x20
1000018f8: e1 03 15 aa 	mov	x1, x21
1000018fc: e2 03 13 aa 	mov	x2, x19
100001900: 75 bc 00 94 	bl	0x100030ad4 <__ZN5alloc7raw_vec19RawVec$LT$T$C$A$GT$7reserve21do_reserve_and_handle17ha753c5d16ef56b6eE>
100001904: 95 0a 40 f9 	ldr	x21, [x20, #16]
100001908: ee ff ff 17 	b	0x1000018c0 <__ZN4core3fmt5Write10write_char17h83589bd6cccc2436E+0xd0>

000000010000190c <__ZN4core3fmt5Write10write_char17h873b5142538f8f45E>:
10000190c: ff c3 00 d1 	sub	sp, sp, #48
100001910: f4 4f 01 a9 	stp	x20, x19, [sp, #16]
100001914: fd 7b 02 a9 	stp	x29, x30, [sp, #32]
100001918: fd 83 00 91 	add	x29, sp, #32
10000191c: f3 03 00 aa 	mov	x19, x0
100001920: ff 0f 00 b9 	str	wzr, [sp, #12]
100001924: 3f 00 02 71 	cmp	w1, #128
100001928: 22 01 00 54 	b.hs	0x10000194c <__ZN4core3fmt5Write10write_char17h873b5142538f8f45E+0x40>
10000192c: e1 33 00 39 	strb	w1, [sp, #12]
100001930: 22 00 80 52 	mov	w2, #1
100001934: 60 02 40 f9 	ldr	x0, [x19]
100001938: e1 33 00 91 	add	x1, sp, #12
10000193c: 0f 53 00 94 	bl	0x100016578 <__ZN3std2io5Write9write_all17h59e6f50311e59191E>
100001940: f4 03 00 aa 	mov	x20, x0
100001944: 40 07 00 b5 	cbnz	x0, 0x100001a2c <__ZN4core3fmt5Write10write_char17h873b5142538f8f45E+0x120>
100001948: 21 00 00 14 	b	0x1000019cc <__ZN4core3fmt5Write10write_char17h873b5142538f8f45E+0xc0>
10000194c: 3f 00 20 71 	cmp	w1, #2048
100001950: c2 01 00 54 	b.hs	0x100001988 <__ZN4core3fmt5Write10write_char17h873b5142538f8f45E+0x7c>
100001954: 28 7c 06 53 	lsr	w8, w1, #6
100001958: 08 05 1a 32 	orr	w8, w8, #0xc0
10000195c: e8 33 00 39 	strb	w8, [sp, #12]
100001960: 08 10 80 52 	mov	w8, #128
100001964: 28 14 00 33 	bfxil	w8, w1, #0, #6
100001968: e8 37 00 39 	strb	w8, [sp, #13]
10000196c: 42 00 80 52 	mov	w2, #2
100001970: 60 02 40 f9 	ldr	x0, [x19]
100001974: e1 33 00 91 	add	x1, sp, #12
100001978: 00 53 00 94 	bl	0x100016578 <__ZN3std2io5Write9write_all17h59e6f50311e59191E>
10000197c: f4 03 00 aa 	mov	x20, x0
100001980: 60 05 00 b5 	cbnz	x0, 0x100001a2c <__ZN4core3fmt5Write10write_char17h873b5142538f8f45E+0x120>
100001984: 12 00 00 14 	b	0x1000019cc <__ZN4core3fmt5Write10write_char17h873b5142538f8f45E+0xc0>
100001988: 3f 40 40 71 	cmp	w1, #16, lsl #12        ; =65536
10000198c: c2 02 00 54 	b.hs	0x1000019e4 <__ZN4core3fmt5Write10write_char17h873b5142538f8f45E+0xd8>
100001990: 28 7c 0c 53 	lsr	w8, w1, #12
100001994: 08 09 1b 32 	orr	w8, w8, #0xe0
100001998: e8 33 00 39 	strb	w8, [sp, #12]
10000199c: 08 10 80 52 	mov	w8, #128
1000019a0: 09 10 80 52 	mov	w9, #128
1000019a4: 29 2c 06 33 	bfxil	w9, w1, #6, #6
1000019a8: e9 37 00 39 	strb	w9, [sp, #13]
1000019ac: 28 14 00 33 	bfxil	w8, w1, #0, #6
1000019b0: e8 3b 00 39 	strb	w8, [sp, #14]
1000019b4: 62 00 80 52 	mov	w2, #3
1000019b8: 60 02 40 f9 	ldr	x0, [x19]
1000019bc: e1 33 00 91 	add	x1, sp, #12
1000019c0: ee 52 00 94 	bl	0x100016578 <__ZN3std2io5Write9write_all17h59e6f50311e59191E>
1000019c4: f4 03 00 aa 	mov	x20, x0
1000019c8: 20 03 00 b5 	cbnz	x0, 0x100001a2c <__ZN4core3fmt5Write10write_char17h873b5142538f8f45E+0x120>
1000019cc: 9f 02 00 f1 	cmp	x20, #0
1000019d0: e0 07 9f 1a 	cset	w0, ne
1000019d4: fd 7b 42 a9 	ldp	x29, x30, [sp, #32]
1000019d8: f4 4f 41 a9 	ldp	x20, x19, [sp, #16]
1000019dc: ff c3 00 91 	add	sp, sp, #48
1000019e0: c0 03 5f d6 	ret
1000019e4: 08 1e 80 52 	mov	w8, #240
1000019e8: 28 50 12 33 	bfxil	w8, w1, #18, #3
1000019ec: e8 33 00 39 	strb	w8, [sp, #12]
1000019f0: 08 10 80 52 	mov	w8, #128
1000019f4: 09 10 80 52 	mov	w9, #128
1000019f8: 29 44 0c 33 	bfxil	w9, w1, #12, #6
1000019fc: e9 37 00 39 	strb	w9, [sp, #13]
100001a00: 09 10 80 52 	mov	w9, #128
100001a04: 29 2c 06 33 	bfxil	w9, w1, #6, #6
100001a08: e9 3b 00 39 	strb	w9, [sp, #14]
100001a0c: 28 14 00 33 	bfxil	w8, w1, #0, #6
100001a10: e8 3f 00 39 	strb	w8, [sp, #15]
100001a14: 82 00 80 52 	mov	w2, #4
100001a18: 60 02 40 f9 	ldr	x0, [x19]
100001a1c: e1 33 00 91 	add	x1, sp, #12
100001a20: d6 52 00 94 	bl	0x100016578 <__ZN3std2io5Write9write_all17h59e6f50311e59191E>
100001a24: f4 03 00 aa 	mov	x20, x0
100001a28: 20 fd ff b4 	cbz	x0, 0x1000019cc <__ZN4core3fmt5Write10write_char17h873b5142538f8f45E+0xc0>
100001a2c: 68 8e 40 f8 	ldr	x8, [x19, #8]!
100001a30: 68 00 00 b4 	cbz	x8, 0x100001a3c <__ZN4core3fmt5Write10write_char17h873b5142538f8f45E+0x130>
100001a34: e0 03 13 aa 	mov	x0, x19
100001a38: ae 03 00 94 	bl	0x1000028f0 <__ZN4core3ptr42drop_in_place$LT$std..io..error..Error$GT$17h779b7ab2fb8f1a5eE>
100001a3c: 74 02 00 f9 	str	x20, [x19]
100001a40: 9f 02 00 f1 	cmp	x20, #0
100001a44: e0 07 9f 1a 	cset	w0, ne
100001a48: fd 7b 42 a9 	ldp	x29, x30, [sp, #32]
100001a4c: f4 4f 41 a9 	ldp	x20, x19, [sp, #16]
100001a50: ff c3 00 91 	add	sp, sp, #48
100001a54: c0 03 5f d6 	ret
100001a58: 74 02 00 f9 	str	x20, [x19]
100001a5c: f1 be 00 94 	bl	0x100031620 <_writev+0x100031620>

0000000100001a60 <__ZN4core3fmt5Write9write_fmt17h02adffae23899edfE>:
100001a60: ff 43 01 d1 	sub	sp, sp, #80
100001a64: fd 7b 04 a9 	stp	x29, x30, [sp, #64]
100001a68: fd 03 01 91 	add	x29, sp, #64
100001a6c: e0 07 00 f9 	str	x0, [sp, #8]
100001a70: 20 04 40 ad 	ldp	q0, q1, [x1]
100001a74: e0 87 00 ad 	stp	q0, q1, [sp, #16]
100001a78: 20 08 c0 3d 	ldr	q0, [x1, #32]
100001a7c: e0 0f 80 3d 	str	q0, [sp, #48]
100001a80: 81 3f 1b 10 	adr	x1, #223216
100001a84: 1f 20 03 d5 	nop
100001a88: e0 23 00 91 	add	x0, sp, #8
100001a8c: e2 43 00 91 	add	x2, sp, #16
100001a90: 43 a6 00 94 	bl	0x10002b39c <__ZN4core3fmt5write17hda8e8eb84b49cbfcE>
100001a94: fd 7b 44 a9 	ldp	x29, x30, [sp, #64]
100001a98: ff 43 01 91 	add	sp, sp, #80
100001a9c: c0 03 5f d6 	ret

0000000100001aa0 <__ZN4core3fmt5Write9write_fmt17h7fc603fba06dcf04E>:
100001aa0: ff 43 01 d1 	sub	sp, sp, #80
100001aa4: fd 7b 04 a9 	stp	x29, x30, [sp, #64]
100001aa8: fd 03 01 91 	add	x29, sp, #64
100001aac: e0 07 00 f9 	str	x0, [sp, #8]
100001ab0: 20 04 40 ad 	ldp	q0, q1, [x1]
100001ab4: e0 87 00 ad 	stp	q0, q1, [sp, #16]
100001ab8: 20 08 c0 3d 	ldr	q0, [x1, #32]
100001abc: e0 0f 80 3d 	str	q0, [sp, #48]
100001ac0: 81 40 1b 10 	adr	x1, #223248
100001ac4: 1f 20 03 d5 	nop
100001ac8: e0 23 00 91 	add	x0, sp, #8
100001acc: e2 43 00 91 	add	x2, sp, #16
100001ad0: 33 a6 00 94 	bl	0x10002b39c <__ZN4core3fmt5write17hda8e8eb84b49cbfcE>
100001ad4: fd 7b 44 a9 	ldp	x29, x30, [sp, #64]
100001ad8: ff 43 01 91 	add	sp, sp, #80
100001adc: c0 03 5f d6 	ret

0000000100001ae0 <__ZN4core3fmt5Write9write_fmt17hcf63af965cf4271aE>:
100001ae0: ff 43 01 d1 	sub	sp, sp, #80
100001ae4: fd 7b 04 a9 	stp	x29, x30, [sp, #64]
100001ae8: fd 03 01 91 	add	x29, sp, #64
100001aec: e0 07 00 f9 	str	x0, [sp, #8]
100001af0: 20 04 40 ad 	ldp	q0, q1, [x1]
100001af4: e0 87 00 ad 	stp	q0, q1, [sp, #16]
100001af8: 20 08 c0 3d 	ldr	q0, [x1, #32]
100001afc: e0 0f 80 3d 	str	q0, [sp, #48]
100001b00: 01 40 1b 10 	adr	x1, #223232
100001b04: 1f 20 03 d5 	nop
100001b08: e0 23 00 91 	add	x0, sp, #8
100001b0c: e2 43 00 91 	add	x2, sp, #16
100001b10: 23 a6 00 94 	bl	0x10002b39c <__ZN4core3fmt5write17hda8e8eb84b49cbfcE>
100001b14: fd 7b 44 a9 	ldp	x29, x30, [sp, #64]
100001b18: ff 43 01 91 	add	sp, sp, #80
100001b1c: c0 03 5f d6 	ret

0000000100001b20 <__ZN4core3ops8function6FnOnce40call_once$u7b$$u7b$vtable.shim$u7d$$u7d$17h0a9a6c18244a0a79E>:
100001b20: ff 83 00 d1 	sub	sp, sp, #32
100001b24: fd 7b 01 a9 	stp	x29, x30, [sp, #16]
100001b28: fd 43 00 91 	add	x29, sp, #16
100001b2c: 08 00 40 f9 	ldr	x8, [x0]
100001b30: e8 07 00 f9 	str	x8, [sp, #8]
100001b34: e0 23 00 91 	add	x0, sp, #8
100001b38: 36 5a 00 94 	bl	0x100018410 <__ZN3std4sync4once4Once9call_once28_$u7b$$u7b$closure$u7d$$u7d$17haa3a7697eb9a05e5E>
100001b3c: fd 7b 41 a9 	ldp	x29, x30, [sp, #16]
100001b40: ff 83 00 91 	add	sp, sp, #32
100001b44: c0 03 5f d6 	ret

0000000100001b48 <__ZN4core3ops8function6FnOnce40call_once$u7b$$u7b$vtable.shim$u7d$$u7d$17h1bdb724e13f0f88eE>:
100001b48: f4 4f be a9 	stp	x20, x19, [sp, #-32]!
100001b4c: fd 7b 01 a9 	stp	x29, x30, [sp, #16]
100001b50: fd 43 00 91 	add	x29, sp, #16
100001b54: 08 00 40 f9 	ldr	x8, [x0]
100001b58: 13 01 40 f9 	ldr	x19, [x8]
100001b5c: 1f 01 00 f9 	str	xzr, [x8]
100001b60: d3 02 00 b4 	cbz	x19, 0x100001bb8 <__ZN4core3ops8function6FnOnce40call_once$u7b$$u7b$vtable.shim$u7d$$u7d$17h1bdb724e13f0f88eE+0x70>
100001b64: 00 80 80 52 	mov	w0, #1024
100001b68: 21 00 80 52 	mov	w1, #1
100001b6c: 53 fe ff 97 	bl	0x1000014b8 <___rust_alloc>
100001b70: 00 03 00 b4 	cbz	x0, 0x100001bd0 <__ZN4core3ops8function6FnOnce40call_once$u7b$$u7b$vtable.shim$u7d$$u7d$17h1bdb724e13f0f88eE+0x88>
100001b74: 28 47 19 10 	adr	x8, #207076
100001b78: 1f 20 03 d5 	nop
100001b7c: 00 05 40 ad 	ldp	q0, q1, [x8]
100001b80: 02 0d 41 ad 	ldp	q2, q3, [x8, #32]
100001b84: 62 0e 01 ad 	stp	q2, q3, [x19, #32]
100001b88: 60 06 00 ad 	stp	q0, q1, [x19]
100001b8c: 7f 7e 04 a9 	stp	xzr, xzr, [x19, #64]
100001b90: 60 2a 00 f9 	str	x0, [x19, #80]
100001b94: 1f 20 03 d5 	nop
100001b98: c0 64 18 9c 	ldr	q0, 0x100032830 <_writev+0x100032830>
100001b9c: 60 82 85 3c 	stur	q0, [x19, #88]
100001ba0: 7f a2 01 39 	strb	wzr, [x19, #104]
100001ba4: 7f 72 00 b9 	str	wzr, [x19, #112]
100001ba8: e0 03 13 aa 	mov	x0, x19
100001bac: fd 7b 41 a9 	ldp	x29, x30, [sp, #16]
100001bb0: f4 4f c2 a8 	ldp	x20, x19, [sp], #32
100001bb4: a8 68 00 14 	b	0x10001be54 <__ZN3std3sys4unix5locks13pthread_mutex5Mutex4init17ha5dac4273c6da2a9E>
100001bb8: 80 aa 18 50 	adr	x0, #202066
100001bbc: 1f 20 03 d5 	nop
100001bc0: 82 8f 1b 10 	adr	x2, #225776
100001bc4: 1f 20 03 d5 	nop
100001bc8: 61 05 80 52 	mov	w1, #43
100001bcc: ff bd 00 94 	bl	0x1000313c8 <__ZN4core9panicking5panic17h89917039f65f3f80E>
100001bd0: 00 80 80 52 	mov	w0, #1024
100001bd4: 21 00 80 52 	mov	w1, #1
100001bd8: f6 bd 00 94 	bl	0x1000313b0 <__ZN5alloc5alloc18handle_alloc_error17h63a008190bf6efc7E>

0000000100001bdc <__ZN4core3ops8function6FnOnce40call_once$u7b$$u7b$vtable.shim$u7d$$u7d$17h5f2f81bbb9898431E>:
100001bdc: a0 5b 00 14 	b	0x100018a5c <__ZN3std10sys_common9backtrace10_print_fmt28_$u7b$$u7b$closure$u7d$$u7d$17hae43299aadf9a50dE>

0000000100001be0 <__ZN4core3ops8function6FnOnce40call_once$u7b$$u7b$vtable.shim$u7d$$u7d$17h8b926015f8e49f3eE>:
100001be0: ff 03 01 d1 	sub	sp, sp, #64
100001be4: f4 4f 02 a9 	stp	x20, x19, [sp, #32]
100001be8: fd 7b 03 a9 	stp	x29, x30, [sp, #48]
100001bec: fd c3 00 91 	add	x29, sp, #48
100001bf0: e8 03 01 aa 	mov	x8, x1
100001bf4: f3 03 00 aa 	mov	x19, x0
100001bf8: 40 00 c0 3d 	ldr	q0, [x2]
100001bfc: e0 03 80 3d 	str	q0, [sp]
100001c00: 49 08 40 f9 	ldr	x9, [x2, #16]
100001c04: e9 0b 00 f9 	str	x9, [sp, #16]
100001c08: 09 00 40 f9 	ldr	x9, [x0]
100001c0c: 3f 01 00 f1 	cmp	x9, #0
100001c10: e3 03 80 9a 	csel	x3, xzr, x0, eq
100001c14: 02 60 40 39 	ldrb	w2, [x0, #24]
100001c18: e1 03 00 91 	mov	x1, sp
100001c1c: e0 03 08 aa 	mov	x0, x8
100001c20: 87 5c 00 94 	bl	0x100018e3c <__ZN3std10sys_common9backtrace15output_filename17h0fa8801b682e5d46E>
100001c24: f4 03 00 aa 	mov	x20, x0
100001c28: 60 02 40 f9 	ldr	x0, [x19]
100001c2c: a0 00 00 b4 	cbz	x0, 0x100001c40 <__ZN4core3ops8function6FnOnce40call_once$u7b$$u7b$vtable.shim$u7d$$u7d$17h8b926015f8e49f3eE+0x60>
100001c30: 61 06 40 f9 	ldr	x1, [x19, #8]
100001c34: 61 00 00 b4 	cbz	x1, 0x100001c40 <__ZN4core3ops8function6FnOnce40call_once$u7b$$u7b$vtable.shim$u7d$$u7d$17h8b926015f8e49f3eE+0x60>
100001c38: 22 00 80 52 	mov	w2, #1
100001c3c: 20 fe ff 97 	bl	0x1000014bc <___rust_dealloc>
100001c40: e0 03 14 aa 	mov	x0, x20
100001c44: fd 7b 43 a9 	ldp	x29, x30, [sp, #48]
100001c48: f4 4f 42 a9 	ldp	x20, x19, [sp, #32]
100001c4c: ff 03 01 91 	add	sp, sp, #64
100001c50: c0 03 5f d6 	ret
100001c54: f4 03 00 aa 	mov	x20, x0
100001c58: e0 03 13 aa 	mov	x0, x19
100001c5c: 0a 06 00 94 	bl	0x100003484 <__ZN4core3ptr88drop_in_place$LT$std..sys_common..backtrace.._print_fmt..$u7b$$u7b$closure$u7d$$u7d$$GT$17hef0d03e9caf45981E>
100001c60: e0 03 14 aa 	mov	x0, x20
100001c64: 6f be 00 94 	bl	0x100031620 <_writev+0x100031620>

0000000100001c68 <__ZN4core3ops8function6FnOnce40call_once$u7b$$u7b$vtable.shim$u7d$$u7d$17he1d3ff504ca3ccfbE>:
100001c68: d7 5b 00 14 	b	0x100018bc4 <__ZN3std10sys_common9backtrace10_print_fmt28_$u7b$$u7b$closure$u7d$$u7d$28_$u7b$$u7b$closure$u7d$$u7d$17h93f2075ed04ef9d4E>

0000000100001c6c <__ZN4core3ops8function6FnOnce9call_once17h87cb56e87a217a1aE>:
100001c6c: fd 7b bf a9 	stp	x29, x30, [sp, #-16]!
100001c70: fd 03 00 91 	mov	x29, sp
100001c74: 79 4a 00 94 	bl	0x100014658 <__ZN3std2rt19lang_start_internal28_$u7b$$u7b$closure$u7d$$u7d$17h60023e02617a535aE>

0000000100001c78 <__ZN4core3ptr100drop_in_place$LT$$RF$mut$u20$std..io..Write..write_fmt..Adapter$LT$alloc..vec..Vec$LT$u8$GT$$GT$$GT$17hfd02af6a101daf08E>:
100001c78: c0 03 5f d6 	ret

0000000100001c7c <__ZN4core3ptr101drop_in_place$LT$alloc..sync..Arc$LT$std..sync..mutex..Mutex$LT$alloc..vec..Vec$LT$u8$GT$$GT$$GT$$GT$17h7613cefa69059d35E>:
100001c7c: 08 00 40 f9 	ldr	x8, [x0]
100001c80: 09 00 80 92 	mov	x9, #-1
100001c84: 08 01 69 f8 	<unknown>
100001c88: 1f 05 00 f1 	cmp	x8, #1
100001c8c: 81 00 00 54 	b.ne	0x100001c9c <__ZN4core3ptr101drop_in_place$LT$alloc..sync..Arc$LT$std..sync..mutex..Mutex$LT$alloc..vec..Vec$LT$u8$GT$$GT$$GT$$GT$17h7613cefa69059d35E+0x20>
100001c90: bf 39 03 d5 	dmb	ishld
100001c94: 00 00 40 f9 	ldr	x0, [x0]
100001c98: e4 11 00 14 	b	0x100006428 <__ZN5alloc4sync12Arc$LT$T$GT$9drop_slow17h88213df8f14a27faE>
100001c9c: c0 03 5f d6 	ret

0000000100001ca0 <__ZN4core3ptr104drop_in_place$LT$alloc..vec..Vec$LT$$LP$usize$C$std..backtrace_rs..symbolize..gimli..Mapping$RP$$GT$$GT$17hb81cb1e325eb4a11E>:
100001ca0: f8 5f bc a9 	stp	x24, x23, [sp, #-64]!
100001ca4: f6 57 01 a9 	stp	x22, x21, [sp, #16]
100001ca8: f4 4f 02 a9 	stp	x20, x19, [sp, #32]
100001cac: fd 7b 03 a9 	stp	x29, x30, [sp, #48]
100001cb0: fd c3 00 91 	add	x29, sp, #48
100001cb4: f3 03 00 aa 	mov	x19, x0
100001cb8: 08 00 40 f9 	ldr	x8, [x0]
100001cbc: 09 08 40 f9 	ldr	x9, [x0, #16]
100001cc0: 29 15 09 8b 	add	x9, x9, x9, lsl #5
100001cc4: 36 f1 7d d3 	lsl	x22, x9, #3
100001cc8: f6 00 00 b4 	cbz	x22, 0x100001ce4 <__ZN4core3ptr104drop_in_place$LT$alloc..vec..Vec$LT$$LP$usize$C$std..backtrace_rs..symbolize..gimli..Mapping$RP$$GT$$GT$17hb81cb1e325eb4a11E+0x44>
100001ccc: 14 21 04 91 	add	x20, x8, #264
100001cd0: 00 21 00 91 	add	x0, x8, #8
100001cd4: d6 22 04 d1 	sub	x22, x22, #264
100001cd8: 03 04 00 94 	bl	0x100002ce4 <__ZN4core3ptr65drop_in_place$LT$std..backtrace_rs..symbolize..gimli..Mapping$GT$17h950bee55b2d4f0cfE>
100001cdc: e8 03 14 aa 	mov	x8, x20
100001ce0: fa ff ff 17 	b	0x100001cc8 <__ZN4core3ptr104drop_in_place$LT$alloc..vec..Vec$LT$$LP$usize$C$std..backtrace_rs..symbolize..gimli..Mapping$RP$$GT$$GT$17hb81cb1e325eb4a11E+0x28>
100001ce4: 68 06 40 f9 	ldr	x8, [x19, #8]
100001ce8: 1f 01 00 f1 	cmp	x8, #0
100001cec: 08 15 08 8b 	add	x8, x8, x8, lsl #5
100001cf0: 01 f1 7d d3 	lsl	x1, x8, #3
100001cf4: 24 18 40 fa 	ccmp	x1, #0, #4, ne
100001cf8: c1 00 00 54 	b.ne	0x100001d10 <__ZN4core3ptr104drop_in_place$LT$alloc..vec..Vec$LT$$LP$usize$C$std..backtrace_rs..symbolize..gimli..Mapping$RP$$GT$$GT$17hb81cb1e325eb4a11E+0x70>
100001cfc: fd 7b 43 a9 	ldp	x29, x30, [sp, #48]
100001d00: f4 4f 42 a9 	ldp	x20, x19, [sp, #32]
100001d04: f6 57 41 a9 	ldp	x22, x21, [sp, #16]
100001d08: f8 5f c4 a8 	ldp	x24, x23, [sp], #64
100001d0c: c0 03 5f d6 	ret
100001d10: 60 02 40 f9 	ldr	x0, [x19]
100001d14: 02 01 80 52 	mov	w2, #8
100001d18: fd 7b 43 a9 	ldp	x29, x30, [sp, #48]
100001d1c: f4 4f 42 a9 	ldp	x20, x19, [sp, #32]
100001d20: f6 57 41 a9 	ldp	x22, x21, [sp, #16]
100001d24: f8 5f c4 a8 	ldp	x24, x23, [sp], #64
100001d28: e5 fd ff 17 	b	0x1000014bc <___rust_dealloc>
100001d2c: f5 03 00 aa 	mov	x21, x0
100001d30: f6 00 00 b4 	cbz	x22, 0x100001d4c <__ZN4core3ptr104drop_in_place$LT$alloc..vec..Vec$LT$$LP$usize$C$std..backtrace_rs..symbolize..gimli..Mapping$RP$$GT$$GT$17hb81cb1e325eb4a11E+0xac>
100001d34: 97 22 04 91 	add	x23, x20, #264
100001d38: d6 22 04 d1 	sub	x22, x22, #264
100001d3c: e0 03 14 aa 	mov	x0, x20
100001d40: 31 05 00 94 	bl	0x100003204 <__ZN4core3ptr81drop_in_place$LT$$LP$usize$C$std..backtrace_rs..symbolize..gimli..Mapping$RP$$GT$17h715b224f2d622a9cE>
100001d44: f4 03 17 aa 	mov	x20, x23
100001d48: fa ff ff 17 	b	0x100001d30 <__ZN4core3ptr104drop_in_place$LT$alloc..vec..Vec$LT$$LP$usize$C$std..backtrace_rs..symbolize..gimli..Mapping$RP$$GT$$GT$17hb81cb1e325eb4a11E+0x90>
100001d4c: 60 06 40 a9 	ldp	x0, x1, [x19]
100001d50: 4f 00 00 94 	bl	0x100001e8c <__ZN4core3ptr111drop_in_place$LT$alloc..raw_vec..RawVec$LT$$LP$usize$C$std..backtrace_rs..symbolize..gimli..Mapping$RP$$GT$$GT$17h8e3a0d14f7be8001E>
100001d54: e0 03 15 aa 	mov	x0, x21
100001d58: 32 be 00 94 	bl	0x100031620 <_writev+0x100031620>
100001d5c: bd bd 00 94 	bl	0x100031450 <__ZN4core9panicking15panic_no_unwind17ha22e330d9595cb93E>

0000000100001d60 <__ZN4core3ptr105drop_in_place$LT$core..result..Result$LT$alloc..ffi..c_str..CString$C$alloc..ffi..c_str..NulError$GT$$GT$17h1327e98b156f92b4E>:
100001d60: 08 00 40 f9 	ldr	x8, [x0]
100001d64: c8 00 00 b4 	cbz	x8, 0x100001d7c <__ZN4core3ptr105drop_in_place$LT$core..result..Result$LT$alloc..ffi..c_str..CString$C$alloc..ffi..c_str..NulError$GT$$GT$17h1327e98b156f92b4E+0x1c>
100001d68: 01 0c 40 f9 	ldr	x1, [x0, #24]
100001d6c: 61 01 00 b4 	cbz	x1, 0x100001d98 <__ZN4core3ptr105drop_in_place$LT$core..result..Result$LT$alloc..ffi..c_str..CString$C$alloc..ffi..c_str..NulError$GT$$GT$17h1327e98b156f92b4E+0x38>
100001d70: 00 08 40 f9 	ldr	x0, [x0, #16]
100001d74: 22 00 80 52 	mov	w2, #1
100001d78: d1 fd ff 17 	b	0x1000014bc <___rust_dealloc>
100001d7c: 08 04 40 f9 	ldr	x8, [x0, #8]
100001d80: 1f 01 00 39 	strb	wzr, [x8]
100001d84: 01 08 40 f9 	ldr	x1, [x0, #16]
100001d88: 81 00 00 b4 	cbz	x1, 0x100001d98 <__ZN4core3ptr105drop_in_place$LT$core..result..Result$LT$alloc..ffi..c_str..CString$C$alloc..ffi..c_str..NulError$GT$$GT$17h1327e98b156f92b4E+0x38>
100001d8c: 00 04 40 f9 	ldr	x0, [x0, #8]
100001d90: 22 00 80 52 	mov	w2, #1
100001d94: ca fd ff 17 	b	0x1000014bc <___rust_dealloc>
100001d98: c0 03 5f d6 	ret

0000000100001d9c <__ZN4core3ptr107drop_in_place$LT$alloc..sync..Arc$LT$core..mem..maybe_uninit..MaybeUninit$LT$std..thread..Inner$GT$$GT$$GT$17hb2171fd7a8f63e65E>:
100001d9c: 08 00 40 f9 	ldr	x8, [x0]
100001da0: 09 00 80 92 	mov	x9, #-1
100001da4: 08 01 69 f8 	<unknown>
100001da8: 1f 05 00 f1 	cmp	x8, #1
100001dac: 81 00 00 54 	b.ne	0x100001dbc <__ZN4core3ptr107drop_in_place$LT$alloc..sync..Arc$LT$core..mem..maybe_uninit..MaybeUninit$LT$std..thread..Inner$GT$$GT$$GT$17hb2171fd7a8f63e65E+0x20>
100001db0: bf 39 03 d5 	dmb	ishld
100001db4: 00 00 40 f9 	ldr	x0, [x0]
100001db8: c6 11 00 14 	b	0x1000064d0 <__ZN5alloc4sync12Arc$LT$T$GT$9drop_slow17ha85fe76f318f42c9E>
100001dbc: c0 03 5f d6 	ret

0000000100001dc0 <__ZN4core3ptr108drop_in_place$LT$alloc..collections..btree..map..BTreeMap$LT$u64$C$gimli..read..abbrev..Abbreviation$GT$$GT$17h48dacb99ef8973c0E>:
100001dc0: ff 03 02 d1 	sub	sp, sp, #128
100001dc4: f4 4f 06 a9 	stp	x20, x19, [sp, #96]
100001dc8: fd 7b 07 a9 	stp	x29, x30, [sp, #112]
100001dcc: fd c3 01 91 	add	x29, sp, #112
100001dd0: 0a 04 40 f9 	ldr	x10, [x0, #8]
100001dd4: 0a 01 00 b4 	cbz	x10, 0x100001df4 <__ZN4core3ptr108drop_in_place$LT$alloc..collections..btree..map..BTreeMap$LT$u64$C$gimli..read..abbrev..Abbreviation$GT$$GT$17h48dacb99ef8973c0E+0x34>
100001dd8: 09 00 80 d2 	mov	x9, #0
100001ddc: 0b 00 40 f9 	ldr	x11, [x0]
100001de0: 08 08 40 f9 	ldr	x8, [x0, #16]
100001de4: ff 2f 00 a9 	stp	xzr, x11, [sp]
100001de8: ea 0b 00 f9 	str	x10, [sp, #16]
100001dec: eb ab 02 a9 	stp	x11, x10, [sp, #40]
100001df0: 07 00 00 14 	b	0x100001e0c <__ZN4core3ptr108drop_in_place$LT$alloc..collections..btree..map..BTreeMap$LT$u64$C$gimli..read..abbrev..Abbreviation$GT$$GT$17h48dacb99ef8973c0E+0x4c>
100001df4: 08 00 80 d2 	mov	x8, #0
100001df8: ff 7f 01 a9 	stp	xzr, xzr, [sp, #16]
100001dfc: ff 7f 03 a9 	stp	xzr, xzr, [sp, #48]
100001e00: ff 17 00 f9 	str	xzr, [sp, #40]
100001e04: 49 00 80 52 	mov	w9, #2
100001e08: e9 7f 00 a9 	stp	x9, xzr, [sp]
100001e0c: e9 13 00 f9 	str	x9, [sp, #32]
100001e10: e8 23 00 f9 	str	x8, [sp, #64]
100001e14: a0 a3 00 d1 	sub	x0, x29, #40
100001e18: e1 03 00 91 	mov	x1, sp
100001e1c: a1 10 00 94 	bl	0x1000060a0 <__ZN5alloc11collections5btree3map25IntoIter$LT$K$C$V$C$A$GT$10dying_next17h7f143ac5a2cd5862E>
100001e20: a8 03 5e f8 	ldur	x8, [x29, #-32]
100001e24: c8 02 00 b4 	cbz	x8, 0x100001e7c <__ZN4core3ptr108drop_in_place$LT$alloc..collections..btree..map..BTreeMap$LT$u64$C$gimli..read..abbrev..Abbreviation$GT$$GT$17h48dacb99ef8973c0E+0xbc>
100001e28: 13 0e 80 52 	mov	w19, #112
100001e2c: 06 00 00 14 	b	0x100001e44 <__ZN4core3ptr108drop_in_place$LT$alloc..collections..btree..map..BTreeMap$LT$u64$C$gimli..read..abbrev..Abbreviation$GT$$GT$17h48dacb99ef8973c0E+0x84>
100001e30: a0 a3 00 d1 	sub	x0, x29, #40
100001e34: e1 03 00 91 	mov	x1, sp
100001e38: 9a 10 00 94 	bl	0x1000060a0 <__ZN5alloc11collections5btree3map25IntoIter$LT$K$C$V$C$A$GT$10dying_next17h7f143ac5a2cd5862E>
100001e3c: a8 03 5e f8 	ldur	x8, [x29, #-32]
100001e40: e8 01 00 b4 	cbz	x8, 0x100001e7c <__ZN4core3ptr108drop_in_place$LT$alloc..collections..btree..map..BTreeMap$LT$u64$C$gimli..read..abbrev..Abbreviation$GT$$GT$17h48dacb99ef8973c0E+0xbc>
100001e44: a9 83 5e f8 	ldur	x9, [x29, #-24]
100001e48: 2a 21 13 9b 	madd	x10, x9, x19, x8
100001e4c: 4a 35 40 f9 	ldr	x10, [x10, #104]
100001e50: 0a ff ff b4 	cbz	x10, 0x100001e30 <__ZN4core3ptr108drop_in_place$LT$alloc..collections..btree..map..BTreeMap$LT$u64$C$gimli..read..abbrev..Abbreviation$GT$$GT$17h48dacb99ef8973c0E+0x70>
100001e54: 28 21 13 9b 	madd	x8, x9, x19, x8
100001e58: 09 3d 40 f9 	ldr	x9, [x8, #120]
100001e5c: 3f 01 00 f1 	cmp	x9, #0
100001e60: 21 ed 7c d3 	lsl	x1, x9, #4
100001e64: 24 18 40 fa 	ccmp	x1, #0, #4, ne
100001e68: 40 fe ff 54 	b.eq	0x100001e30 <__ZN4core3ptr108drop_in_place$LT$alloc..collections..btree..map..BTreeMap$LT$u64$C$gimli..read..abbrev..Abbreviation$GT$$GT$17h48dacb99ef8973c0E+0x70>
100001e6c: 00 39 40 f9 	ldr	x0, [x8, #112]
100001e70: 02 01 80 52 	mov	w2, #8
100001e74: 92 fd ff 97 	bl	0x1000014bc <___rust_dealloc>
100001e78: ee ff ff 17 	b	0x100001e30 <__ZN4core3ptr108drop_in_place$LT$alloc..collections..btree..map..BTreeMap$LT$u64$C$gimli..read..abbrev..Abbreviation$GT$$GT$17h48dacb99ef8973c0E+0x70>
100001e7c: fd 7b 47 a9 	ldp	x29, x30, [sp, #112]
100001e80: f4 4f 46 a9 	ldp	x20, x19, [sp, #96]
100001e84: ff 03 02 91 	add	sp, sp, #128
100001e88: c0 03 5f d6 	ret

0000000100001e8c <__ZN4core3ptr111drop_in_place$LT$alloc..raw_vec..RawVec$LT$$LP$usize$C$std..backtrace_rs..symbolize..gimli..Mapping$RP$$GT$$GT$17h8e3a0d14f7be8001E>:
100001e8c: c1 00 00 b4 	cbz	x1, 0x100001ea4 <__ZN4core3ptr111drop_in_place$LT$alloc..raw_vec..RawVec$LT$$LP$usize$C$std..backtrace_rs..symbolize..gimli..Mapping$RP$$GT$$GT$17h8e3a0d14f7be8001E+0x18>
100001e90: 28 14 01 8b 	add	x8, x1, x1, lsl #5
100001e94: 01 f1 7d d3 	lsl	x1, x8, #3
100001e98: 61 00 00 b4 	cbz	x1, 0x100001ea4 <__ZN4core3ptr111drop_in_place$LT$alloc..raw_vec..RawVec$LT$$LP$usize$C$std..backtrace_rs..symbolize..gimli..Mapping$RP$$GT$$GT$17h8e3a0d14f7be8001E+0x18>
100001e9c: 02 01 80 52 	mov	w2, #8
100001ea0: 87 fd ff 17 	b	0x1000014bc <___rust_dealloc>
100001ea4: c0 03 5f d6 	ret

0000000100001ea8 <__ZN4core3ptr115drop_in_place$LT$core..cell..RefMut$LT$core..option..Option$LT$std..sys_common..thread_info..ThreadInfo$GT$$GT$$GT$17hfb41966512f1ab60E>:
100001ea8: 08 00 40 f9 	ldr	x8, [x0]
100001eac: 08 05 00 91 	add	x8, x8, #1
100001eb0: 08 00 00 f9 	str	x8, [x0]
100001eb4: c0 03 5f d6 	ret

0000000100001eb8 <__ZN4core3ptr118drop_in_place$LT$alloc..vec..Vec$LT$$LP$gimli..common..DebugInfoOffset$C$gimli..common..DebugArangesOffset$RP$$GT$$GT$17h3ce8f51ea09cdffeE>:
100001eb8: 08 04 40 f9 	ldr	x8, [x0, #8]
100001ebc: 1f 01 00 f1 	cmp	x8, #0
100001ec0: 01 ed 7c d3 	lsl	x1, x8, #4
100001ec4: 24 18 40 fa 	ccmp	x1, #0, #4, ne
100001ec8: 41 00 00 54 	b.ne	0x100001ed0 <__ZN4core3ptr118drop_in_place$LT$alloc..vec..Vec$LT$$LP$gimli..common..DebugInfoOffset$C$gimli..common..DebugArangesOffset$RP$$GT$$GT$17h3ce8f51ea09cdffeE+0x18>
100001ecc: c0 03 5f d6 	ret
100001ed0: 00 00 40 f9 	ldr	x0, [x0]
100001ed4: 02 01 80 52 	mov	w2, #8
100001ed8: 79 fd ff 17 	b	0x1000014bc <___rust_dealloc>

0000000100001edc <__ZN4core3ptr119drop_in_place$LT$addr2line..lazy..LazyCell$LT$core..result..Result$LT$addr2line..Lines$C$gimli..read..Error$GT$$GT$$GT$17h39695325084f2516E>:
100001edc: 08 00 40 f9 	ldr	x8, [x0]
100001ee0: 1f 09 00 f1 	cmp	x8, #2
100001ee4: 41 00 00 54 	b.ne	0x100001eec <__ZN4core3ptr119drop_in_place$LT$addr2line..lazy..LazyCell$LT$core..result..Result$LT$addr2line..Lines$C$gimli..read..Error$GT$$GT$$GT$17h39695325084f2516E+0x10>
100001ee8: c0 03 5f d6 	ret
100001eec: ef 04 00 14 	b	0x1000032a8 <__ZN4core3ptr86drop_in_place$LT$core..result..Result$LT$addr2line..Lines$C$gimli..read..Error$GT$$GT$17h1e061d1d150553acE>

0000000100001ef0 <__ZN4core3ptr121drop_in_place$LT$core..option..Option$LT$core..option..Option$LT$std..backtrace_rs..symbolize..gimli..Mapping$GT$$GT$$GT$17hf8efd2f4f36f4201E>:
100001ef0: 08 e0 42 39 	ldrb	w8, [x0, #184]
100001ef4: 48 00 08 37 	tbnz	w8, #1, 0x100001efc <__ZN4core3ptr121drop_in_place$LT$core..option..Option$LT$core..option..Option$LT$std..backtrace_rs..symbolize..gimli..Mapping$GT$$GT$$GT$17hf8efd2f4f36f4201E+0xc>
100001ef8: 7b 03 00 14 	b	0x100002ce4 <__ZN4core3ptr65drop_in_place$LT$std..backtrace_rs..symbolize..gimli..Mapping$GT$17h950bee55b2d4f0cfE>
100001efc: c0 03 5f d6 	ret

0000000100001f00 <__ZN4core3ptr123drop_in_place$LT$addr2line..ResUnit$LT$gimli..read..endian_slice..EndianSlice$LT$gimli..endianity..LittleEndian$GT$$GT$$GT$17hde6abebd6e000608E>:
100001f00: f4 4f be a9 	stp	x20, x19, [sp, #-32]!
100001f04: fd 7b 01 a9 	stp	x29, x30, [sp, #16]
100001f08: fd 43 00 91 	add	x29, sp, #16
100001f0c: f3 03 00 aa 	mov	x19, x0
100001f10: 00 20 00 91 	add	x0, x0, #8
100001f14: 5a 00 00 94 	bl	0x10000207c <__ZN4core3ptr137drop_in_place$LT$gimli..read..dwarf..Unit$LT$gimli..read..endian_slice..EndianSlice$LT$gimli..endianity..LittleEndian$GT$$C$usize$GT$$GT$17h4cfc9c99548a2942E>
100001f18: 68 ee 40 f9 	ldr	x8, [x19, #472]
100001f1c: 1f 09 00 f1 	cmp	x8, #2
100001f20: 60 00 00 54 	b.eq	0x100001f2c <__ZN4core3ptr123drop_in_place$LT$addr2line..ResUnit$LT$gimli..read..endian_slice..EndianSlice$LT$gimli..endianity..LittleEndian$GT$$GT$$GT$17hde6abebd6e000608E+0x2c>
100001f24: 60 62 07 91 	add	x0, x19, #472
100001f28: e0 04 00 94 	bl	0x1000032a8 <__ZN4core3ptr86drop_in_place$LT$core..result..Result$LT$addr2line..Lines$C$gimli..read..Error$GT$$GT$17h1e061d1d150553acE>
100001f2c: 68 02 41 f9 	ldr	x8, [x19, #512]
100001f30: 1f 09 00 f1 	cmp	x8, #2
100001f34: 81 00 00 54 	b.ne	0x100001f44 <__ZN4core3ptr123drop_in_place$LT$addr2line..ResUnit$LT$gimli..read..endian_slice..EndianSlice$LT$gimli..endianity..LittleEndian$GT$$GT$$GT$17hde6abebd6e000608E+0x44>
100001f38: fd 7b 41 a9 	ldp	x29, x30, [sp, #16]
100001f3c: f4 4f c2 a8 	ldp	x20, x19, [sp], #32
100001f40: c0 03 5f d6 	ret
100001f44: 60 02 08 91 	add	x0, x19, #512
100001f48: fd 7b 41 a9 	ldp	x29, x30, [sp, #16]
100001f4c: f4 4f c2 a8 	ldp	x20, x19, [sp], #32
100001f50: 9f 01 00 14 	b	0x1000025cc <__ZN4core3ptr184drop_in_place$LT$core..result..Result$LT$addr2line..function..Functions$LT$gimli..read..endian_slice..EndianSlice$LT$gimli..endianity..LittleEndian$GT$$GT$$C$gimli..read..Error$GT$$GT$17h3711493257847561E>
100001f54: f4 03 00 aa 	mov	x20, x0
100001f58: 60 62 07 91 	add	x0, x19, #472
100001f5c: e0 ff ff 97 	bl	0x100001edc <__ZN4core3ptr119drop_in_place$LT$addr2line..lazy..LazyCell$LT$core..result..Result$LT$addr2line..Lines$C$gimli..read..Error$GT$$GT$$GT$17h39695325084f2516E>
100001f60: 60 02 08 91 	add	x0, x19, #512
100001f64: d0 01 00 94 	bl	0x1000026a4 <__ZN4core3ptr217drop_in_place$LT$addr2line..lazy..LazyCell$LT$core..result..Result$LT$addr2line..function..Functions$LT$gimli..read..endian_slice..EndianSlice$LT$gimli..endianity..LittleEndian$GT$$GT$$C$gimli..read..Error$GT$$GT$$GT$17h971ad4a53da4df02E>
100001f68: e0 03 14 aa 	mov	x0, x20
100001f6c: ad bd 00 94 	bl	0x100031620 <_writev+0x100031620>

0000000100001f70 <__ZN4core3ptr124drop_in_place$LT$addr2line..ResDwarf$LT$gimli..read..endian_slice..EndianSlice$LT$gimli..endianity..LittleEndian$GT$$GT$$GT$17h28a08620bd5579caE>:
100001f70: f4 4f be a9 	stp	x20, x19, [sp, #-32]!
100001f74: fd 7b 01 a9 	stp	x29, x30, [sp, #16]
100001f78: fd 43 00 91 	add	x29, sp, #16
100001f7c: f3 03 00 aa 	mov	x19, x0
100001f80: 08 04 40 f9 	ldr	x8, [x0, #8]
100001f84: 1f 01 00 f1 	cmp	x8, #0
100001f88: 01 e9 7b d3 	lsl	x1, x8, #5
100001f8c: 24 18 40 fa 	ccmp	x1, #0, #4, ne
100001f90: 80 00 00 54 	b.eq	0x100001fa0 <__ZN4core3ptr124drop_in_place$LT$addr2line..ResDwarf$LT$gimli..read..endian_slice..EndianSlice$LT$gimli..endianity..LittleEndian$GT$$GT$$GT$17h28a08620bd5579caE+0x30>
100001f94: 60 02 40 f9 	ldr	x0, [x19]
100001f98: 02 01 80 52 	mov	w2, #8
100001f9c: 48 fd ff 97 	bl	0x1000014bc <___rust_dealloc>
100001fa0: 60 62 00 91 	add	x0, x19, #24
100001fa4: a0 00 00 94 	bl	0x100002224 <__ZN4core3ptr146drop_in_place$LT$alloc..vec..Vec$LT$addr2line..ResUnit$LT$gimli..read..endian_slice..EndianSlice$LT$gimli..endianity..LittleEndian$GT$$GT$$GT$$GT$17hfed3f6bcdc14ba43E>
100001fa8: e0 03 13 aa 	mov	x0, x19
100001fac: 08 0c 43 f8 	ldr	x8, [x0, #48]!
100001fb0: 09 00 80 92 	mov	x9, #-1
100001fb4: 08 01 69 f8 	<unknown>
100001fb8: 1f 05 00 f1 	cmp	x8, #1
100001fbc: 61 00 00 54 	b.ne	0x100001fc8 <__ZN4core3ptr124drop_in_place$LT$addr2line..ResDwarf$LT$gimli..read..endian_slice..EndianSlice$LT$gimli..endianity..LittleEndian$GT$$GT$$GT$17h28a08620bd5579caE+0x58>
100001fc0: bf 39 03 d5 	dmb	ishld
100001fc4: be 10 00 94 	bl	0x1000062bc <__ZN5alloc4sync12Arc$LT$T$GT$9drop_slow17h1c676ae4c9b5fabcE>
100001fc8: 60 1e 40 f9 	ldr	x0, [x19, #56]
100001fcc: 00 01 00 b4 	cbz	x0, 0x100001fec <__ZN4core3ptr124drop_in_place$LT$addr2line..ResDwarf$LT$gimli..read..endian_slice..EndianSlice$LT$gimli..endianity..LittleEndian$GT$$GT$$GT$17h28a08620bd5579caE+0x7c>
100001fd0: e8 ff ff 97 	bl	0x100001f70 <__ZN4core3ptr124drop_in_place$LT$addr2line..ResDwarf$LT$gimli..read..endian_slice..EndianSlice$LT$gimli..endianity..LittleEndian$GT$$GT$$GT$17h28a08620bd5579caE>
100001fd4: 60 1e 40 f9 	ldr	x0, [x19, #56]
100001fd8: 01 08 80 52 	mov	w1, #64
100001fdc: 02 01 80 52 	mov	w2, #8
100001fe0: fd 7b 41 a9 	ldp	x29, x30, [sp, #16]
100001fe4: f4 4f c2 a8 	ldp	x20, x19, [sp], #32
100001fe8: 35 fd ff 17 	b	0x1000014bc <___rust_dealloc>
100001fec: fd 7b 41 a9 	ldp	x29, x30, [sp, #16]
100001ff0: f4 4f c2 a8 	ldp	x20, x19, [sp], #32
100001ff4: c0 03 5f d6 	ret
100001ff8: f4 03 00 aa 	mov	x20, x0
100001ffc: 60 1e 40 f9 	ldr	x0, [x19, #56]
100002000: 4b 11 00 94 	bl	0x10000652c <__ZN5alloc5alloc8box_free17h2df778ef127c4147E>
100002004: 06 00 00 14 	b	0x10000201c <__ZN4core3ptr124drop_in_place$LT$addr2line..ResDwarf$LT$gimli..read..endian_slice..EndianSlice$LT$gimli..endianity..LittleEndian$GT$$GT$$GT$17h28a08620bd5579caE+0xac>
100002008: f4 03 00 aa 	mov	x20, x0
10000200c: 60 c2 00 91 	add	x0, x19, #48
100002010: 0e 01 00 94 	bl	0x100002448 <__ZN4core3ptr154drop_in_place$LT$alloc..sync..Arc$LT$gimli..read..dwarf..Dwarf$LT$gimli..read..endian_slice..EndianSlice$LT$gimli..endianity..LittleEndian$GT$$GT$$GT$$GT$17h97e356c0225c0e05E>
100002014: 60 e2 00 91 	add	x0, x19, #56
100002018: 53 01 00 94 	bl	0x100002564 <__ZN4core3ptr177drop_in_place$LT$core..option..Option$LT$alloc..boxed..Box$LT$addr2line..ResDwarf$LT$gimli..read..endian_slice..EndianSlice$LT$gimli..endianity..LittleEndian$GT$$GT$$GT$$GT$$GT$17h0177d4e7135589a6E>
10000201c: e0 03 14 aa 	mov	x0, x20
100002020: 80 bd 00 94 	bl	0x100031620 <_writev+0x100031620>
100002024: 0b bd 00 94 	bl	0x100031450 <__ZN4core9panicking15panic_no_unwind17ha22e330d9595cb93E>

0000000100002028 <__ZN4core3ptr125drop_in_place$LT$addr2line..FrameIter$LT$gimli..read..endian_slice..EndianSlice$LT$gimli..endianity..LittleEndian$GT$$GT$$GT$17hdcde8688e60b401fE>:
100002028: 08 00 40 f9 	ldr	x8, [x0]
10000202c: 1f 09 00 f1 	cmp	x8, #2
100002030: c3 00 00 54 	b.lo	0x100002048 <__ZN4core3ptr125drop_in_place$LT$addr2line..FrameIter$LT$gimli..read..endian_slice..EndianSlice$LT$gimli..endianity..LittleEndian$GT$$GT$$GT$17hdcde8688e60b401fE+0x20>
100002034: 08 14 40 f9 	ldr	x8, [x0, #40]
100002038: 1f 01 00 f1 	cmp	x8, #0
10000203c: 01 f1 7d d3 	lsl	x1, x8, #3
100002040: 24 18 40 fa 	ccmp	x1, #0, #4, ne
100002044: 41 00 00 54 	b.ne	0x10000204c <__ZN4core3ptr125drop_in_place$LT$addr2line..FrameIter$LT$gimli..read..endian_slice..EndianSlice$LT$gimli..endianity..LittleEndian$GT$$GT$$GT$17hdcde8688e60b401fE+0x24>
100002048: c0 03 5f d6 	ret
10000204c: 00 10 40 f9 	ldr	x0, [x0, #32]
100002050: 02 01 80 52 	mov	w2, #8
100002054: 1a fd ff 17 	b	0x1000014bc <___rust_dealloc>

0000000100002058 <__ZN4core3ptr130drop_in_place$LT$gimli..read..dwarf..Dwarf$LT$gimli..read..endian_slice..EndianSlice$LT$gimli..endianity..LittleEndian$GT$$GT$$GT$17h34ee511c7635fe1cE>:
100002058: 08 0c 4d f8 	ldr	x8, [x0, #208]!
10000205c: e8 00 00 b4 	cbz	x8, 0x100002078 <__ZN4core3ptr130drop_in_place$LT$gimli..read..dwarf..Dwarf$LT$gimli..read..endian_slice..EndianSlice$LT$gimli..endianity..LittleEndian$GT$$GT$$GT$17h34ee511c7635fe1cE+0x20>
100002060: 09 00 80 92 	mov	x9, #-1
100002064: 08 01 69 f8 	<unknown>
100002068: 1f 05 00 f1 	cmp	x8, #1
10000206c: 61 00 00 54 	b.ne	0x100002078 <__ZN4core3ptr130drop_in_place$LT$gimli..read..dwarf..Dwarf$LT$gimli..read..endian_slice..EndianSlice$LT$gimli..endianity..LittleEndian$GT$$GT$$GT$17h34ee511c7635fe1cE+0x20>
100002070: bf 39 03 d5 	dmb	ishld
100002074: 92 10 00 14 	b	0x1000062bc <__ZN5alloc4sync12Arc$LT$T$GT$9drop_slow17h1c676ae4c9b5fabcE>
100002078: c0 03 5f d6 	ret

000000010000207c <__ZN4core3ptr137drop_in_place$LT$gimli..read..dwarf..Unit$LT$gimli..read..endian_slice..EndianSlice$LT$gimli..endianity..LittleEndian$GT$$C$usize$GT$$GT$17h4cfc9c99548a2942E>:
10000207c: f6 57 bd a9 	stp	x22, x21, [sp, #-48]!
100002080: f4 4f 01 a9 	stp	x20, x19, [sp, #16]
100002084: fd 7b 02 a9 	stp	x29, x30, [sp, #32]
100002088: fd 83 00 91 	add	x29, sp, #32
10000208c: f3 03 00 aa 	mov	x19, x0
100002090: 00 28 40 f9 	ldr	x0, [x0, #80]
100002094: 68 32 40 f9 	ldr	x8, [x19, #96]
100002098: 88 02 00 b4 	cbz	x8, 0x1000020e8 <__ZN4core3ptr137drop_in_place$LT$gimli..read..dwarf..Unit$LT$gimli..read..endian_slice..EndianSlice$LT$gimli..endianity..LittleEndian$GT$$C$usize$GT$$GT$17h4cfc9c99548a2942E+0x6c>
10000209c: 14 60 00 91 	add	x20, x0, #24
1000020a0: 09 0e 80 52 	mov	w9, #112
1000020a4: 15 7d 09 9b 	mul	x21, x8, x9
1000020a8: 04 00 00 14 	b	0x1000020b8 <__ZN4core3ptr137drop_in_place$LT$gimli..read..dwarf..Unit$LT$gimli..read..endian_slice..EndianSlice$LT$gimli..endianity..LittleEndian$GT$$C$usize$GT$$GT$17h4cfc9c99548a2942E+0x3c>
1000020ac: 94 c2 01 91 	add	x20, x20, #112
1000020b0: b5 c2 01 f1 	subs	x21, x21, #112
1000020b4: 80 01 00 54 	b.eq	0x1000020e4 <__ZN4core3ptr137drop_in_place$LT$gimli..read..dwarf..Unit$LT$gimli..read..endian_slice..EndianSlice$LT$gimli..endianity..LittleEndian$GT$$C$usize$GT$$GT$17h4cfc9c99548a2942E+0x68>
1000020b8: 88 02 5f f8 	ldur	x8, [x20, #-16]
1000020bc: 88 ff ff b4 	cbz	x8, 0x1000020ac <__ZN4core3ptr137drop_in_place$LT$gimli..read..dwarf..Unit$LT$gimli..read..endian_slice..EndianSlice$LT$gimli..endianity..LittleEndian$GT$$C$usize$GT$$GT$17h4cfc9c99548a2942E+0x30>
1000020c0: 88 02 40 f9 	ldr	x8, [x20]
1000020c4: 1f 01 00 f1 	cmp	x8, #0
1000020c8: 01 ed 7c d3 	lsl	x1, x8, #4
1000020cc: 24 18 40 fa 	ccmp	x1, #0, #4, ne
1000020d0: e0 fe ff 54 	b.eq	0x1000020ac <__ZN4core3ptr137drop_in_place$LT$gimli..read..dwarf..Unit$LT$gimli..read..endian_slice..EndianSlice$LT$gimli..endianity..LittleEndian$GT$$C$usize$GT$$GT$17h4cfc9c99548a2942E+0x30>
1000020d4: 80 82 5f f8 	ldur	x0, [x20, #-8]
1000020d8: 02 01 80 52 	mov	w2, #8
1000020dc: f8 fc ff 97 	bl	0x1000014bc <___rust_dealloc>
1000020e0: f3 ff ff 17 	b	0x1000020ac <__ZN4core3ptr137drop_in_place$LT$gimli..read..dwarf..Unit$LT$gimli..read..endian_slice..EndianSlice$LT$gimli..endianity..LittleEndian$GT$$C$usize$GT$$GT$17h4cfc9c99548a2942E+0x30>
1000020e4: 60 2a 40 f9 	ldr	x0, [x19, #80]
1000020e8: 68 2e 40 f9 	ldr	x8, [x19, #88]
1000020ec: 1f 01 00 f1 	cmp	x8, #0
1000020f0: 09 0e 80 52 	mov	w9, #112
1000020f4: 01 7d 09 9b 	mul	x1, x8, x9
1000020f8: 24 18 40 fa 	ccmp	x1, #0, #4, ne
1000020fc: 60 00 00 54 	b.eq	0x100002108 <__ZN4core3ptr137drop_in_place$LT$gimli..read..dwarf..Unit$LT$gimli..read..endian_slice..EndianSlice$LT$gimli..endianity..LittleEndian$GT$$C$usize$GT$$GT$17h4cfc9c99548a2942E+0x8c>
100002100: 02 01 80 52 	mov	w2, #8
100002104: ee fc ff 97 	bl	0x1000014bc <___rust_dealloc>
100002108: 60 a2 01 91 	add	x0, x19, #104
10000210c: 2d ff ff 97 	bl	0x100001dc0 <__ZN4core3ptr108drop_in_place$LT$alloc..collections..btree..map..BTreeMap$LT$u64$C$gimli..read..abbrev..Abbreviation$GT$$GT$17h48dacb99ef8973c0E>
100002110: 68 ba 40 f9 	ldr	x8, [x19, #368]
100002114: 1f bd 00 f1 	cmp	x8, #47
100002118: a1 00 00 54 	b.ne	0x10000212c <__ZN4core3ptr137drop_in_place$LT$gimli..read..dwarf..Unit$LT$gimli..read..endian_slice..EndianSlice$LT$gimli..endianity..LittleEndian$GT$$C$usize$GT$$GT$17h4cfc9c99548a2942E+0xb0>
10000211c: fd 7b 42 a9 	ldp	x29, x30, [sp, #32]
100002120: f4 4f 41 a9 	ldp	x20, x19, [sp, #16]
100002124: f6 57 c3 a8 	ldp	x22, x21, [sp], #48
100002128: c0 03 5f d6 	ret
10000212c: 60 22 03 91 	add	x0, x19, #200
100002130: fd 7b 42 a9 	ldp	x29, x30, [sp, #32]
100002134: f4 4f 41 a9 	ldp	x20, x19, [sp, #16]
100002138: f6 57 c3 a8 	ldp	x22, x21, [sp], #48
10000213c: 92 00 00 14 	b	0x100002384 <__ZN4core3ptr153drop_in_place$LT$gimli..read..line..IncompleteLineProgram$LT$gimli..read..endian_slice..EndianSlice$LT$gimli..endianity..LittleEndian$GT$$C$usize$GT$$GT$17h40b081ba830dba9dE>
100002140: f4 03 00 aa 	mov	x20, x0
100002144: 60 22 03 91 	add	x0, x19, #200
100002148: 1c 01 00 94 	bl	0x1000025b8 <__ZN4core3ptr181drop_in_place$LT$core..option..Option$LT$gimli..read..line..IncompleteLineProgram$LT$gimli..read..endian_slice..EndianSlice$LT$gimli..endianity..LittleEndian$GT$$C$usize$GT$$GT$$GT$17h30d58767c0dc6d9fE>
10000214c: e0 03 14 aa 	mov	x0, x20
100002150: 34 bd 00 94 	bl	0x100031620 <_writev+0x100031620>

0000000100002154 <__ZN4core3ptr144drop_in_place$LT$alloc..vec..Vec$LT$core..option..Option$LT$core..option..Option$LT$std..backtrace_rs..symbolize..gimli..Mapping$GT$$GT$$GT$$GT$17h8770d93ecd59a080E>:
100002154: f8 5f bc a9 	stp	x24, x23, [sp, #-64]!
100002158: f6 57 01 a9 	stp	x22, x21, [sp, #16]
10000215c: f4 4f 02 a9 	stp	x20, x19, [sp, #32]
100002160: fd 7b 03 a9 	stp	x29, x30, [sp, #48]
100002164: fd c3 00 91 	add	x29, sp, #48
100002168: f3 03 00 aa 	mov	x19, x0
10000216c: 00 00 40 f9 	ldr	x0, [x0]
100002170: 68 0a 40 f9 	ldr	x8, [x19, #16]
100002174: e8 01 00 b4 	cbz	x8, 0x1000021b0 <__ZN4core3ptr144drop_in_place$LT$alloc..vec..Vec$LT$core..option..Option$LT$core..option..Option$LT$std..backtrace_rs..symbolize..gimli..Mapping$GT$$GT$$GT$$GT$17h8770d93ecd59a080E+0x5c>
100002178: 08 dd 78 d3 	lsl	x8, x8, #8
10000217c: 16 01 04 d1 	sub	x22, x8, #256
100002180: 14 00 04 91 	add	x20, x0, #256
100002184: 05 00 00 14 	b	0x100002198 <__ZN4core3ptr144drop_in_place$LT$alloc..vec..Vec$LT$core..option..Option$LT$core..option..Option$LT$std..backtrace_rs..symbolize..gimli..Mapping$GT$$GT$$GT$$GT$17h8770d93ecd59a080E+0x44>
100002188: d6 02 04 d1 	sub	x22, x22, #256
10000218c: 94 02 04 91 	add	x20, x20, #256
100002190: df 02 04 b1 	cmn	x22, #256
100002194: c0 00 00 54 	b.eq	0x1000021ac <__ZN4core3ptr144drop_in_place$LT$alloc..vec..Vec$LT$core..option..Option$LT$core..option..Option$LT$std..backtrace_rs..symbolize..gimli..Mapping$GT$$GT$$GT$$GT$17h8770d93ecd59a080E+0x58>
100002198: 88 82 5b 38 	ldurb	w8, [x20, #-72]
10000219c: 68 ff 0f 37 	tbnz	w8, #1, 0x100002188 <__ZN4core3ptr144drop_in_place$LT$alloc..vec..Vec$LT$core..option..Option$LT$core..option..Option$LT$std..backtrace_rs..symbolize..gimli..Mapping$GT$$GT$$GT$$GT$17h8770d93ecd59a080E+0x34>
1000021a0: 80 02 04 d1 	sub	x0, x20, #256
1000021a4: d0 02 00 94 	bl	0x100002ce4 <__ZN4core3ptr65drop_in_place$LT$std..backtrace_rs..symbolize..gimli..Mapping$GT$17h950bee55b2d4f0cfE>
1000021a8: f8 ff ff 17 	b	0x100002188 <__ZN4core3ptr144drop_in_place$LT$alloc..vec..Vec$LT$core..option..Option$LT$core..option..Option$LT$std..backtrace_rs..symbolize..gimli..Mapping$GT$$GT$$GT$$GT$17h8770d93ecd59a080E+0x34>
1000021ac: 60 02 40 f9 	ldr	x0, [x19]
1000021b0: 68 06 40 f9 	ldr	x8, [x19, #8]
1000021b4: 1f 01 00 f1 	cmp	x8, #0
1000021b8: 01 dd 78 d3 	lsl	x1, x8, #8
1000021bc: 24 18 40 fa 	ccmp	x1, #0, #4, ne
1000021c0: c1 00 00 54 	b.ne	0x1000021d8 <__ZN4core3ptr144drop_in_place$LT$alloc..vec..Vec$LT$core..option..Option$LT$core..option..Option$LT$std..backtrace_rs..symbolize..gimli..Mapping$GT$$GT$$GT$$GT$17h8770d93ecd59a080E+0x84>
1000021c4: fd 7b 43 a9 	ldp	x29, x30, [sp, #48]
1000021c8: f4 4f 42 a9 	ldp	x20, x19, [sp, #32]
1000021cc: f6 57 41 a9 	ldp	x22, x21, [sp, #16]
1000021d0: f8 5f c4 a8 	ldp	x24, x23, [sp], #64
1000021d4: c0 03 5f d6 	ret
1000021d8: 02 01 80 52 	mov	w2, #8
1000021dc: fd 7b 43 a9 	ldp	x29, x30, [sp, #48]
1000021e0: f4 4f 42 a9 	ldp	x20, x19, [sp, #32]
1000021e4: f6 57 41 a9 	ldp	x22, x21, [sp, #16]
1000021e8: f8 5f c4 a8 	ldp	x24, x23, [sp], #64
1000021ec: b4 fc ff 17 	b	0x1000014bc <___rust_dealloc>
1000021f0: f5 03 00 aa 	mov	x21, x0
1000021f4: f6 00 00 b4 	cbz	x22, 0x100002210 <__ZN4core3ptr144drop_in_place$LT$alloc..vec..Vec$LT$core..option..Option$LT$core..option..Option$LT$std..backtrace_rs..symbolize..gimli..Mapping$GT$$GT$$GT$$GT$17h8770d93ecd59a080E+0xbc>
1000021f8: 97 02 04 91 	add	x23, x20, #256
1000021fc: d6 02 04 d1 	sub	x22, x22, #256
100002200: e0 03 14 aa 	mov	x0, x20
100002204: 3b ff ff 97 	bl	0x100001ef0 <__ZN4core3ptr121drop_in_place$LT$core..option..Option$LT$core..option..Option$LT$std..backtrace_rs..symbolize..gimli..Mapping$GT$$GT$$GT$17hf8efd2f4f36f4201E>
100002208: f4 03 17 aa 	mov	x20, x23
10000220c: fa ff ff 17 	b	0x1000021f4 <__ZN4core3ptr144drop_in_place$LT$alloc..vec..Vec$LT$core..option..Option$LT$core..option..Option$LT$std..backtrace_rs..symbolize..gimli..Mapping$GT$$GT$$GT$$GT$17h8770d93ecd59a080E+0xa0>
100002210: 60 06 40 a9 	ldp	x0, x1, [x19]
100002214: 4f 00 00 94 	bl	0x100002350 <__ZN4core3ptr151drop_in_place$LT$alloc..raw_vec..RawVec$LT$core..option..Option$LT$core..option..Option$LT$std..backtrace_rs..symbolize..gimli..Mapping$GT$$GT$$GT$$GT$17h6b4b77f4632ef36cE>
100002218: e0 03 15 aa 	mov	x0, x21
10000221c: 01 bd 00 94 	bl	0x100031620 <_writev+0x100031620>
100002220: 8c bc 00 94 	bl	0x100031450 <__ZN4core9panicking15panic_no_unwind17ha22e330d9595cb93E>

0000000100002224 <__ZN4core3ptr146drop_in_place$LT$alloc..vec..Vec$LT$addr2line..ResUnit$LT$gimli..read..endian_slice..EndianSlice$LT$gimli..endianity..LittleEndian$GT$$GT$$GT$$GT$17hfed3f6bcdc14ba43E>:
100002224: f8 5f bc a9 	stp	x24, x23, [sp, #-64]!
100002228: f6 57 01 a9 	stp	x22, x21, [sp, #16]
10000222c: f4 4f 02 a9 	stp	x20, x19, [sp, #32]
100002230: fd 7b 03 a9 	stp	x29, x30, [sp, #48]
100002234: fd c3 00 91 	add	x29, sp, #48
100002238: f3 03 00 aa 	mov	x19, x0
10000223c: 14 00 40 f9 	ldr	x20, [x0]
100002240: 08 08 40 f9 	ldr	x8, [x0, #16]
100002244: c8 03 00 b4 	cbz	x8, 0x1000022bc <__ZN4core3ptr146drop_in_place$LT$alloc..vec..Vec$LT$addr2line..ResUnit$LT$gimli..read..endian_slice..EndianSlice$LT$gimli..endianity..LittleEndian$GT$$GT$$GT$$GT$17hfed3f6bcdc14ba43E+0x98>
100002248: 15 00 80 d2 	mov	x21, #0
10000224c: 09 46 80 52 	mov	w9, #560
100002250: 16 7d 09 9b 	mul	x22, x8, x9
100002254: 04 00 00 14 	b	0x100002264 <__ZN4core3ptr146drop_in_place$LT$alloc..vec..Vec$LT$addr2line..ResUnit$LT$gimli..read..endian_slice..EndianSlice$LT$gimli..endianity..LittleEndian$GT$$GT$$GT$$GT$17hfed3f6bcdc14ba43E+0x40>
100002258: b5 c2 08 91 	add	x21, x21, #560
10000225c: df 02 15 eb 	cmp	x22, x21
100002260: c0 02 00 54 	b.eq	0x1000022b8 <__ZN4core3ptr146drop_in_place$LT$alloc..vec..Vec$LT$addr2line..ResUnit$LT$gimli..read..endian_slice..EndianSlice$LT$gimli..endianity..LittleEndian$GT$$GT$$GT$$GT$17hfed3f6bcdc14ba43E+0x94>
100002264: 97 02 15 8b 	add	x23, x20, x21
100002268: e0 22 00 91 	add	x0, x23, #8
10000226c: 84 ff ff 97 	bl	0x10000207c <__ZN4core3ptr137drop_in_place$LT$gimli..read..dwarf..Unit$LT$gimli..read..endian_slice..EndianSlice$LT$gimli..endianity..LittleEndian$GT$$C$usize$GT$$GT$17h4cfc9c99548a2942E>
100002270: e8 ee 40 f9 	ldr	x8, [x23, #472]
100002274: 1f 09 00 f1 	cmp	x8, #2
100002278: c1 00 00 54 	b.ne	0x100002290 <__ZN4core3ptr146drop_in_place$LT$alloc..vec..Vec$LT$addr2line..ResUnit$LT$gimli..read..endian_slice..EndianSlice$LT$gimli..endianity..LittleEndian$GT$$GT$$GT$$GT$17hfed3f6bcdc14ba43E+0x6c>
10000227c: 88 02 15 8b 	add	x8, x20, x21
100002280: 09 01 41 f9 	ldr	x9, [x8, #512]
100002284: 3f 09 00 f1 	cmp	x9, #2
100002288: 80 fe ff 54 	b.eq	0x100002258 <__ZN4core3ptr146drop_in_place$LT$alloc..vec..Vec$LT$addr2line..ResUnit$LT$gimli..read..endian_slice..EndianSlice$LT$gimli..endianity..LittleEndian$GT$$GT$$GT$$GT$17hfed3f6bcdc14ba43E+0x34>
10000228c: 08 00 00 14 	b	0x1000022ac <__ZN4core3ptr146drop_in_place$LT$alloc..vec..Vec$LT$addr2line..ResUnit$LT$gimli..read..endian_slice..EndianSlice$LT$gimli..endianity..LittleEndian$GT$$GT$$GT$$GT$17hfed3f6bcdc14ba43E+0x88>
100002290: 88 02 15 8b 	add	x8, x20, x21
100002294: 00 61 07 91 	add	x0, x8, #472
100002298: 04 04 00 94 	bl	0x1000032a8 <__ZN4core3ptr86drop_in_place$LT$core..result..Result$LT$addr2line..Lines$C$gimli..read..Error$GT$$GT$17h1e061d1d150553acE>
10000229c: 88 02 15 8b 	add	x8, x20, x21
1000022a0: 09 01 41 f9 	ldr	x9, [x8, #512]
1000022a4: 3f 09 00 f1 	cmp	x9, #2
1000022a8: 80 fd ff 54 	b.eq	0x100002258 <__ZN4core3ptr146drop_in_place$LT$alloc..vec..Vec$LT$addr2line..ResUnit$LT$gimli..read..endian_slice..EndianSlice$LT$gimli..endianity..LittleEndian$GT$$GT$$GT$$GT$17hfed3f6bcdc14ba43E+0x34>
1000022ac: 00 01 08 91 	add	x0, x8, #512
1000022b0: c7 00 00 94 	bl	0x1000025cc <__ZN4core3ptr184drop_in_place$LT$core..result..Result$LT$addr2line..function..Functions$LT$gimli..read..endian_slice..EndianSlice$LT$gimli..endianity..LittleEndian$GT$$GT$$C$gimli..read..Error$GT$$GT$17h3711493257847561E>
1000022b4: e9 ff ff 17 	b	0x100002258 <__ZN4core3ptr146drop_in_place$LT$alloc..vec..Vec$LT$addr2line..ResUnit$LT$gimli..read..endian_slice..EndianSlice$LT$gimli..endianity..LittleEndian$GT$$GT$$GT$$GT$17hfed3f6bcdc14ba43E+0x34>
1000022b8: 74 02 40 f9 	ldr	x20, [x19]
1000022bc: 68 06 40 f9 	ldr	x8, [x19, #8]
1000022c0: 1f 01 00 f1 	cmp	x8, #0
1000022c4: 09 46 80 52 	mov	w9, #560
1000022c8: 01 7d 09 9b 	mul	x1, x8, x9
1000022cc: 24 18 40 fa 	ccmp	x1, #0, #4, ne
1000022d0: c1 00 00 54 	b.ne	0x1000022e8 <__ZN4core3ptr146drop_in_place$LT$alloc..vec..Vec$LT$addr2line..ResUnit$LT$gimli..read..endian_slice..EndianSlice$LT$gimli..endianity..LittleEndian$GT$$GT$$GT$$GT$17hfed3f6bcdc14ba43E+0xc4>
1000022d4: fd 7b 43 a9 	ldp	x29, x30, [sp, #48]
1000022d8: f4 4f 42 a9 	ldp	x20, x19, [sp, #32]
1000022dc: f6 57 41 a9 	ldp	x22, x21, [sp, #16]
1000022e0: f8 5f c4 a8 	ldp	x24, x23, [sp], #64
1000022e4: c0 03 5f d6 	ret
1000022e8: e0 03 14 aa 	mov	x0, x20
1000022ec: 02 01 80 52 	mov	w2, #8
1000022f0: fd 7b 43 a9 	ldp	x29, x30, [sp, #48]
1000022f4: f4 4f 42 a9 	ldp	x20, x19, [sp, #32]
1000022f8: f6 57 41 a9 	ldp	x22, x21, [sp, #16]
1000022fc: f8 5f c4 a8 	ldp	x24, x23, [sp], #64
100002300: 6f fc ff 17 	b	0x1000014bc <___rust_dealloc>
100002304: f4 03 00 aa 	mov	x20, x0
100002308: e0 62 07 91 	add	x0, x23, #472
10000230c: f4 fe ff 97 	bl	0x100001edc <__ZN4core3ptr119drop_in_place$LT$addr2line..lazy..LazyCell$LT$core..result..Result$LT$addr2line..Lines$C$gimli..read..Error$GT$$GT$$GT$17h39695325084f2516E>
100002310: e0 02 08 91 	add	x0, x23, #512
100002314: e4 00 00 94 	bl	0x1000026a4 <__ZN4core3ptr217drop_in_place$LT$addr2line..lazy..LazyCell$LT$core..result..Result$LT$addr2line..function..Functions$LT$gimli..read..endian_slice..EndianSlice$LT$gimli..endianity..LittleEndian$GT$$GT$$C$gimli..read..Error$GT$$GT$$GT$17h971ad4a53da4df02E>
100002318: c8 02 15 cb 	sub	x8, x22, x21
10000231c: 15 c1 08 d1 	sub	x21, x8, #560
100002320: e0 c2 08 91 	add	x0, x23, #560
100002324: d5 00 00 b4 	cbz	x21, 0x10000233c <__ZN4core3ptr146drop_in_place$LT$alloc..vec..Vec$LT$addr2line..ResUnit$LT$gimli..read..endian_slice..EndianSlice$LT$gimli..endianity..LittleEndian$GT$$GT$$GT$$GT$17hfed3f6bcdc14ba43E+0x118>
100002328: 16 c0 08 91 	add	x22, x0, #560
10000232c: b5 c2 08 d1 	sub	x21, x21, #560
100002330: f4 fe ff 97 	bl	0x100001f00 <__ZN4core3ptr123drop_in_place$LT$addr2line..ResUnit$LT$gimli..read..endian_slice..EndianSlice$LT$gimli..endianity..LittleEndian$GT$$GT$$GT$17hde6abebd6e000608E>
100002334: e0 03 16 aa 	mov	x0, x22
100002338: fb ff ff 17 	b	0x100002324 <__ZN4core3ptr146drop_in_place$LT$alloc..vec..Vec$LT$addr2line..ResUnit$LT$gimli..read..endian_slice..EndianSlice$LT$gimli..endianity..LittleEndian$GT$$GT$$GT$$GT$17hfed3f6bcdc14ba43E+0x100>
10000233c: 60 06 40 a9 	ldp	x0, x1, [x19]
100002340: 0a 00 00 94 	bl	0x100002368 <__ZN4core3ptr153drop_in_place$LT$alloc..raw_vec..RawVec$LT$addr2line..ResUnit$LT$gimli..read..endian_slice..EndianSlice$LT$gimli..endianity..LittleEndian$GT$$GT$$GT$$GT$17h6ba4758cecaf35b1E>
100002344: e0 03 14 aa 	mov	x0, x20
100002348: b6 bc 00 94 	bl	0x100031620 <_writev+0x100031620>
10000234c: 41 bc 00 94 	bl	0x100031450 <__ZN4core9panicking15panic_no_unwind17ha22e330d9595cb93E>

0000000100002350 <__ZN4core3ptr151drop_in_place$LT$alloc..raw_vec..RawVec$LT$core..option..Option$LT$core..option..Option$LT$std..backtrace_rs..symbolize..gimli..Mapping$GT$$GT$$GT$$GT$17h6b4b77f4632ef36cE>:
100002350: a1 00 00 b4 	cbz	x1, 0x100002364 <__ZN4core3ptr151drop_in_place$LT$alloc..raw_vec..RawVec$LT$core..option..Option$LT$core..option..Option$LT$std..backtrace_rs..symbolize..gimli..Mapping$GT$$GT$$GT$$GT$17h6b4b77f4632ef36cE+0x14>
100002354: 21 dc 78 d3 	lsl	x1, x1, #8
100002358: 61 00 00 b4 	cbz	x1, 0x100002364 <__ZN4core3ptr151drop_in_place$LT$alloc..raw_vec..RawVec$LT$core..option..Option$LT$core..option..Option$LT$std..backtrace_rs..symbolize..gimli..Mapping$GT$$GT$$GT$$GT$17h6b4b77f4632ef36cE+0x14>
10000235c: 02 01 80 52 	mov	w2, #8
100002360: 57 fc ff 17 	b	0x1000014bc <___rust_dealloc>
100002364: c0 03 5f d6 	ret

0000000100002368 <__ZN4core3ptr153drop_in_place$LT$alloc..raw_vec..RawVec$LT$addr2line..ResUnit$LT$gimli..read..endian_slice..EndianSlice$LT$gimli..endianity..LittleEndian$GT$$GT$$GT$$GT$17h6ba4758cecaf35b1E>:
100002368: c1 00 00 b4 	cbz	x1, 0x100002380 <__ZN4core3ptr153drop_in_place$LT$alloc..raw_vec..RawVec$LT$addr2line..ResUnit$LT$gimli..read..endian_slice..EndianSlice$LT$gimli..endianity..LittleEndian$GT$$GT$$GT$$GT$17h6ba4758cecaf35b1E+0x18>
10000236c: 08 46 80 52 	mov	w8, #560
100002370: 21 7c 08 9b 	mul	x1, x1, x8
100002374: 61 00 00 b4 	cbz	x1, 0x100002380 <__ZN4core3ptr153drop_in_place$LT$alloc..raw_vec..RawVec$LT$addr2line..ResUnit$LT$gimli..read..endian_slice..EndianSlice$LT$gimli..endianity..LittleEndian$GT$$GT$$GT$$GT$17h6ba4758cecaf35b1E+0x18>
100002378: 02 01 80 52 	mov	w2, #8
10000237c: 50 fc ff 17 	b	0x1000014bc <___rust_dealloc>
100002380: c0 03 5f d6 	ret

0000000100002384 <__ZN4core3ptr153drop_in_place$LT$gimli..read..line..IncompleteLineProgram$LT$gimli..read..endian_slice..EndianSlice$LT$gimli..endianity..LittleEndian$GT$$C$usize$GT$$GT$17h40b081ba830dba9dE>:
100002384: f4 4f be a9 	stp	x20, x19, [sp, #-32]!
100002388: fd 7b 01 a9 	stp	x29, x30, [sp, #16]
10000238c: fd 43 00 91 	add	x29, sp, #16
100002390: f3 03 00 aa 	mov	x19, x0
100002394: 08 18 40 f9 	ldr	x8, [x0, #48]
100002398: 1f 01 00 f1 	cmp	x8, #0
10000239c: 01 f5 7e d3 	lsl	x1, x8, #2
1000023a0: 24 18 40 fa 	ccmp	x1, #0, #4, ne
1000023a4: 41 01 00 54 	b.ne	0x1000023cc <__ZN4core3ptr153drop_in_place$LT$gimli..read..line..IncompleteLineProgram$LT$gimli..read..endian_slice..EndianSlice$LT$gimli..endianity..LittleEndian$GT$$C$usize$GT$$GT$17h40b081ba830dba9dE+0x48>
1000023a8: 68 26 40 f9 	ldr	x8, [x19, #72]
1000023ac: 1f 01 00 f1 	cmp	x8, #0
1000023b0: 08 05 08 8b 	add	x8, x8, x8, lsl #1
1000023b4: 01 f1 7d d3 	lsl	x1, x8, #3
1000023b8: 24 18 40 fa 	ccmp	x1, #0, #4, ne
1000023bc: a1 01 00 54 	b.ne	0x1000023f0 <__ZN4core3ptr153drop_in_place$LT$gimli..read..line..IncompleteLineProgram$LT$gimli..read..endian_slice..EndianSlice$LT$gimli..endianity..LittleEndian$GT$$C$usize$GT$$GT$17h40b081ba830dba9dE+0x6c>
1000023c0: 68 32 40 f9 	ldr	x8, [x19, #96]
1000023c4: 08 02 00 b5 	cbnz	x8, 0x100002404 <__ZN4core3ptr153drop_in_place$LT$gimli..read..line..IncompleteLineProgram$LT$gimli..read..endian_slice..EndianSlice$LT$gimli..endianity..LittleEndian$GT$$C$usize$GT$$GT$17h40b081ba830dba9dE+0x80>
1000023c8: 14 00 00 14 	b	0x100002418 <__ZN4core3ptr153drop_in_place$LT$gimli..read..line..IncompleteLineProgram$LT$gimli..read..endian_slice..EndianSlice$LT$gimli..endianity..LittleEndian$GT$$C$usize$GT$$GT$17h40b081ba830dba9dE+0x94>
1000023cc: 60 16 40 f9 	ldr	x0, [x19, #40]
1000023d0: 42 00 80 52 	mov	w2, #2
1000023d4: 3a fc ff 97 	bl	0x1000014bc <___rust_dealloc>
1000023d8: 68 26 40 f9 	ldr	x8, [x19, #72]
1000023dc: 1f 01 00 f1 	cmp	x8, #0
1000023e0: 08 05 08 8b 	add	x8, x8, x8, lsl #1
1000023e4: 01 f1 7d d3 	lsl	x1, x8, #3
1000023e8: 24 18 40 fa 	ccmp	x1, #0, #4, ne
1000023ec: a0 fe ff 54 	b.eq	0x1000023c0 <__ZN4core3ptr153drop_in_place$LT$gimli..read..line..IncompleteLineProgram$LT$gimli..read..endian_slice..EndianSlice$LT$gimli..endianity..LittleEndian$GT$$C$usize$GT$$GT$17h40b081ba830dba9dE+0x3c>
1000023f0: 60 22 40 f9 	ldr	x0, [x19, #64]
1000023f4: 02 01 80 52 	mov	w2, #8
1000023f8: 31 fc ff 97 	bl	0x1000014bc <___rust_dealloc>
1000023fc: 68 32 40 f9 	ldr	x8, [x19, #96]
100002400: c8 00 00 b4 	cbz	x8, 0x100002418 <__ZN4core3ptr153drop_in_place$LT$gimli..read..line..IncompleteLineProgram$LT$gimli..read..endian_slice..EndianSlice$LT$gimli..endianity..LittleEndian$GT$$C$usize$GT$$GT$17h40b081ba830dba9dE+0x94>
100002404: 01 f5 7e d3 	lsl	x1, x8, #2
100002408: 81 00 00 b4 	cbz	x1, 0x100002418 <__ZN4core3ptr153drop_in_place$LT$gimli..read..line..IncompleteLineProgram$LT$gimli..read..endian_slice..EndianSlice$LT$gimli..endianity..LittleEndian$GT$$C$usize$GT$$GT$17h40b081ba830dba9dE+0x94>
10000240c: 60 2e 40 f9 	ldr	x0, [x19, #88]
100002410: 42 00 80 52 	mov	w2, #2
100002414: 2a fc ff 97 	bl	0x1000014bc <___rust_dealloc>
100002418: 68 3e 40 f9 	ldr	x8, [x19, #120]
10000241c: 08 01 00 b4 	cbz	x8, 0x10000243c <__ZN4core3ptr153drop_in_place$LT$gimli..read..line..IncompleteLineProgram$LT$gimli..read..endian_slice..EndianSlice$LT$gimli..endianity..LittleEndian$GT$$C$usize$GT$$GT$17h40b081ba830dba9dE+0xb8>
100002420: 01 e5 7a d3 	lsl	x1, x8, #6
100002424: c1 00 00 b4 	cbz	x1, 0x10000243c <__ZN4core3ptr153drop_in_place$LT$gimli..read..line..IncompleteLineProgram$LT$gimli..read..endian_slice..EndianSlice$LT$gimli..endianity..LittleEndian$GT$$C$usize$GT$$GT$17h40b081ba830dba9dE+0xb8>
100002428: 60 3a 40 f9 	ldr	x0, [x19, #112]
10000242c: 02 01 80 52 	mov	w2, #8
100002430: fd 7b 41 a9 	ldp	x29, x30, [sp, #16]
100002434: f4 4f c2 a8 	ldp	x20, x19, [sp], #32
100002438: 21 fc ff 17 	b	0x1000014bc <___rust_dealloc>
10000243c: fd 7b 41 a9 	ldp	x29, x30, [sp, #16]
100002440: f4 4f c2 a8 	ldp	x20, x19, [sp], #32
100002444: c0 03 5f d6 	ret

0000000100002448 <__ZN4core3ptr154drop_in_place$LT$alloc..sync..Arc$LT$gimli..read..dwarf..Dwarf$LT$gimli..read..endian_slice..EndianSlice$LT$gimli..endianity..LittleEndian$GT$$GT$$GT$$GT$17h97e356c0225c0e05E>:
100002448: 08 00 40 f9 	ldr	x8, [x0]
10000244c: 09 00 80 92 	mov	x9, #-1
100002450: 08 01 69 f8 	<unknown>
100002454: 1f 05 00 f1 	cmp	x8, #1
100002458: 61 00 00 54 	b.ne	0x100002464 <__ZN4core3ptr154drop_in_place$LT$alloc..sync..Arc$LT$gimli..read..dwarf..Dwarf$LT$gimli..read..endian_slice..EndianSlice$LT$gimli..endianity..LittleEndian$GT$$GT$$GT$$GT$17h97e356c0225c0e05E+0x1c>
10000245c: bf 39 03 d5 	dmb	ishld
100002460: 97 0f 00 14 	b	0x1000062bc <__ZN5alloc4sync12Arc$LT$T$GT$9drop_slow17h1c676ae4c9b5fabcE>
100002464: c0 03 5f d6 	ret

0000000100002468 <__ZN4core3ptr159drop_in_place$LT$alloc..sync..ArcInner$LT$gimli..read..dwarf..Dwarf$LT$gimli..read..endian_slice..EndianSlice$LT$gimli..endianity..LittleEndian$GT$$GT$$GT$$GT$17h485d2e8dbf71ac05E>:
100002468: 08 0c 4e f8 	ldr	x8, [x0, #224]!
10000246c: e8 00 00 b4 	cbz	x8, 0x100002488 <__ZN4core3ptr159drop_in_place$LT$alloc..sync..ArcInner$LT$gimli..read..dwarf..Dwarf$LT$gimli..read..endian_slice..EndianSlice$LT$gimli..endianity..LittleEndian$GT$$GT$$GT$$GT$17h485d2e8dbf71ac05E+0x20>
100002470: 09 00 80 92 	mov	x9, #-1
100002474: 08 01 69 f8 	<unknown>
100002478: 1f 05 00 f1 	cmp	x8, #1
10000247c: 61 00 00 54 	b.ne	0x100002488 <__ZN4core3ptr159drop_in_place$LT$alloc..sync..ArcInner$LT$gimli..read..dwarf..Dwarf$LT$gimli..read..endian_slice..EndianSlice$LT$gimli..endianity..LittleEndian$GT$$GT$$GT$$GT$17h485d2e8dbf71ac05E+0x20>
100002480: bf 39 03 d5 	dmb	ishld
100002484: 8e 0f 00 14 	b	0x1000062bc <__ZN5alloc4sync12Arc$LT$T$GT$9drop_slow17h1c676ae4c9b5fabcE>
100002488: c0 03 5f d6 	ret

000000010000248c <__ZN4core3ptr164drop_in_place$LT$alloc..vec..Vec$LT$addr2line..function..InlinedFunction$LT$gimli..read..endian_slice..EndianSlice$LT$gimli..endianity..LittleEndian$GT$$GT$$GT$$GT$17hd7a40ed8efb69870E>:
10000248c: 08 04 40 f9 	ldr	x8, [x0, #8]
100002490: 1f 01 00 f1 	cmp	x8, #0
100002494: 08 09 08 8b 	add	x8, x8, x8, lsl #2
100002498: 01 f1 7d d3 	lsl	x1, x8, #3
10000249c: 24 18 40 fa 	ccmp	x1, #0, #4, ne
1000024a0: 41 00 00 54 	b.ne	0x1000024a8 <__ZN4core3ptr164drop_in_place$LT$alloc..vec..Vec$LT$addr2line..function..InlinedFunction$LT$gimli..read..endian_slice..EndianSlice$LT$gimli..endianity..LittleEndian$GT$$GT$$GT$$GT$17hd7a40ed8efb69870E+0x1c>
1000024a4: c0 03 5f d6 	ret
1000024a8: 00 00 40 f9 	ldr	x0, [x0]
1000024ac: 02 01 80 52 	mov	w2, #8
1000024b0: 03 fc ff 17 	b	0x1000014bc <___rust_dealloc>

00000001000024b4 <__ZN4core3ptr164drop_in_place$LT$alloc..vec..Vec$LT$gimli..read..line..FileEntry$LT$gimli..read..endian_slice..EndianSlice$LT$gimli..endianity..LittleEndian$GT$$C$usize$GT$$GT$$GT$17hb3105ee808b71367E>:
1000024b4: 08 04 40 f9 	ldr	x8, [x0, #8]
1000024b8: 1f 01 00 f1 	cmp	x8, #0
1000024bc: 01 e5 7a d3 	lsl	x1, x8, #6
1000024c0: 24 18 40 fa 	ccmp	x1, #0, #4, ne
1000024c4: 41 00 00 54 	b.ne	0x1000024cc <__ZN4core3ptr164drop_in_place$LT$alloc..vec..Vec$LT$gimli..read..line..FileEntry$LT$gimli..read..endian_slice..EndianSlice$LT$gimli..endianity..LittleEndian$GT$$C$usize$GT$$GT$$GT$17hb3105ee808b71367E+0x18>
1000024c8: c0 03 5f d6 	ret
1000024cc: 00 00 40 f9 	ldr	x0, [x0]
1000024d0: 02 01 80 52 	mov	w2, #8
1000024d4: fa fb ff 17 	b	0x1000014bc <___rust_dealloc>

00000001000024d8 <__ZN4core3ptr168drop_in_place$LT$alloc..vec..Vec$LT$$RF$addr2line..function..InlinedFunction$LT$gimli..read..endian_slice..EndianSlice$LT$gimli..endianity..LittleEndian$GT$$GT$$GT$$GT$17h574b8592c0db586fE>:
1000024d8: 08 04 40 f9 	ldr	x8, [x0, #8]
1000024dc: 1f 01 00 f1 	cmp	x8, #0
1000024e0: 01 f1 7d d3 	lsl	x1, x8, #3
1000024e4: 24 18 40 fa 	ccmp	x1, #0, #4, ne
1000024e8: 41 00 00 54 	b.ne	0x1000024f0 <__ZN4core3ptr168drop_in_place$LT$alloc..vec..Vec$LT$$RF$addr2line..function..InlinedFunction$LT$gimli..read..endian_slice..EndianSlice$LT$gimli..endianity..LittleEndian$GT$$GT$$GT$$GT$17h574b8592c0db586fE+0x18>
1000024ec: c0 03 5f d6 	ret
1000024f0: 00 00 40 f9 	ldr	x0, [x0]
1000024f4: 02 01 80 52 	mov	w2, #8
1000024f8: f1 fb ff 17 	b	0x1000014bc <___rust_dealloc>

00000001000024fc <__ZN4core3ptr169drop_in_place$LT$alloc..vec..Vec$LT$gimli..read..unit..AttributeValue$LT$gimli..read..endian_slice..EndianSlice$LT$gimli..endianity..LittleEndian$GT$$C$usize$GT$$GT$$GT$17hcf0958a82b0bdb8eE>:
1000024fc: 08 04 40 f9 	ldr	x8, [x0, #8]
100002500: 1f 01 00 f1 	cmp	x8, #0
100002504: 08 05 08 8b 	add	x8, x8, x8, lsl #1
100002508: 01 f1 7d d3 	lsl	x1, x8, #3
10000250c: 24 18 40 fa 	ccmp	x1, #0, #4, ne
100002510: 41 00 00 54 	b.ne	0x100002518 <__ZN4core3ptr169drop_in_place$LT$alloc..vec..Vec$LT$gimli..read..unit..AttributeValue$LT$gimli..read..endian_slice..EndianSlice$LT$gimli..endianity..LittleEndian$GT$$C$usize$GT$$GT$$GT$17hcf0958a82b0bdb8eE+0x1c>
100002514: c0 03 5f d6 	ret
100002518: 00 00 40 f9 	ldr	x0, [x0]
10000251c: 02 01 80 52 	mov	w2, #8
100002520: e7 fb ff 17 	b	0x1000014bc <___rust_dealloc>

0000000100002524 <__ZN4core3ptr175drop_in_place$LT$std..sys_common..remutex..ReentrantMutexGuard$LT$core..cell..RefCell$LT$std..io..buffered..linewriter..LineWriter$LT$std..io..stdio..StdoutRaw$GT$$GT$$GT$$GT$17h84a870a519163c62E>:
100002524: 00 00 40 f9 	ldr	x0, [x0]
100002528: 08 70 40 b9 	ldr	w8, [x0, #112]
10000252c: 08 05 00 71 	subs	w8, w8, #1
100002530: 08 70 00 b9 	str	w8, [x0, #112]
100002534: 40 00 00 54 	b.eq	0x10000253c <__ZN4core3ptr175drop_in_place$LT$std..sys_common..remutex..ReentrantMutexGuard$LT$core..cell..RefCell$LT$std..io..buffered..linewriter..LineWriter$LT$std..io..stdio..StdoutRaw$GT$$GT$$GT$$GT$17h84a870a519163c62E+0x18>
100002538: c0 03 5f d6 	ret
10000253c: 1f 20 00 f9 	str	xzr, [x0, #64]
100002540: a7 bc 00 14 	b	0x1000317dc <_writev+0x1000317dc>

0000000100002544 <__ZN4core3ptr176drop_in_place$LT$alloc..boxed..Box$LT$$u5b$addr2line..function..InlinedFunction$LT$gimli..read..endian_slice..EndianSlice$LT$gimli..endianity..LittleEndian$GT$$GT$$u5d$$GT$$GT$17h08ea6384ed09f37aE>:
100002544: 08 04 40 f9 	ldr	x8, [x0, #8]
100002548: c8 00 00 b4 	cbz	x8, 0x100002560 <__ZN4core3ptr176drop_in_place$LT$alloc..boxed..Box$LT$$u5b$addr2line..function..InlinedFunction$LT$gimli..read..endian_slice..EndianSlice$LT$gimli..endianity..LittleEndian$GT$$GT$$u5d$$GT$$GT$17h08ea6384ed09f37aE+0x1c>
10000254c: 00 00 40 f9 	ldr	x0, [x0]
100002550: 08 09 08 8b 	add	x8, x8, x8, lsl #2
100002554: 01 f1 7d d3 	lsl	x1, x8, #3
100002558: 02 01 80 52 	mov	w2, #8
10000255c: d8 fb ff 17 	b	0x1000014bc <___rust_dealloc>
100002560: c0 03 5f d6 	ret

0000000100002564 <__ZN4core3ptr177drop_in_place$LT$core..option..Option$LT$alloc..boxed..Box$LT$addr2line..ResDwarf$LT$gimli..read..endian_slice..EndianSlice$LT$gimli..endianity..LittleEndian$GT$$GT$$GT$$GT$$GT$17h0177d4e7135589a6E>:
100002564: f4 4f be a9 	stp	x20, x19, [sp, #-32]!
100002568: fd 7b 01 a9 	stp	x29, x30, [sp, #16]
10000256c: fd 43 00 91 	add	x29, sp, #16
100002570: f3 03 00 aa 	mov	x19, x0
100002574: 00 00 40 f9 	ldr	x0, [x0]
100002578: 00 01 00 b4 	cbz	x0, 0x100002598 <__ZN4core3ptr177drop_in_place$LT$core..option..Option$LT$alloc..boxed..Box$LT$addr2line..ResDwarf$LT$gimli..read..endian_slice..EndianSlice$LT$gimli..endianity..LittleEndian$GT$$GT$$GT$$GT$$GT$17h0177d4e7135589a6E+0x34>
10000257c: 7d fe ff 97 	bl	0x100001f70 <__ZN4core3ptr124drop_in_place$LT$addr2line..ResDwarf$LT$gimli..read..endian_slice..EndianSlice$LT$gimli..endianity..LittleEndian$GT$$GT$$GT$17h28a08620bd5579caE>
100002580: 60 02 40 f9 	ldr	x0, [x19]
100002584: 01 08 80 52 	mov	w1, #64
100002588: 02 01 80 52 	mov	w2, #8
10000258c: fd 7b 41 a9 	ldp	x29, x30, [sp, #16]
100002590: f4 4f c2 a8 	ldp	x20, x19, [sp], #32
100002594: ca fb ff 17 	b	0x1000014bc <___rust_dealloc>
100002598: fd 7b 41 a9 	ldp	x29, x30, [sp, #16]
10000259c: f4 4f c2 a8 	ldp	x20, x19, [sp], #32
1000025a0: c0 03 5f d6 	ret
1000025a4: f4 03 00 aa 	mov	x20, x0
1000025a8: 60 02 40 f9 	ldr	x0, [x19]
1000025ac: e0 0f 00 94 	bl	0x10000652c <__ZN5alloc5alloc8box_free17h2df778ef127c4147E>
1000025b0: e0 03 14 aa 	mov	x0, x20
1000025b4: 1b bc 00 94 	bl	0x100031620 <_writev+0x100031620>

00000001000025b8 <__ZN4core3ptr181drop_in_place$LT$core..option..Option$LT$gimli..read..line..IncompleteLineProgram$LT$gimli..read..endian_slice..EndianSlice$LT$gimli..endianity..LittleEndian$GT$$C$usize$GT$$GT$$GT$17h30d58767c0dc6d9fE>:
1000025b8: 08 54 40 f9 	ldr	x8, [x0, #168]
1000025bc: 1f bd 00 f1 	cmp	x8, #47
1000025c0: 41 00 00 54 	b.ne	0x1000025c8 <__ZN4core3ptr181drop_in_place$LT$core..option..Option$LT$gimli..read..line..IncompleteLineProgram$LT$gimli..read..endian_slice..EndianSlice$LT$gimli..endianity..LittleEndian$GT$$C$usize$GT$$GT$$GT$17h30d58767c0dc6d9fE+0x10>
1000025c4: c0 03 5f d6 	ret
1000025c8: 6f ff ff 17 	b	0x100002384 <__ZN4core3ptr153drop_in_place$LT$gimli..read..line..IncompleteLineProgram$LT$gimli..read..endian_slice..EndianSlice$LT$gimli..endianity..LittleEndian$GT$$C$usize$GT$$GT$17h40b081ba830dba9dE>

00000001000025cc <__ZN4core3ptr184drop_in_place$LT$core..result..Result$LT$addr2line..function..Functions$LT$gimli..read..endian_slice..EndianSlice$LT$gimli..endianity..LittleEndian$GT$$GT$$C$gimli..read..Error$GT$$GT$17h3711493257847561E>:
1000025cc: f6 57 bd a9 	stp	x22, x21, [sp, #-48]!
1000025d0: f4 4f 01 a9 	stp	x20, x19, [sp, #16]
1000025d4: fd 7b 02 a9 	stp	x29, x30, [sp, #32]
1000025d8: fd 83 00 91 	add	x29, sp, #32
1000025dc: 08 00 40 f9 	ldr	x8, [x0]
1000025e0: a8 00 00 b4 	cbz	x8, 0x1000025f4 <__ZN4core3ptr184drop_in_place$LT$core..result..Result$LT$addr2line..function..Functions$LT$gimli..read..endian_slice..EndianSlice$LT$gimli..endianity..LittleEndian$GT$$GT$$C$gimli..read..Error$GT$$GT$17h3711493257847561E+0x28>
1000025e4: fd 7b 42 a9 	ldp	x29, x30, [sp, #32]
1000025e8: f4 4f 41 a9 	ldp	x20, x19, [sp, #16]
1000025ec: f6 57 c3 a8 	ldp	x22, x21, [sp], #48
1000025f0: c0 03 5f d6 	ret
1000025f4: f3 03 00 aa 	mov	x19, x0
1000025f8: 08 08 40 f9 	ldr	x8, [x0, #16]
1000025fc: 08 04 00 b4 	cbz	x8, 0x10000267c <__ZN4core3ptr184drop_in_place$LT$core..result..Result$LT$addr2line..function..Functions$LT$gimli..read..endian_slice..EndianSlice$LT$gimli..endianity..LittleEndian$GT$$GT$$C$gimli..read..Error$GT$$GT$17h3711493257847561E+0xb0>
100002600: 69 06 40 f9 	ldr	x9, [x19, #8]
100002604: 34 01 01 91 	add	x20, x9, #64
100002608: 08 0d 08 8b 	add	x8, x8, x8, lsl #3
10000260c: 15 f1 7d d3 	lsl	x21, x8, #3
100002610: 04 00 00 14 	b	0x100002620 <__ZN4core3ptr184drop_in_place$LT$core..result..Result$LT$addr2line..function..Functions$LT$gimli..read..endian_slice..EndianSlice$LT$gimli..endianity..LittleEndian$GT$$GT$$C$gimli..read..Error$GT$$GT$17h3711493257847561E+0x54>
100002614: 94 22 01 91 	add	x20, x20, #72
100002618: b5 22 01 f1 	subs	x21, x21, #72
10000261c: 20 02 00 54 	b.eq	0x100002660 <__ZN4core3ptr184drop_in_place$LT$core..result..Result$LT$addr2line..function..Functions$LT$gimli..read..endian_slice..EndianSlice$LT$gimli..endianity..LittleEndian$GT$$GT$$C$gimli..read..Error$GT$$GT$17h3711493257847561E+0x94>
100002620: 88 82 5c f8 	ldur	x8, [x20, #-56]
100002624: 88 ff ff b5 	cbnz	x8, 0x100002614 <__ZN4core3ptr184drop_in_place$LT$core..result..Result$LT$addr2line..function..Functions$LT$gimli..read..endian_slice..EndianSlice$LT$gimli..endianity..LittleEndian$GT$$GT$$C$gimli..read..Error$GT$$GT$17h3711493257847561E+0x48>
100002628: 88 02 5f f8 	ldur	x8, [x20, #-16]
10000262c: c8 00 00 b4 	cbz	x8, 0x100002644 <__ZN4core3ptr184drop_in_place$LT$core..result..Result$LT$addr2line..function..Functions$LT$gimli..read..endian_slice..EndianSlice$LT$gimli..endianity..LittleEndian$GT$$GT$$C$gimli..read..Error$GT$$GT$17h3711493257847561E+0x78>
100002630: 80 82 5e f8 	ldur	x0, [x20, #-24]
100002634: 08 09 08 8b 	add	x8, x8, x8, lsl #2
100002638: 01 f1 7d d3 	lsl	x1, x8, #3
10000263c: 02 01 80 52 	mov	w2, #8
100002640: 9f fb ff 97 	bl	0x1000014bc <___rust_dealloc>
100002644: 88 02 40 f9 	ldr	x8, [x20]
100002648: 68 fe ff b4 	cbz	x8, 0x100002614 <__ZN4core3ptr184drop_in_place$LT$core..result..Result$LT$addr2line..function..Functions$LT$gimli..read..endian_slice..EndianSlice$LT$gimli..endianity..LittleEndian$GT$$GT$$C$gimli..read..Error$GT$$GT$17h3711493257847561E+0x48>
10000264c: 80 82 5f f8 	ldur	x0, [x20, #-8]
100002650: 01 e9 7b d3 	lsl	x1, x8, #5
100002654: 02 01 80 52 	mov	w2, #8
100002658: 99 fb ff 97 	bl	0x1000014bc <___rust_dealloc>
10000265c: ee ff ff 17 	b	0x100002614 <__ZN4core3ptr184drop_in_place$LT$core..result..Result$LT$addr2line..function..Functions$LT$gimli..read..endian_slice..EndianSlice$LT$gimli..endianity..LittleEndian$GT$$GT$$C$gimli..read..Error$GT$$GT$17h3711493257847561E+0x48>
100002660: 68 0a 40 f9 	ldr	x8, [x19, #16]
100002664: c8 00 00 b4 	cbz	x8, 0x10000267c <__ZN4core3ptr184drop_in_place$LT$core..result..Result$LT$addr2line..function..Functions$LT$gimli..read..endian_slice..EndianSlice$LT$gimli..endianity..LittleEndian$GT$$GT$$C$gimli..read..Error$GT$$GT$17h3711493257847561E+0xb0>
100002668: 60 06 40 f9 	ldr	x0, [x19, #8]
10000266c: 08 0d 08 8b 	add	x8, x8, x8, lsl #3
100002670: 01 f1 7d d3 	lsl	x1, x8, #3
100002674: 02 01 80 52 	mov	w2, #8
100002678: 91 fb ff 97 	bl	0x1000014bc <___rust_dealloc>
10000267c: 68 12 40 f9 	ldr	x8, [x19, #32]
100002680: 28 fb ff b4 	cbz	x8, 0x1000025e4 <__ZN4core3ptr184drop_in_place$LT$core..result..Result$LT$addr2line..function..Functions$LT$gimli..read..endian_slice..EndianSlice$LT$gimli..endianity..LittleEndian$GT$$GT$$C$gimli..read..Error$GT$$GT$17h3711493257847561E+0x18>
100002684: 60 0e 40 f9 	ldr	x0, [x19, #24]
100002688: 08 05 08 8b 	add	x8, x8, x8, lsl #1
10000268c: 01 f1 7d d3 	lsl	x1, x8, #3
100002690: 02 01 80 52 	mov	w2, #8
100002694: fd 7b 42 a9 	ldp	x29, x30, [sp, #32]
100002698: f4 4f 41 a9 	ldp	x20, x19, [sp, #16]
10000269c: f6 57 c3 a8 	ldp	x22, x21, [sp], #48
1000026a0: 87 fb ff 17 	b	0x1000014bc <___rust_dealloc>

00000001000026a4 <__ZN4core3ptr217drop_in_place$LT$addr2line..lazy..LazyCell$LT$core..result..Result$LT$addr2line..function..Functions$LT$gimli..read..endian_slice..EndianSlice$LT$gimli..endianity..LittleEndian$GT$$GT$$C$gimli..read..Error$GT$$GT$$GT$17h971ad4a53da4df02E>:
1000026a4: 08 00 40 f9 	ldr	x8, [x0]
1000026a8: 1f 09 00 f1 	cmp	x8, #2
1000026ac: 41 00 00 54 	b.ne	0x1000026b4 <__ZN4core3ptr217drop_in_place$LT$addr2line..lazy..LazyCell$LT$core..result..Result$LT$addr2line..function..Functions$LT$gimli..read..endian_slice..EndianSlice$LT$gimli..endianity..LittleEndian$GT$$GT$$C$gimli..read..Error$GT$$GT$$GT$17h971ad4a53da4df02E+0x10>
1000026b0: c0 03 5f d6 	ret
1000026b4: c6 ff ff 17 	b	0x1000025cc <__ZN4core3ptr184drop_in_place$LT$core..result..Result$LT$addr2line..function..Functions$LT$gimli..read..endian_slice..EndianSlice$LT$gimli..endianity..LittleEndian$GT$$GT$$C$gimli..read..Error$GT$$GT$17h3711493257847561E>

00000001000026b8 <__ZN4core3ptr226drop_in_place$LT$std..error..$LT$impl$u20$core..convert..From$LT$alloc..string..String$GT$$u20$for$u20$alloc..boxed..Box$LT$dyn$u20$std..error..Error$u2b$core..marker..Sync$u2b$core..marker..Send$GT$$GT$..from..StringError$GT$17h233496414d4f75fdE>:
1000026b8: 01 04 40 f9 	ldr	x1, [x0, #8]
1000026bc: 81 00 00 b4 	cbz	x1, 0x1000026cc <__ZN4core3ptr226drop_in_place$LT$std..error..$LT$impl$u20$core..convert..From$LT$alloc..string..String$GT$$u20$for$u20$alloc..boxed..Box$LT$dyn$u20$std..error..Error$u2b$core..marker..Sync$u2b$core..marker..Send$GT$$GT$..from..StringError$GT$17h233496414d4f75fdE+0x14>
1000026c0: 00 00 40 f9 	ldr	x0, [x0]
1000026c4: 22 00 80 52 	mov	w2, #1
1000026c8: 7d fb ff 17 	b	0x1000014bc <___rust_dealloc>
1000026cc: c0 03 5f d6 	ret

00000001000026d0 <__ZN4core3ptr256drop_in_place$LT$$LP$gimli..read..unit..UnitOffset$C$addr2line..lazy..LazyCell$LT$core..result..Result$LT$addr2line..function..Function$LT$gimli..read..endian_slice..EndianSlice$LT$gimli..endianity..LittleEndian$GT$$GT$$C$gimli..read..Error$GT$$GT$$RP$$GT$17hdee6ecdb71bf54dfE>:
1000026d0: f4 4f be a9 	stp	x20, x19, [sp, #-32]!
1000026d4: fd 7b 01 a9 	stp	x29, x30, [sp, #16]
1000026d8: fd 43 00 91 	add	x29, sp, #16
1000026dc: 08 04 40 f9 	ldr	x8, [x0, #8]
1000026e0: 88 00 00 b4 	cbz	x8, 0x1000026f0 <__ZN4core3ptr256drop_in_place$LT$$LP$gimli..read..unit..UnitOffset$C$addr2line..lazy..LazyCell$LT$core..result..Result$LT$addr2line..function..Function$LT$gimli..read..endian_slice..EndianSlice$LT$gimli..endianity..LittleEndian$GT$$GT$$C$gimli..read..Error$GT$$GT$$RP$$GT$17hdee6ecdb71bf54dfE+0x20>
1000026e4: fd 7b 41 a9 	ldp	x29, x30, [sp, #16]
1000026e8: f4 4f c2 a8 	ldp	x20, x19, [sp], #32
1000026ec: c0 03 5f d6 	ret
1000026f0: f3 03 00 aa 	mov	x19, x0
1000026f4: 08 18 40 f9 	ldr	x8, [x0, #48]
1000026f8: c8 00 00 b4 	cbz	x8, 0x100002710 <__ZN4core3ptr256drop_in_place$LT$$LP$gimli..read..unit..UnitOffset$C$addr2line..lazy..LazyCell$LT$core..result..Result$LT$addr2line..function..Function$LT$gimli..read..endian_slice..EndianSlice$LT$gimli..endianity..LittleEndian$GT$$GT$$C$gimli..read..Error$GT$$GT$$RP$$GT$17hdee6ecdb71bf54dfE+0x40>
1000026fc: 60 16 40 f9 	ldr	x0, [x19, #40]
100002700: 08 09 08 8b 	add	x8, x8, x8, lsl #2
100002704: 01 f1 7d d3 	lsl	x1, x8, #3
100002708: 02 01 80 52 	mov	w2, #8
10000270c: 6c fb ff 97 	bl	0x1000014bc <___rust_dealloc>
100002710: 68 22 40 f9 	ldr	x8, [x19, #64]
100002714: 88 fe ff b4 	cbz	x8, 0x1000026e4 <__ZN4core3ptr256drop_in_place$LT$$LP$gimli..read..unit..UnitOffset$C$addr2line..lazy..LazyCell$LT$core..result..Result$LT$addr2line..function..Function$LT$gimli..read..endian_slice..EndianSlice$LT$gimli..endianity..LittleEndian$GT$$GT$$C$gimli..read..Error$GT$$GT$$RP$$GT$17hdee6ecdb71bf54dfE+0x14>
100002718: 60 1e 40 f9 	ldr	x0, [x19, #56]
10000271c: 01 e9 7b d3 	lsl	x1, x8, #5
100002720: 02 01 80 52 	mov	w2, #8
100002724: fd 7b 41 a9 	ldp	x29, x30, [sp, #16]
100002728: f4 4f c2 a8 	ldp	x20, x19, [sp], #32
10000272c: 64 fb ff 17 	b	0x1000014bc <___rust_dealloc>

0000000100002730 <__ZN4core3ptr275drop_in_place$LT$gimli..read..line..LineRows$LT$gimli..read..endian_slice..EndianSlice$LT$gimli..endianity..LittleEndian$GT$$C$gimli..read..line..IncompleteLineProgram$LT$gimli..read..endian_slice..EndianSlice$LT$gimli..endianity..LittleEndian$GT$$C$usize$GT$$C$usize$GT$$GT$17ha0816163542b0653E>:
100002730: 15 ff ff 17 	b	0x100002384 <__ZN4core3ptr153drop_in_place$LT$gimli..read..line..IncompleteLineProgram$LT$gimli..read..endian_slice..EndianSlice$LT$gimli..endianity..LittleEndian$GT$$C$usize$GT$$GT$17h40b081ba830dba9dE>

0000000100002734 <__ZN4core3ptr279drop_in_place$LT$alloc..vec..Vec$LT$$LP$gimli..read..unit..UnitOffset$C$addr2line..lazy..LazyCell$LT$core..result..Result$LT$addr2line..function..Function$LT$gimli..read..endian_slice..EndianSlice$LT$gimli..endianity..LittleEndian$GT$$GT$$C$gimli..read..Error$GT$$GT$$RP$$GT$$GT$17h94f13006beeb3b8bE>:
100002734: f6 57 bd a9 	stp	x22, x21, [sp, #-48]!
100002738: f4 4f 01 a9 	stp	x20, x19, [sp, #16]
10000273c: fd 7b 02 a9 	stp	x29, x30, [sp, #32]
100002740: fd 83 00 91 	add	x29, sp, #32
100002744: f3 03 00 aa 	mov	x19, x0
100002748: 00 00 40 f9 	ldr	x0, [x0]
10000274c: 68 0a 40 f9 	ldr	x8, [x19, #16]
100002750: 28 03 00 b4 	cbz	x8, 0x1000027b4 <__ZN4core3ptr279drop_in_place$LT$alloc..vec..Vec$LT$$LP$gimli..read..unit..UnitOffset$C$addr2line..lazy..LazyCell$LT$core..result..Result$LT$addr2line..function..Function$LT$gimli..read..endian_slice..EndianSlice$LT$gimli..endianity..LittleEndian$GT$$GT$$C$gimli..read..Error$GT$$GT$$RP$$GT$$GT$17h94f13006beeb3b8bE+0x80>
100002754: 14 00 01 91 	add	x20, x0, #64
100002758: 08 0d 08 8b 	add	x8, x8, x8, lsl #3
10000275c: 15 f1 7d d3 	lsl	x21, x8, #3
100002760: 04 00 00 14 	b	0x100002770 <__ZN4core3ptr279drop_in_place$LT$alloc..vec..Vec$LT$$LP$gimli..read..unit..UnitOffset$C$addr2line..lazy..LazyCell$LT$core..result..Result$LT$addr2line..function..Function$LT$gimli..read..endian_slice..EndianSlice$LT$gimli..endianity..LittleEndian$GT$$GT$$C$gimli..read..Error$GT$$GT$$RP$$GT$$GT$17h94f13006beeb3b8bE+0x3c>
100002764: 94 22 01 91 	add	x20, x20, #72
100002768: b5 22 01 f1 	subs	x21, x21, #72
10000276c: 20 02 00 54 	b.eq	0x1000027b0 <__ZN4core3ptr279drop_in_place$LT$alloc..vec..Vec$LT$$LP$gimli..read..unit..UnitOffset$C$addr2line..lazy..LazyCell$LT$core..result..Result$LT$addr2line..function..Function$LT$gimli..read..endian_slice..EndianSlice$LT$gimli..endianity..LittleEndian$GT$$GT$$C$gimli..read..Error$GT$$GT$$RP$$GT$$GT$17h94f13006beeb3b8bE+0x7c>
100002770: 88 82 5c f8 	ldur	x8, [x20, #-56]
100002774: 88 ff ff b5 	cbnz	x8, 0x100002764 <__ZN4core3ptr279drop_in_place$LT$alloc..vec..Vec$LT$$LP$gimli..read..unit..UnitOffset$C$addr2line..lazy..LazyCell$LT$core..result..Result$LT$addr2line..function..Function$LT$gimli..read..endian_slice..EndianSlice$LT$gimli..endianity..LittleEndian$GT$$GT$$C$gimli..read..Error$GT$$GT$$RP$$GT$$GT$17h94f13006beeb3b8bE+0x30>
100002778: 88 02 5f f8 	ldur	x8, [x20, #-16]
10000277c: c8 00 00 b4 	cbz	x8, 0x100002794 <__ZN4core3ptr279drop_in_place$LT$alloc..vec..Vec$LT$$LP$gimli..read..unit..UnitOffset$C$addr2line..lazy..LazyCell$LT$core..result..Result$LT$addr2line..function..Function$LT$gimli..read..endian_slice..EndianSlice$LT$gimli..endianity..LittleEndian$GT$$GT$$C$gimli..read..Error$GT$$GT$$RP$$GT$$GT$17h94f13006beeb3b8bE+0x60>
100002780: 80 82 5e f8 	ldur	x0, [x20, #-24]
100002784: 08 09 08 8b 	add	x8, x8, x8, lsl #2
100002788: 01 f1 7d d3 	lsl	x1, x8, #3
10000278c: 02 01 80 52 	mov	w2, #8
100002790: 4b fb ff 97 	bl	0x1000014bc <___rust_dealloc>
100002794: 88 02 40 f9 	ldr	x8, [x20]
100002798: 68 fe ff b4 	cbz	x8, 0x100002764 <__ZN4core3ptr279drop_in_place$LT$alloc..vec..Vec$LT$$LP$gimli..read..unit..UnitOffset$C$addr2line..lazy..LazyCell$LT$core..result..Result$LT$addr2line..function..Function$LT$gimli..read..endian_slice..EndianSlice$LT$gimli..endianity..LittleEndian$GT$$GT$$C$gimli..read..Error$GT$$GT$$RP$$GT$$GT$17h94f13006beeb3b8bE+0x30>
10000279c: 80 82 5f f8 	ldur	x0, [x20, #-8]
1000027a0: 01 e9 7b d3 	lsl	x1, x8, #5
1000027a4: 02 01 80 52 	mov	w2, #8
1000027a8: 45 fb ff 97 	bl	0x1000014bc <___rust_dealloc>
1000027ac: ee ff ff 17 	b	0x100002764 <__ZN4core3ptr279drop_in_place$LT$alloc..vec..Vec$LT$$LP$gimli..read..unit..UnitOffset$C$addr2line..lazy..LazyCell$LT$core..result..Result$LT$addr2line..function..Function$LT$gimli..read..endian_slice..EndianSlice$LT$gimli..endianity..LittleEndian$GT$$GT$$C$gimli..read..Error$GT$$GT$$RP$$GT$$GT$17h94f13006beeb3b8bE+0x30>
1000027b0: 60 02 40 f9 	ldr	x0, [x19]
1000027b4: 68 06 40 f9 	ldr	x8, [x19, #8]
1000027b8: 1f 01 00 f1 	cmp	x8, #0
1000027bc: 08 0d 08 8b 	add	x8, x8, x8, lsl #3
1000027c0: 01 f1 7d d3 	lsl	x1, x8, #3
1000027c4: 24 18 40 fa 	ccmp	x1, #0, #4, ne
1000027c8: a1 00 00 54 	b.ne	0x1000027dc <__ZN4core3ptr279drop_in_place$LT$alloc..vec..Vec$LT$$LP$gimli..read..unit..UnitOffset$C$addr2line..lazy..LazyCell$LT$core..result..Result$LT$addr2line..function..Function$LT$gimli..read..endian_slice..EndianSlice$LT$gimli..endianity..LittleEndian$GT$$GT$$C$gimli..read..Error$GT$$GT$$RP$$GT$$GT$17h94f13006beeb3b8bE+0xa8>
1000027cc: fd 7b 42 a9 	ldp	x29, x30, [sp, #32]
1000027d0: f4 4f 41 a9 	ldp	x20, x19, [sp, #16]
1000027d4: f6 57 c3 a8 	ldp	x22, x21, [sp], #48
1000027d8: c0 03 5f d6 	ret
1000027dc: 02 01 80 52 	mov	w2, #8
1000027e0: fd 7b 42 a9 	ldp	x29, x30, [sp, #32]
1000027e4: f4 4f 41 a9 	ldp	x20, x19, [sp, #16]
1000027e8: f6 57 c3 a8 	ldp	x22, x21, [sp], #48
1000027ec: 34 fb ff 17 	b	0x1000014bc <___rust_dealloc>

00000001000027f0 <__ZN4core3ptr291drop_in_place$LT$alloc..boxed..Box$LT$$u5b$$LP$gimli..read..unit..UnitOffset$C$addr2line..lazy..LazyCell$LT$core..result..Result$LT$addr2line..function..Function$LT$gimli..read..endian_slice..EndianSlice$LT$gimli..endianity..LittleEndian$GT$$GT$$C$gimli..read..Error$GT$$GT$$RP$$u5d$$GT$$GT$17he70608546d1cb8a5E>:
1000027f0: f6 57 bd a9 	stp	x22, x21, [sp, #-48]!
1000027f4: f4 4f 01 a9 	stp	x20, x19, [sp, #16]
1000027f8: fd 7b 02 a9 	stp	x29, x30, [sp, #32]
1000027fc: fd 83 00 91 	add	x29, sp, #32
100002800: 08 04 40 f9 	ldr	x8, [x0, #8]
100002804: 88 04 00 b4 	cbz	x8, 0x100002894 <__ZN4core3ptr291drop_in_place$LT$alloc..boxed..Box$LT$$u5b$$LP$gimli..read..unit..UnitOffset$C$addr2line..lazy..LazyCell$LT$core..result..Result$LT$addr2line..function..Function$LT$gimli..read..endian_slice..EndianSlice$LT$gimli..endianity..LittleEndian$GT$$GT$$C$gimli..read..Error$GT$$GT$$RP$$u5d$$GT$$GT$17he70608546d1cb8a5E+0xa4>
100002808: f3 03 00 aa 	mov	x19, x0
10000280c: 09 00 40 f9 	ldr	x9, [x0]
100002810: 34 01 01 91 	add	x20, x9, #64
100002814: 08 0d 08 8b 	add	x8, x8, x8, lsl #3
100002818: 15 f1 7d d3 	lsl	x21, x8, #3
10000281c: 04 00 00 14 	b	0x10000282c <__ZN4core3ptr291drop_in_place$LT$alloc..boxed..Box$LT$$u5b$$LP$gimli..read..unit..UnitOffset$C$addr2line..lazy..LazyCell$LT$core..result..Result$LT$addr2line..function..Function$LT$gimli..read..endian_slice..EndianSlice$LT$gimli..endianity..LittleEndian$GT$$GT$$C$gimli..read..Error$GT$$GT$$RP$$u5d$$GT$$GT$17he70608546d1cb8a5E+0x3c>
100002820: 94 22 01 91 	add	x20, x20, #72
100002824: b5 22 01 f1 	subs	x21, x21, #72
100002828: 20 02 00 54 	b.eq	0x10000286c <__ZN4core3ptr291drop_in_place$LT$alloc..boxed..Box$LT$$u5b$$LP$gimli..read..unit..UnitOffset$C$addr2line..lazy..LazyCell$LT$core..result..Result$LT$addr2line..function..Function$LT$gimli..read..endian_slice..EndianSlice$LT$gimli..endianity..LittleEndian$GT$$GT$$C$gimli..read..Error$GT$$GT$$RP$$u5d$$GT$$GT$17he70608546d1cb8a5E+0x7c>
10000282c: 88 82 5c f8 	ldur	x8, [x20, #-56]
100002830: 88 ff ff b5 	cbnz	x8, 0x100002820 <__ZN4core3ptr291drop_in_place$LT$alloc..boxed..Box$LT$$u5b$$LP$gimli..read..unit..UnitOffset$C$addr2line..lazy..LazyCell$LT$core..result..Result$LT$addr2line..function..Function$LT$gimli..read..endian_slice..EndianSlice$LT$gimli..endianity..LittleEndian$GT$$GT$$C$gimli..read..Error$GT$$GT$$RP$$u5d$$GT$$GT$17he70608546d1cb8a5E+0x30>
100002834: 88 02 5f f8 	ldur	x8, [x20, #-16]
100002838: c8 00 00 b4 	cbz	x8, 0x100002850 <__ZN4core3ptr291drop_in_place$LT$alloc..boxed..Box$LT$$u5b$$LP$gimli..read..unit..UnitOffset$C$addr2line..lazy..LazyCell$LT$core..result..Result$LT$addr2line..function..Function$LT$gimli..read..endian_slice..EndianSlice$LT$gimli..endianity..LittleEndian$GT$$GT$$C$gimli..read..Error$GT$$GT$$RP$$u5d$$GT$$GT$17he70608546d1cb8a5E+0x60>
10000283c: 80 82 5e f8 	ldur	x0, [x20, #-24]
100002840: 08 09 08 8b 	add	x8, x8, x8, lsl #2
100002844: 01 f1 7d d3 	lsl	x1, x8, #3
100002848: 02 01 80 52 	mov	w2, #8
10000284c: 1c fb ff 97 	bl	0x1000014bc <___rust_dealloc>
100002850: 88 02 40 f9 	ldr	x8, [x20]
100002854: 68 fe ff b4 	cbz	x8, 0x100002820 <__ZN4core3ptr291drop_in_place$LT$alloc..boxed..Box$LT$$u5b$$LP$gimli..read..unit..UnitOffset$C$addr2line..lazy..LazyCell$LT$core..result..Result$LT$addr2line..function..Function$LT$gimli..read..endian_slice..EndianSlice$LT$gimli..endianity..LittleEndian$GT$$GT$$C$gimli..read..Error$GT$$GT$$RP$$u5d$$GT$$GT$17he70608546d1cb8a5E+0x30>
100002858: 80 82 5f f8 	ldur	x0, [x20, #-8]
10000285c: 01 e9 7b d3 	lsl	x1, x8, #5
100002860: 02 01 80 52 	mov	w2, #8
100002864: 16 fb ff 97 	bl	0x1000014bc <___rust_dealloc>
100002868: ee ff ff 17 	b	0x100002820 <__ZN4core3ptr291drop_in_place$LT$alloc..boxed..Box$LT$$u5b$$LP$gimli..read..unit..UnitOffset$C$addr2line..lazy..LazyCell$LT$core..result..Result$LT$addr2line..function..Function$LT$gimli..read..endian_slice..EndianSlice$LT$gimli..endianity..LittleEndian$GT$$GT$$C$gimli..read..Error$GT$$GT$$RP$$u5d$$GT$$GT$17he70608546d1cb8a5E+0x30>
10000286c: 68 06 40 f9 	ldr	x8, [x19, #8]
100002870: 28 01 00 b4 	cbz	x8, 0x100002894 <__ZN4core3ptr291drop_in_place$LT$alloc..boxed..Box$LT$$u5b$$LP$gimli..read..unit..UnitOffset$C$addr2line..lazy..LazyCell$LT$core..result..Result$LT$addr2line..function..Function$LT$gimli..read..endian_slice..EndianSlice$LT$gimli..endianity..LittleEndian$GT$$GT$$C$gimli..read..Error$GT$$GT$$RP$$u5d$$GT$$GT$17he70608546d1cb8a5E+0xa4>
100002874: 60 02 40 f9 	ldr	x0, [x19]
100002878: 08 0d 08 8b 	add	x8, x8, x8, lsl #3
10000287c: 01 f1 7d d3 	lsl	x1, x8, #3
100002880: 02 01 80 52 	mov	w2, #8
100002884: fd 7b 42 a9 	ldp	x29, x30, [sp, #32]
100002888: f4 4f 41 a9 	ldp	x20, x19, [sp, #16]
10000288c: f6 57 c3 a8 	ldp	x22, x21, [sp], #48
100002890: 0b fb ff 17 	b	0x1000014bc <___rust_dealloc>
100002894: fd 7b 42 a9 	ldp	x29, x30, [sp, #32]
100002898: f4 4f 41 a9 	ldp	x20, x19, [sp, #16]
10000289c: f6 57 c3 a8 	ldp	x22, x21, [sp], #48
1000028a0: c0 03 5f d6 	ret

00000001000028a4 <__ZN4core3ptr34drop_in_place$LT$std..fs..File$GT$17h3d6fe37ac74e1ba2E>:
1000028a4: 80 bb 00 14 	b	0x1000316a4 <_writev+0x1000316a4>

00000001000028a8 <__ZN4core3ptr37drop_in_place$LT$std..fs..ReadDir$GT$17h389b7913d81e6ec1E>:
1000028a8: 08 00 40 f9 	ldr	x8, [x0]
1000028ac: 09 00 80 92 	mov	x9, #-1
1000028b0: 08 01 69 f8 	<unknown>
1000028b4: 1f 05 00 f1 	cmp	x8, #1
1000028b8: 81 00 00 54 	b.ne	0x1000028c8 <__ZN4core3ptr37drop_in_place$LT$std..fs..ReadDir$GT$17h389b7913d81e6ec1E+0x20>
1000028bc: bf 39 03 d5 	dmb	ishld
1000028c0: 00 00 40 f9 	ldr	x0, [x0]
1000028c4: 9c 0e 00 14 	b	0x100006334 <__ZN5alloc4sync12Arc$LT$T$GT$9drop_slow17h3ece6a815e9c1d38E>
1000028c8: c0 03 5f d6 	ret

00000001000028cc <__ZN4core3ptr40drop_in_place$LT$std..thread..Thread$GT$17hdf5728e7e80c504eE>:
1000028cc: 08 00 40 f9 	ldr	x8, [x0]
1000028d0: 09 00 80 92 	mov	x9, #-1
1000028d4: 08 01 69 f8 	<unknown>
1000028d8: 1f 05 00 f1 	cmp	x8, #1
1000028dc: 81 00 00 54 	b.ne	0x1000028ec <__ZN4core3ptr40drop_in_place$LT$std..thread..Thread$GT$17hdf5728e7e80c504eE+0x20>
1000028e0: bf 39 03 d5 	dmb	ishld
1000028e4: 00 00 40 f9 	ldr	x0, [x0]
1000028e8: af 0e 00 14 	b	0x1000063a4 <__ZN5alloc4sync12Arc$LT$T$GT$9drop_slow17h4a77a6fe5f318196E>
1000028ec: c0 03 5f d6 	ret

00000001000028f0 <__ZN4core3ptr42drop_in_place$LT$std..io..error..Error$GT$17h779b7ab2fb8f1a5eE>:
1000028f0: f4 4f be a9 	stp	x20, x19, [sp, #-32]!
1000028f4: fd 7b 01 a9 	stp	x29, x30, [sp, #16]
1000028f8: fd 43 00 91 	add	x29, sp, #16
1000028fc: 14 00 40 f9 	ldr	x20, [x0]
100002900: 88 06 40 92 	and	x8, x20, #0x3
100002904: 09 09 00 d1 	sub	x9, x8, #2
100002908: 3f 09 00 f1 	cmp	x9, #2
10000290c: 04 29 40 fa 	ccmp	x8, #0, #4, hs
100002910: 81 00 00 54 	b.ne	0x100002920 <__ZN4core3ptr42drop_in_place$LT$std..io..error..Error$GT$17h779b7ab2fb8f1a5eE+0x30>
100002914: fd 7b 41 a9 	ldp	x29, x30, [sp, #16]
100002918: f4 4f c2 a8 	ldp	x20, x19, [sp], #32
10000291c: c0 03 5f d6 	ret
100002920: f3 03 14 aa 	mov	x19, x20
100002924: 60 fe 5f f8 	ldr	x0, [x19, #-1]!
100002928: 68 06 40 f9 	ldr	x8, [x19, #8]
10000292c: 08 01 40 f9 	ldr	x8, [x8]
100002930: 00 01 3f d6 	blr	x8
100002934: 88 72 40 f8 	ldur	x8, [x20, #7]
100002938: 01 05 40 f9 	ldr	x1, [x8, #8]
10000293c: 81 00 00 b4 	cbz	x1, 0x10000294c <__ZN4core3ptr42drop_in_place$LT$std..io..error..Error$GT$17h779b7ab2fb8f1a5eE+0x5c>
100002940: 80 f2 5f f8 	ldur	x0, [x20, #-1]
100002944: 02 09 40 f9 	ldr	x2, [x8, #16]
100002948: dd fa ff 97 	bl	0x1000014bc <___rust_dealloc>
10000294c: e0 03 13 aa 	mov	x0, x19
100002950: 01 03 80 52 	mov	w1, #24
100002954: 02 01 80 52 	mov	w2, #8
100002958: fd 7b 41 a9 	ldp	x29, x30, [sp, #16]
10000295c: f4 4f c2 a8 	ldp	x20, x19, [sp], #32
100002960: d7 fa ff 17 	b	0x1000014bc <___rust_dealloc>
100002964: e8 03 14 aa 	mov	x8, x20
100002968: f4 03 00 aa 	mov	x20, x0
10000296c: 00 f1 5f f8 	ldur	x0, [x8, #-1]
100002970: 01 71 40 f8 	ldur	x1, [x8, #7]
100002974: e8 0e 00 94 	bl	0x100006514 <__ZN5alloc5alloc8box_free17h16a1d4e9777890a4E>
100002978: e0 03 13 aa 	mov	x0, x19
10000297c: ef 0e 00 94 	bl	0x100006538 <__ZN5alloc5alloc8box_free17ha605f80891c6c3a7E>
100002980: e0 03 14 aa 	mov	x0, x20
100002984: 27 bb 00 94 	bl	0x100031620 <_writev+0x100031620>

0000000100002988 <__ZN4core3ptr44drop_in_place$LT$addr2line..LineSequence$GT$17h5614d3cc92b2d32aE>:
100002988: 08 0c 40 f9 	ldr	x8, [x0, #24]
10000298c: c8 00 00 b4 	cbz	x8, 0x1000029a4 <__ZN4core3ptr44drop_in_place$LT$addr2line..LineSequence$GT$17h5614d3cc92b2d32aE+0x1c>
100002990: 00 08 40 f9 	ldr	x0, [x0, #16]
100002994: 08 05 08 8b 	add	x8, x8, x8, lsl #1
100002998: 01 f1 7d d3 	lsl	x1, x8, #3
10000299c: 02 01 80 52 	mov	w2, #8
1000029a0: c7 fa ff 17 	b	0x1000014bc <___rust_dealloc>
1000029a4: c0 03 5f d6 	ret

00000001000029a8 <__ZN4core3ptr44drop_in_place$LT$object..read..ObjectMap$GT$17h5fabd956635f9d46E>:
1000029a8: f4 4f be a9 	stp	x20, x19, [sp, #-32]!
1000029ac: fd 7b 01 a9 	stp	x29, x30, [sp, #16]
1000029b0: fd 43 00 91 	add	x29, sp, #16
1000029b4: f3 03 00 aa 	mov	x19, x0
1000029b8: 08 04 40 f9 	ldr	x8, [x0, #8]
1000029bc: 1f 01 00 f1 	cmp	x8, #0
1000029c0: 08 09 08 8b 	add	x8, x8, x8, lsl #2
1000029c4: 01 f1 7d d3 	lsl	x1, x8, #3
1000029c8: 24 18 40 fa 	ccmp	x1, #0, #4, ne
1000029cc: 21 01 00 54 	b.ne	0x1000029f0 <__ZN4core3ptr44drop_in_place$LT$object..read..ObjectMap$GT$17h5fabd956635f9d46E+0x48>
1000029d0: 68 12 40 f9 	ldr	x8, [x19, #32]
1000029d4: 1f 01 00 f1 	cmp	x8, #0
1000029d8: 01 ed 7c d3 	lsl	x1, x8, #4
1000029dc: 24 18 40 fa 	ccmp	x1, #0, #4, ne
1000029e0: 81 01 00 54 	b.ne	0x100002a10 <__ZN4core3ptr44drop_in_place$LT$object..read..ObjectMap$GT$17h5fabd956635f9d46E+0x68>
1000029e4: fd 7b 41 a9 	ldp	x29, x30, [sp, #16]
1000029e8: f4 4f c2 a8 	ldp	x20, x19, [sp], #32
1000029ec: c0 03 5f d6 	ret
1000029f0: 60 02 40 f9 	ldr	x0, [x19]
1000029f4: 02 01 80 52 	mov	w2, #8
1000029f8: b1 fa ff 97 	bl	0x1000014bc <___rust_dealloc>
1000029fc: 68 12 40 f9 	ldr	x8, [x19, #32]
100002a00: 1f 01 00 f1 	cmp	x8, #0
100002a04: 01 ed 7c d3 	lsl	x1, x8, #4
100002a08: 24 18 40 fa 	ccmp	x1, #0, #4, ne
100002a0c: c0 fe ff 54 	b.eq	0x1000029e4 <__ZN4core3ptr44drop_in_place$LT$object..read..ObjectMap$GT$17h5fabd956635f9d46E+0x3c>
100002a10: 60 0e 40 f9 	ldr	x0, [x19, #24]
100002a14: 02 01 80 52 	mov	w2, #8
100002a18: fd 7b 41 a9 	ldp	x29, x30, [sp, #16]
100002a1c: f4 4f c2 a8 	ldp	x20, x19, [sp], #32
100002a20: a7 fa ff 17 	b	0x1000014bc <___rust_dealloc>

0000000100002a24 <__ZN4core3ptr44drop_in_place$LT$std..sync..once..Waiter$GT$17he384b8567580fb1bE>:
100002a24: 08 00 40 f9 	ldr	x8, [x0]
100002a28: 08 01 00 b4 	cbz	x8, 0x100002a48 <__ZN4core3ptr44drop_in_place$LT$std..sync..once..Waiter$GT$17he384b8567580fb1bE+0x24>
100002a2c: 09 00 80 92 	mov	x9, #-1
100002a30: 08 01 69 f8 	<unknown>
100002a34: 1f 05 00 f1 	cmp	x8, #1
100002a38: 81 00 00 54 	b.ne	0x100002a48 <__ZN4core3ptr44drop_in_place$LT$std..sync..once..Waiter$GT$17he384b8567580fb1bE+0x24>
100002a3c: bf 39 03 d5 	dmb	ishld
100002a40: 00 00 40 f9 	ldr	x0, [x0]
100002a44: 58 0e 00 14 	b	0x1000063a4 <__ZN5alloc4sync12Arc$LT$T$GT$9drop_slow17h4a77a6fe5f318196E>
100002a48: c0 03 5f d6 	ret

0000000100002a4c <__ZN4core3ptr46drop_in_place$LT$alloc..vec..Vec$LT$u8$GT$$GT$17hc60f7b41ca52d791E>:
100002a4c: 01 04 40 f9 	ldr	x1, [x0, #8]
100002a50: 81 00 00 b4 	cbz	x1, 0x100002a60 <__ZN4core3ptr46drop_in_place$LT$alloc..vec..Vec$LT$u8$GT$$GT$17hc60f7b41ca52d791E+0x14>
100002a54: 00 00 40 f9 	ldr	x0, [x0]
100002a58: 22 00 80 52 	mov	w2, #1
100002a5c: 98 fa ff 17 	b	0x1000014bc <___rust_dealloc>
100002a60: c0 03 5f d6 	ret

0000000100002a64 <__ZN4core3ptr46drop_in_place$LT$std..io..stdio..StdinLock$GT$17hdabe02bfaa90389dE>:
100002a64: f4 4f be a9 	stp	x20, x19, [sp, #-32]!
100002a68: fd 7b 01 a9 	stp	x29, x30, [sp, #16]
100002a6c: fd 43 00 91 	add	x29, sp, #16
100002a70: 13 00 40 f9 	ldr	x19, [x0]
100002a74: 08 20 40 39 	ldrb	w8, [x0, #8]
100002a78: a8 00 00 35 	cbnz	w8, 0x100002a8c <__ZN4core3ptr46drop_in_place$LT$std..io..stdio..StdinLock$GT$17hdabe02bfaa90389dE+0x28>
100002a7c: 1f 20 03 d5 	nop
100002a80: 48 c7 1c 58 	ldr	x8, 0x10003c368 <__ZN3std9panicking11panic_count18GLOBAL_PANIC_COUNT17hdbe8ce2b500ce031E>
100002a84: 1f f9 40 f2 	tst	x8, #0x7fffffffffffffff
100002a88: 61 01 00 54 	b.ne	0x100002ab4 <__ZN4core3ptr46drop_in_place$LT$std..io..stdio..StdinLock$GT$17hdabe02bfaa90389dE+0x50>
100002a8c: 60 fe df c8 	ldar	x0, [x19]
100002a90: 80 00 00 b4 	cbz	x0, 0x100002aa0 <__ZN4core3ptr46drop_in_place$LT$std..io..stdio..StdinLock$GT$17hdabe02bfaa90389dE+0x3c>
100002a94: fd 7b 41 a9 	ldp	x29, x30, [sp, #16]
100002a98: f4 4f c2 a8 	ldp	x20, x19, [sp], #32
100002a9c: 50 bb 00 14 	b	0x1000317dc <_writev+0x1000317dc>
100002aa0: e0 03 13 aa 	mov	x0, x19
100002aa4: 9e b9 00 94 	bl	0x10003111c <__ZN3std10sys_common8lazy_box16LazyBox$LT$T$GT$10initialize17hea8886c120e223d4E>
100002aa8: fd 7b 41 a9 	ldp	x29, x30, [sp, #16]
100002aac: f4 4f c2 a8 	ldp	x20, x19, [sp], #32
100002ab0: 4b bb 00 14 	b	0x1000317dc <_writev+0x1000317dc>
100002ab4: d2 b9 00 94 	bl	0x1000311fc <__ZN3std9panicking11panic_count17is_zero_slow_path17h0405e580525c7be7E>
100002ab8: a0 fe 07 37 	tbnz	w0, #0, 0x100002a8c <__ZN4core3ptr46drop_in_place$LT$std..io..stdio..StdinLock$GT$17hdabe02bfaa90389dE+0x28>
100002abc: 28 00 80 52 	mov	w8, #1
100002ac0: 68 22 00 39 	strb	w8, [x19, #8]
100002ac4: f2 ff ff 17 	b	0x100002a8c <__ZN4core3ptr46drop_in_place$LT$std..io..stdio..StdinLock$GT$17hdabe02bfaa90389dE+0x28>

0000000100002ac8 <__ZN4core3ptr47drop_in_place$LT$alloc..ffi..c_str..CString$GT$17h5aa2e9292ae26f43E>:
100002ac8: 08 00 40 f9 	ldr	x8, [x0]
100002acc: 1f 01 00 39 	strb	wzr, [x8]
100002ad0: 01 04 40 f9 	ldr	x1, [x0, #8]
100002ad4: 81 00 00 b4 	cbz	x1, 0x100002ae4 <__ZN4core3ptr47drop_in_place$LT$alloc..ffi..c_str..CString$GT$17h5aa2e9292ae26f43E+0x1c>
100002ad8: 00 00 40 f9 	ldr	x0, [x0]
100002adc: 22 00 80 52 	mov	w2, #1
100002ae0: 77 fa ff 17 	b	0x1000014bc <___rust_dealloc>
100002ae4: c0 03 5f d6 	ret

0000000100002ae8 <__ZN4core3ptr47drop_in_place$LT$std..io..stdio..StdoutLock$GT$17hbb9fa0a2b97b7f47E>:
100002ae8: 00 00 40 f9 	ldr	x0, [x0]
100002aec: 08 70 40 b9 	ldr	w8, [x0, #112]
100002af0: 08 05 00 71 	subs	w8, w8, #1
100002af4: 08 70 00 b9 	str	w8, [x0, #112]
100002af8: 40 00 00 54 	b.eq	0x100002b00 <__ZN4core3ptr47drop_in_place$LT$std..io..stdio..StdoutLock$GT$17hbb9fa0a2b97b7f47E+0x18>
100002afc: c0 03 5f d6 	ret
100002b00: 1f 20 00 f9 	str	xzr, [x0, #64]
100002b04: 36 bb 00 14 	b	0x1000317dc <_writev+0x1000317dc>

0000000100002b08 <__ZN4core3ptr49drop_in_place$LT$std..sync..once..WaiterQueue$GT$17h7341c32c3c1e7025E>:
100002b08: f5 56 00 14 	b	0x1000186dc <__ZN70_$LT$std..sync..once..WaiterQueue$u20$as$u20$core..ops..drop..Drop$GT$4drop17hb9b7aeb991875ce3E>

0000000100002b0c <__ZN4core3ptr50drop_in_place$LT$alloc..borrow..Cow$LT$str$GT$$GT$17h9ca34890e9b201baE>:
100002b0c: 08 00 40 f9 	ldr	x8, [x0]
100002b10: c8 00 00 b4 	cbz	x8, 0x100002b28 <__ZN4core3ptr50drop_in_place$LT$alloc..borrow..Cow$LT$str$GT$$GT$17h9ca34890e9b201baE+0x1c>
100002b14: 01 08 40 f9 	ldr	x1, [x0, #16]
100002b18: 81 00 00 b4 	cbz	x1, 0x100002b28 <__ZN4core3ptr50drop_in_place$LT$alloc..borrow..Cow$LT$str$GT$$GT$17h9ca34890e9b201baE+0x1c>
100002b1c: 00 04 40 f9 	ldr	x0, [x0, #8]
100002b20: 22 00 80 52 	mov	w2, #1
100002b24: 66 fa ff 17 	b	0x1000014bc <___rust_dealloc>
100002b28: c0 03 5f d6 	ret

0000000100002b2c <__ZN4core3ptr52drop_in_place$LT$gimli..read..abbrev..Attributes$GT$17h136d2e2c0cddd82aE>:
100002b2c: 08 00 40 f9 	ldr	x8, [x0]
100002b30: c8 00 00 b4 	cbz	x8, 0x100002b48 <__ZN4core3ptr52drop_in_place$LT$gimli..read..abbrev..Attributes$GT$17h136d2e2c0cddd82aE+0x1c>
100002b34: 08 08 40 f9 	ldr	x8, [x0, #16]
100002b38: 1f 01 00 f1 	cmp	x8, #0
100002b3c: 01 ed 7c d3 	lsl	x1, x8, #4
100002b40: 24 18 40 fa 	ccmp	x1, #0, #4, ne
100002b44: 41 00 00 54 	b.ne	0x100002b4c <__ZN4core3ptr52drop_in_place$LT$gimli..read..abbrev..Attributes$GT$17h136d2e2c0cddd82aE+0x20>
100002b48: c0 03 5f d6 	ret
100002b4c: 00 04 40 f9 	ldr	x0, [x0, #8]
100002b50: 02 01 80 52 	mov	w2, #8
100002b54: 5a fa ff 17 	b	0x1000014bc <___rust_dealloc>

0000000100002b58 <__ZN4core3ptr55drop_in_place$LT$gimli..read..abbrev..Abbreviations$GT$17h2de5298903dad068E>:
100002b58: f6 57 bd a9 	stp	x22, x21, [sp, #-48]!
100002b5c: f4 4f 01 a9 	stp	x20, x19, [sp, #16]
100002b60: fd 7b 02 a9 	stp	x29, x30, [sp, #32]
100002b64: fd 83 00 91 	add	x29, sp, #32
100002b68: f3 03 00 aa 	mov	x19, x0
100002b6c: 00 00 40 f9 	ldr	x0, [x0]
100002b70: 68 0a 40 f9 	ldr	x8, [x19, #16]
100002b74: 88 02 00 b4 	cbz	x8, 0x100002bc4 <__ZN4core3ptr55drop_in_place$LT$gimli..read..abbrev..Abbreviations$GT$17h2de5298903dad068E+0x6c>
100002b78: 14 60 00 91 	add	x20, x0, #24
100002b7c: 09 0e 80 52 	mov	w9, #112
100002b80: 15 7d 09 9b 	mul	x21, x8, x9
100002b84: 04 00 00 14 	b	0x100002b94 <__ZN4core3ptr55drop_in_place$LT$gimli..read..abbrev..Abbreviations$GT$17h2de5298903dad068E+0x3c>
100002b88: 94 c2 01 91 	add	x20, x20, #112
100002b8c: b5 c2 01 f1 	subs	x21, x21, #112
100002b90: 80 01 00 54 	b.eq	0x100002bc0 <__ZN4core3ptr55drop_in_place$LT$gimli..read..abbrev..Abbreviations$GT$17h2de5298903dad068E+0x68>
100002b94: 88 02 5f f8 	ldur	x8, [x20, #-16]
100002b98: 88 ff ff b4 	cbz	x8, 0x100002b88 <__ZN4core3ptr55drop_in_place$LT$gimli..read..abbrev..Abbreviations$GT$17h2de5298903dad068E+0x30>
100002b9c: 88 02 40 f9 	ldr	x8, [x20]
100002ba0: 1f 01 00 f1 	cmp	x8, #0
100002ba4: 01 ed 7c d3 	lsl	x1, x8, #4
100002ba8: 24 18 40 fa 	ccmp	x1, #0, #4, ne
100002bac: e0 fe ff 54 	b.eq	0x100002b88 <__ZN4core3ptr55drop_in_place$LT$gimli..read..abbrev..Abbreviations$GT$17h2de5298903dad068E+0x30>
100002bb0: 80 82 5f f8 	ldur	x0, [x20, #-8]
100002bb4: 02 01 80 52 	mov	w2, #8
100002bb8: 41 fa ff 97 	bl	0x1000014bc <___rust_dealloc>
100002bbc: f3 ff ff 17 	b	0x100002b88 <__ZN4core3ptr55drop_in_place$LT$gimli..read..abbrev..Abbreviations$GT$17h2de5298903dad068E+0x30>
100002bc0: 60 02 40 f9 	ldr	x0, [x19]
100002bc4: 68 06 40 f9 	ldr	x8, [x19, #8]
100002bc8: 1f 01 00 f1 	cmp	x8, #0
100002bcc: 09 0e 80 52 	mov	w9, #112
100002bd0: 01 7d 09 9b 	mul	x1, x8, x9
100002bd4: 24 18 40 fa 	ccmp	x1, #0, #4, ne
100002bd8: c1 00 00 54 	b.ne	0x100002bf0 <__ZN4core3ptr55drop_in_place$LT$gimli..read..abbrev..Abbreviations$GT$17h2de5298903dad068E+0x98>
100002bdc: 60 62 00 91 	add	x0, x19, #24
100002be0: fd 7b 42 a9 	ldp	x29, x30, [sp, #32]
100002be4: f4 4f 41 a9 	ldp	x20, x19, [sp, #16]
100002be8: f6 57 c3 a8 	ldp	x22, x21, [sp], #48
100002bec: 75 fc ff 17 	b	0x100001dc0 <__ZN4core3ptr108drop_in_place$LT$alloc..collections..btree..map..BTreeMap$LT$u64$C$gimli..read..abbrev..Abbreviation$GT$$GT$17h48dacb99ef8973c0E>
100002bf0: 02 01 80 52 	mov	w2, #8
100002bf4: 32 fa ff 97 	bl	0x1000014bc <___rust_dealloc>
100002bf8: 60 62 00 91 	add	x0, x19, #24
100002bfc: fd 7b 42 a9 	ldp	x29, x30, [sp, #32]
100002c00: f4 4f 41 a9 	ldp	x20, x19, [sp, #16]
100002c04: f6 57 c3 a8 	ldp	x22, x21, [sp], #48
100002c08: 6e fc ff 17 	b	0x100001dc0 <__ZN4core3ptr108drop_in_place$LT$alloc..collections..btree..map..BTreeMap$LT$u64$C$gimli..read..abbrev..Abbreviation$GT$$GT$17h48dacb99ef8973c0E>

0000000100002c0c <__ZN4core3ptr61drop_in_place$LT$std..sys_common..mutex..StaticMutexGuard$GT$17h4924c22029e85adbE>:
100002c0c: 00 00 40 f9 	ldr	x0, [x0]
100002c10: f3 ba 00 14 	b	0x1000317dc <_writev+0x1000317dc>

0000000100002c14 <__ZN4core3ptr64drop_in_place$LT$alloc..vec..Vec$LT$addr2line..UnitRange$GT$$GT$17h49f96ee785d5641aE>:
100002c14: 08 04 40 f9 	ldr	x8, [x0, #8]
100002c18: 1f 01 00 f1 	cmp	x8, #0
100002c1c: 01 e9 7b d3 	lsl	x1, x8, #5
100002c20: 24 18 40 fa 	ccmp	x1, #0, #4, ne
100002c24: 41 00 00 54 	b.ne	0x100002c2c <__ZN4core3ptr64drop_in_place$LT$alloc..vec..Vec$LT$addr2line..UnitRange$GT$$GT$17h49f96ee785d5641aE+0x18>
100002c28: c0 03 5f d6 	ret
100002c2c: 00 00 40 f9 	ldr	x0, [x0]
100002c30: 02 01 80 52 	mov	w2, #8
100002c34: 22 fa ff 17 	b	0x1000014bc <___rust_dealloc>

0000000100002c38 <__ZN4core3ptr64drop_in_place$LT$std..backtrace_rs..print..BacktraceFrameFmt$GT$17h4aa423b4cc69a8b0E>:
100002c38: 08 00 40 f9 	ldr	x8, [x0]
100002c3c: 09 05 40 f9 	ldr	x9, [x8, #8]
100002c40: 29 05 00 91 	add	x9, x9, #1
100002c44: 09 05 00 f9 	str	x9, [x8, #8]
100002c48: c0 03 5f d6 	ret

0000000100002c4c <__ZN4core3ptr64drop_in_place$LT$std..sys..unix..locks..pthread_mutex..Mutex$GT$17hf000dd57e37eb318E>:
100002c4c: d8 ba 00 14 	b	0x1000317ac <_writev+0x1000317ac>

0000000100002c50 <__ZN4core3ptr65drop_in_place$LT$alloc..vec..Vec$LT$alloc..string..String$GT$$GT$17h74579a8fec0f4b7fE>:
100002c50: f6 57 bd a9 	stp	x22, x21, [sp, #-48]!
100002c54: f4 4f 01 a9 	stp	x20, x19, [sp, #16]
100002c58: fd 7b 02 a9 	stp	x29, x30, [sp, #32]
100002c5c: fd 83 00 91 	add	x29, sp, #32
100002c60: f4 03 00 aa 	mov	x20, x0
100002c64: 13 00 40 f9 	ldr	x19, [x0]
100002c68: 08 08 40 f9 	ldr	x8, [x0, #16]
100002c6c: c8 01 00 b4 	cbz	x8, 0x100002ca4 <__ZN4core3ptr65drop_in_place$LT$alloc..vec..Vec$LT$alloc..string..String$GT$$GT$17h74579a8fec0f4b7fE+0x54>
100002c70: 09 03 80 52 	mov	w9, #24
100002c74: 15 4d 09 9b 	madd	x21, x8, x9, x19
100002c78: 04 00 00 14 	b	0x100002c88 <__ZN4core3ptr65drop_in_place$LT$alloc..vec..Vec$LT$alloc..string..String$GT$$GT$17h74579a8fec0f4b7fE+0x38>
100002c7c: 73 62 00 91 	add	x19, x19, #24
100002c80: 7f 02 15 eb 	cmp	x19, x21
100002c84: e0 00 00 54 	b.eq	0x100002ca0 <__ZN4core3ptr65drop_in_place$LT$alloc..vec..Vec$LT$alloc..string..String$GT$$GT$17h74579a8fec0f4b7fE+0x50>
100002c88: 61 06 40 f9 	ldr	x1, [x19, #8]
100002c8c: 81 ff ff b4 	cbz	x1, 0x100002c7c <__ZN4core3ptr65drop_in_place$LT$alloc..vec..Vec$LT$alloc..string..String$GT$$GT$17h74579a8fec0f4b7fE+0x2c>
100002c90: 60 02 40 f9 	ldr	x0, [x19]
100002c94: 22 00 80 52 	mov	w2, #1
100002c98: 09 fa ff 97 	bl	0x1000014bc <___rust_dealloc>
100002c9c: f8 ff ff 17 	b	0x100002c7c <__ZN4core3ptr65drop_in_place$LT$alloc..vec..Vec$LT$alloc..string..String$GT$$GT$17h74579a8fec0f4b7fE+0x2c>
100002ca0: 93 02 40 f9 	ldr	x19, [x20]
100002ca4: 88 06 40 f9 	ldr	x8, [x20, #8]
100002ca8: 1f 01 00 f1 	cmp	x8, #0
100002cac: 08 05 08 8b 	add	x8, x8, x8, lsl #1
100002cb0: 01 f1 7d d3 	lsl	x1, x8, #3
100002cb4: 24 18 40 fa 	ccmp	x1, #0, #4, ne
100002cb8: a1 00 00 54 	b.ne	0x100002ccc <__ZN4core3ptr65drop_in_place$LT$alloc..vec..Vec$LT$alloc..string..String$GT$$GT$17h74579a8fec0f4b7fE+0x7c>
100002cbc: fd 7b 42 a9 	ldp	x29, x30, [sp, #32]
100002cc0: f4 4f 41 a9 	ldp	x20, x19, [sp, #16]
100002cc4: f6 57 c3 a8 	ldp	x22, x21, [sp], #48
100002cc8: c0 03 5f d6 	ret
100002ccc: e0 03 13 aa 	mov	x0, x19
100002cd0: 02 01 80 52 	mov	w2, #8
100002cd4: fd 7b 42 a9 	ldp	x29, x30, [sp, #32]
100002cd8: f4 4f 41 a9 	ldp	x20, x19, [sp, #16]
100002cdc: f6 57 c3 a8 	ldp	x22, x21, [sp], #48
100002ce0: f7 f9 ff 17 	b	0x1000014bc <___rust_dealloc>

0000000100002ce4 <__ZN4core3ptr65drop_in_place$LT$std..backtrace_rs..symbolize..gimli..Mapping$GT$17h950bee55b2d4f0cfE>:
100002ce4: f6 57 bd a9 	stp	x22, x21, [sp, #-48]!
100002ce8: f4 4f 01 a9 	stp	x20, x19, [sp, #16]
100002cec: fd 7b 02 a9 	stp	x29, x30, [sp, #32]
100002cf0: fd 83 00 91 	add	x29, sp, #32
100002cf4: f3 03 00 aa 	mov	x19, x0
100002cf8: 9e fc ff 97 	bl	0x100001f70 <__ZN4core3ptr124drop_in_place$LT$addr2line..ResDwarf$LT$gimli..read..endian_slice..EndianSlice$LT$gimli..endianity..LittleEndian$GT$$GT$$GT$17h28a08620bd5579caE>
100002cfc: 60 02 01 91 	add	x0, x19, #64
100002d00: 9e 00 00 94 	bl	0x100002f78 <__ZN4core3ptr71drop_in_place$LT$std..backtrace_rs..symbolize..gimli..macho..Object$GT$17h690a5816acd3f977E>
100002d04: 60 06 4c a9 	ldp	x0, x1, [x19, #192]
100002d08: 8e ba 00 94 	bl	0x100031740 <_writev+0x100031740>
100002d0c: 74 6a 40 f9 	ldr	x20, [x19, #208]
100002d10: 68 72 40 f9 	ldr	x8, [x19, #224]
100002d14: c8 01 00 b4 	cbz	x8, 0x100002d4c <__ZN4core3ptr65drop_in_place$LT$std..backtrace_rs..symbolize..gimli..Mapping$GT$17h950bee55b2d4f0cfE+0x68>
100002d18: 09 03 80 52 	mov	w9, #24
100002d1c: 15 51 09 9b 	madd	x21, x8, x9, x20
100002d20: 04 00 00 14 	b	0x100002d30 <__ZN4core3ptr65drop_in_place$LT$std..backtrace_rs..symbolize..gimli..Mapping$GT$17h950bee55b2d4f0cfE+0x4c>
100002d24: 94 62 00 91 	add	x20, x20, #24
100002d28: 9f 02 15 eb 	cmp	x20, x21
100002d2c: e0 00 00 54 	b.eq	0x100002d48 <__ZN4core3ptr65drop_in_place$LT$std..backtrace_rs..symbolize..gimli..Mapping$GT$17h950bee55b2d4f0cfE+0x64>
100002d30: 81 06 40 f9 	ldr	x1, [x20, #8]
100002d34: 81 ff ff b4 	cbz	x1, 0x100002d24 <__ZN4core3ptr65drop_in_place$LT$std..backtrace_rs..symbolize..gimli..Mapping$GT$17h950bee55b2d4f0cfE+0x40>
100002d38: 80 02 40 f9 	ldr	x0, [x20]
100002d3c: 22 00 80 52 	mov	w2, #1
100002d40: df f9 ff 97 	bl	0x1000014bc <___rust_dealloc>
100002d44: f8 ff ff 17 	b	0x100002d24 <__ZN4core3ptr65drop_in_place$LT$std..backtrace_rs..symbolize..gimli..Mapping$GT$17h950bee55b2d4f0cfE+0x40>
100002d48: 74 6a 40 f9 	ldr	x20, [x19, #208]
100002d4c: 68 6e 40 f9 	ldr	x8, [x19, #216]
100002d50: 1f 01 00 f1 	cmp	x8, #0
100002d54: 08 05 08 8b 	add	x8, x8, x8, lsl #1
100002d58: 01 f1 7d d3 	lsl	x1, x8, #3
100002d5c: 24 18 40 fa 	ccmp	x1, #0, #4, ne
100002d60: 01 01 00 54 	b.ne	0x100002d80 <__ZN4core3ptr65drop_in_place$LT$std..backtrace_rs..symbolize..gimli..Mapping$GT$17h950bee55b2d4f0cfE+0x9c>
100002d64: 68 76 40 f9 	ldr	x8, [x19, #232]
100002d68: 68 01 00 b4 	cbz	x8, 0x100002d94 <__ZN4core3ptr65drop_in_place$LT$std..backtrace_rs..symbolize..gimli..Mapping$GT$17h950bee55b2d4f0cfE+0xb0>
100002d6c: 60 06 4f a9 	ldp	x0, x1, [x19, #240]
100002d70: fd 7b 42 a9 	ldp	x29, x30, [sp, #32]
100002d74: f4 4f 41 a9 	ldp	x20, x19, [sp, #16]
100002d78: f6 57 c3 a8 	ldp	x22, x21, [sp], #48
100002d7c: 71 ba 00 14 	b	0x100031740 <_writev+0x100031740>
100002d80: e0 03 14 aa 	mov	x0, x20
100002d84: 02 01 80 52 	mov	w2, #8
100002d88: cd f9 ff 97 	bl	0x1000014bc <___rust_dealloc>
100002d8c: 68 76 40 f9 	ldr	x8, [x19, #232]
100002d90: e8 fe ff b5 	cbnz	x8, 0x100002d6c <__ZN4core3ptr65drop_in_place$LT$std..backtrace_rs..symbolize..gimli..Mapping$GT$17h950bee55b2d4f0cfE+0x88>
100002d94: fd 7b 42 a9 	ldp	x29, x30, [sp, #32]
100002d98: f4 4f 41 a9 	ldp	x20, x19, [sp, #16]
100002d9c: f6 57 c3 a8 	ldp	x22, x21, [sp], #48
100002da0: c0 03 5f d6 	ret
100002da4: f4 03 00 aa 	mov	x20, x0
100002da8: 04 00 00 14 	b	0x100002db8 <__ZN4core3ptr65drop_in_place$LT$std..backtrace_rs..symbolize..gimli..Mapping$GT$17h950bee55b2d4f0cfE+0xd4>
100002dac: f4 03 00 aa 	mov	x20, x0
100002db0: 60 02 01 91 	add	x0, x19, #64
100002db4: 71 00 00 94 	bl	0x100002f78 <__ZN4core3ptr71drop_in_place$LT$std..backtrace_rs..symbolize..gimli..macho..Object$GT$17h690a5816acd3f977E>
100002db8: 60 06 4c a9 	ldp	x0, x1, [x19, #192]
100002dbc: 3b 00 00 94 	bl	0x100002ea8 <__ZN4core3ptr68drop_in_place$LT$std..backtrace_rs..symbolize..gimli..mmap..Mmap$GT$17hc2630433ec210cb1E>
100002dc0: 60 42 03 91 	add	x0, x19, #208
100002dc4: 3a 00 00 94 	bl	0x100002eac <__ZN4core3ptr70drop_in_place$LT$std..backtrace_rs..symbolize..gimli..stash..Stash$GT$17h123315f690db1a2cE>
100002dc8: e0 03 14 aa 	mov	x0, x20
100002dcc: 15 ba 00 94 	bl	0x100031620 <_writev+0x100031620>
100002dd0: a0 b9 00 94 	bl	0x100031450 <__ZN4core9panicking15panic_no_unwind17ha22e330d9595cb93E>
100002dd4: 9f b9 00 94 	bl	0x100031450 <__ZN4core9panicking15panic_no_unwind17ha22e330d9595cb93E>

0000000100002dd8 <__ZN4core3ptr67drop_in_place$LT$alloc..vec..Vec$LT$addr2line..LineSequence$GT$$GT$17h1f126f2f40e0d854E>:
100002dd8: f6 57 bd a9 	stp	x22, x21, [sp, #-48]!
100002ddc: f4 4f 01 a9 	stp	x20, x19, [sp, #16]
100002de0: fd 7b 02 a9 	stp	x29, x30, [sp, #32]
100002de4: fd 83 00 91 	add	x29, sp, #32
100002de8: f3 03 00 aa 	mov	x19, x0
100002dec: 00 00 40 f9 	ldr	x0, [x0]
100002df0: 68 0a 40 f9 	ldr	x8, [x19, #16]
100002df4: 08 02 00 b4 	cbz	x8, 0x100002e34 <__ZN4core3ptr67drop_in_place$LT$alloc..vec..Vec$LT$addr2line..LineSequence$GT$$GT$17h1f126f2f40e0d854E+0x5c>
100002df8: 14 60 00 91 	add	x20, x0, #24
100002dfc: 15 e9 7b d3 	lsl	x21, x8, #5
100002e00: 04 00 00 14 	b	0x100002e10 <__ZN4core3ptr67drop_in_place$LT$alloc..vec..Vec$LT$addr2line..LineSequence$GT$$GT$17h1f126f2f40e0d854E+0x38>
100002e04: 94 82 00 91 	add	x20, x20, #32
100002e08: b5 82 00 f1 	subs	x21, x21, #32
100002e0c: 20 01 00 54 	b.eq	0x100002e30 <__ZN4core3ptr67drop_in_place$LT$alloc..vec..Vec$LT$addr2line..LineSequence$GT$$GT$17h1f126f2f40e0d854E+0x58>
100002e10: 88 02 40 f9 	ldr	x8, [x20]
100002e14: 88 ff ff b4 	cbz	x8, 0x100002e04 <__ZN4core3ptr67drop_in_place$LT$alloc..vec..Vec$LT$addr2line..LineSequence$GT$$GT$17h1f126f2f40e0d854E+0x2c>
100002e18: 80 82 5f f8 	ldur	x0, [x20, #-8]
100002e1c: 08 05 08 8b 	add	x8, x8, x8, lsl #1
100002e20: 01 f1 7d d3 	lsl	x1, x8, #3
100002e24: 02 01 80 52 	mov	w2, #8
100002e28: a5 f9 ff 97 	bl	0x1000014bc <___rust_dealloc>
100002e2c: f6 ff ff 17 	b	0x100002e04 <__ZN4core3ptr67drop_in_place$LT$alloc..vec..Vec$LT$addr2line..LineSequence$GT$$GT$17h1f126f2f40e0d854E+0x2c>
100002e30: 60 02 40 f9 	ldr	x0, [x19]
100002e34: 68 06 40 f9 	ldr	x8, [x19, #8]
100002e38: 1f 01 00 f1 	cmp	x8, #0
100002e3c: 01 e9 7b d3 	lsl	x1, x8, #5
100002e40: 24 18 40 fa 	ccmp	x1, #0, #4, ne
100002e44: a1 00 00 54 	b.ne	0x100002e58 <__ZN4core3ptr67drop_in_place$LT$alloc..vec..Vec$LT$addr2line..LineSequence$GT$$GT$17h1f126f2f40e0d854E+0x80>
100002e48: fd 7b 42 a9 	ldp	x29, x30, [sp, #32]
100002e4c: f4 4f 41 a9 	ldp	x20, x19, [sp, #16]
100002e50: f6 57 c3 a8 	ldp	x22, x21, [sp], #48
100002e54: c0 03 5f d6 	ret
100002e58: 02 01 80 52 	mov	w2, #8
100002e5c: fd 7b 42 a9 	ldp	x29, x30, [sp, #32]
100002e60: f4 4f 41 a9 	ldp	x20, x19, [sp, #16]
100002e64: f6 57 c3 a8 	ldp	x22, x21, [sp], #48
100002e68: 95 f9 ff 17 	b	0x1000014bc <___rust_dealloc>

0000000100002e6c <__ZN4core3ptr67drop_in_place$LT$std..sys_common..rwlock..StaticRwLockReadGuard$GT$17h0267fbf12533df00E>:
100002e6c: 00 00 40 f9 	ldr	x0, [x0]
100002e70: 08 20 03 91 	add	x8, x0, #200
100002e74: 09 00 80 92 	mov	x9, #-1
100002e78: 08 01 29 f8 	<unknown>
100002e7c: 67 ba 00 14 	b	0x100031818 <_writev+0x100031818>

0000000100002e80 <__ZN4core3ptr68drop_in_place$LT$core..option..Option$LT$std..thread..Thread$GT$$GT$17hdbd880544d351ff3E>:
100002e80: 08 00 40 f9 	ldr	x8, [x0]
100002e84: 08 01 00 b4 	cbz	x8, 0x100002ea4 <__ZN4core3ptr68drop_in_place$LT$core..option..Option$LT$std..thread..Thread$GT$$GT$17hdbd880544d351ff3E+0x24>
100002e88: 09 00 80 92 	mov	x9, #-1
100002e8c: 08 01 69 f8 	<unknown>
100002e90: 1f 05 00 f1 	cmp	x8, #1
100002e94: 81 00 00 54 	b.ne	0x100002ea4 <__ZN4core3ptr68drop_in_place$LT$core..option..Option$LT$std..thread..Thread$GT$$GT$17hdbd880544d351ff3E+0x24>
100002e98: bf 39 03 d5 	dmb	ishld
100002e9c: 00 00 40 f9 	ldr	x0, [x0]
100002ea0: 41 0d 00 14 	b	0x1000063a4 <__ZN5alloc4sync12Arc$LT$T$GT$9drop_slow17h4a77a6fe5f318196E>
100002ea4: c0 03 5f d6 	ret

0000000100002ea8 <__ZN4core3ptr68drop_in_place$LT$std..backtrace_rs..symbolize..gimli..mmap..Mmap$GT$17hc2630433ec210cb1E>:
100002ea8: 26 ba 00 14 	b	0x100031740 <_writev+0x100031740>

0000000100002eac <__ZN4core3ptr70drop_in_place$LT$std..backtrace_rs..symbolize..gimli..stash..Stash$GT$17h123315f690db1a2cE>:
100002eac: f6 57 bd a9 	stp	x22, x21, [sp, #-48]!
100002eb0: f4 4f 01 a9 	stp	x20, x19, [sp, #16]
100002eb4: fd 7b 02 a9 	stp	x29, x30, [sp, #32]
100002eb8: fd 83 00 91 	add	x29, sp, #32
100002ebc: f3 03 00 aa 	mov	x19, x0
100002ec0: 14 00 40 f9 	ldr	x20, [x0]
100002ec4: 08 08 40 f9 	ldr	x8, [x0, #16]
100002ec8: c8 01 00 b4 	cbz	x8, 0x100002f00 <__ZN4core3ptr70drop_in_place$LT$std..backtrace_rs..symbolize..gimli..stash..Stash$GT$17h123315f690db1a2cE+0x54>
100002ecc: 09 03 80 52 	mov	w9, #24
100002ed0: 15 51 09 9b 	madd	x21, x8, x9, x20
100002ed4: 04 00 00 14 	b	0x100002ee4 <__ZN4core3ptr70drop_in_place$LT$std..backtrace_rs..symbolize..gimli..stash..Stash$GT$17h123315f690db1a2cE+0x38>
100002ed8: 94 62 00 91 	add	x20, x20, #24
100002edc: 9f 02 15 eb 	cmp	x20, x21
100002ee0: e0 00 00 54 	b.eq	0x100002efc <__ZN4core3ptr70drop_in_place$LT$std..backtrace_rs..symbolize..gimli..stash..Stash$GT$17h123315f690db1a2cE+0x50>
100002ee4: 81 06 40 f9 	ldr	x1, [x20, #8]
100002ee8: 81 ff ff b4 	cbz	x1, 0x100002ed8 <__ZN4core3ptr70drop_in_place$LT$std..backtrace_rs..symbolize..gimli..stash..Stash$GT$17h123315f690db1a2cE+0x2c>
100002eec: 80 02 40 f9 	ldr	x0, [x20]
100002ef0: 22 00 80 52 	mov	w2, #1
100002ef4: 72 f9 ff 97 	bl	0x1000014bc <___rust_dealloc>
100002ef8: f8 ff ff 17 	b	0x100002ed8 <__ZN4core3ptr70drop_in_place$LT$std..backtrace_rs..symbolize..gimli..stash..Stash$GT$17h123315f690db1a2cE+0x2c>
100002efc: 74 02 40 f9 	ldr	x20, [x19]
100002f00: 68 06 40 f9 	ldr	x8, [x19, #8]
100002f04: 1f 01 00 f1 	cmp	x8, #0
100002f08: 08 05 08 8b 	add	x8, x8, x8, lsl #1
100002f0c: 01 f1 7d d3 	lsl	x1, x8, #3
100002f10: 24 18 40 fa 	ccmp	x1, #0, #4, ne
100002f14: 01 01 00 54 	b.ne	0x100002f34 <__ZN4core3ptr70drop_in_place$LT$std..backtrace_rs..symbolize..gimli..stash..Stash$GT$17h123315f690db1a2cE+0x88>
100002f18: 68 0e 40 f9 	ldr	x8, [x19, #24]
100002f1c: 68 01 00 b4 	cbz	x8, 0x100002f48 <__ZN4core3ptr70drop_in_place$LT$std..backtrace_rs..symbolize..gimli..stash..Stash$GT$17h123315f690db1a2cE+0x9c>
100002f20: 60 06 42 a9 	ldp	x0, x1, [x19, #32]
100002f24: fd 7b 42 a9 	ldp	x29, x30, [sp, #32]
100002f28: f4 4f 41 a9 	ldp	x20, x19, [sp, #16]
100002f2c: f6 57 c3 a8 	ldp	x22, x21, [sp], #48
100002f30: 04 ba 00 14 	b	0x100031740 <_writev+0x100031740>
100002f34: e0 03 14 aa 	mov	x0, x20
100002f38: 02 01 80 52 	mov	w2, #8
100002f3c: 60 f9 ff 97 	bl	0x1000014bc <___rust_dealloc>
100002f40: 68 0e 40 f9 	ldr	x8, [x19, #24]
100002f44: e8 fe ff b5 	cbnz	x8, 0x100002f20 <__ZN4core3ptr70drop_in_place$LT$std..backtrace_rs..symbolize..gimli..stash..Stash$GT$17h123315f690db1a2cE+0x74>
100002f48: fd 7b 42 a9 	ldp	x29, x30, [sp, #32]
100002f4c: f4 4f 41 a9 	ldp	x20, x19, [sp, #16]
100002f50: f6 57 c3 a8 	ldp	x22, x21, [sp], #48
100002f54: c0 03 5f d6 	ret

0000000100002f58 <__ZN4core3ptr70drop_in_place$LT$std..panicking..begin_panic_handler..PanicPayload$GT$17hea26ad6eddefdac0E>:
100002f58: e8 03 00 aa 	mov	x8, x0
100002f5c: 00 04 40 f9 	ldr	x0, [x0, #8]
100002f60: a0 00 00 b4 	cbz	x0, 0x100002f74 <__ZN4core3ptr70drop_in_place$LT$std..panicking..begin_panic_handler..PanicPayload$GT$17hea26ad6eddefdac0E+0x1c>
100002f64: 01 09 40 f9 	ldr	x1, [x8, #16]
100002f68: 61 00 00 b4 	cbz	x1, 0x100002f74 <__ZN4core3ptr70drop_in_place$LT$std..panicking..begin_panic_handler..PanicPayload$GT$17hea26ad6eddefdac0E+0x1c>
100002f6c: 22 00 80 52 	mov	w2, #1
100002f70: 53 f9 ff 17 	b	0x1000014bc <___rust_dealloc>
100002f74: c0 03 5f d6 	ret

0000000100002f78 <__ZN4core3ptr71drop_in_place$LT$std..backtrace_rs..symbolize..gimli..macho..Object$GT$17h690a5816acd3f977E>:
100002f78: f8 5f bc a9 	stp	x24, x23, [sp, #-64]!
100002f7c: f6 57 01 a9 	stp	x22, x21, [sp, #16]
100002f80: f4 4f 02 a9 	stp	x20, x19, [sp, #32]
100002f84: fd 7b 03 a9 	stp	x29, x30, [sp, #48]
100002f88: fd c3 00 91 	add	x29, sp, #48
100002f8c: f3 03 00 aa 	mov	x19, x0
100002f90: 08 14 40 f9 	ldr	x8, [x0, #40]
100002f94: 1f 01 00 f1 	cmp	x8, #0
100002f98: 08 05 08 8b 	add	x8, x8, x8, lsl #1
100002f9c: 01 f1 7d d3 	lsl	x1, x8, #3
100002fa0: 24 18 40 fa 	ccmp	x1, #0, #4, ne
100002fa4: 80 00 00 54 	b.eq	0x100002fb4 <__ZN4core3ptr71drop_in_place$LT$std..backtrace_rs..symbolize..gimli..macho..Object$GT$17h690a5816acd3f977E+0x3c>
100002fa8: 60 12 40 f9 	ldr	x0, [x19, #32]
100002fac: 02 01 80 52 	mov	w2, #8
100002fb0: 43 f9 ff 97 	bl	0x1000014bc <___rust_dealloc>
100002fb4: 60 1e 40 f9 	ldr	x0, [x19, #56]
100002fb8: 00 02 00 b4 	cbz	x0, 0x100002ff8 <__ZN4core3ptr71drop_in_place$LT$std..backtrace_rs..symbolize..gimli..macho..Object$GT$17h690a5816acd3f977E+0x80>
100002fbc: 68 22 40 f9 	ldr	x8, [x19, #64]
100002fc0: 1f 01 00 f1 	cmp	x8, #0
100002fc4: 08 09 08 8b 	add	x8, x8, x8, lsl #2
100002fc8: 01 f1 7d d3 	lsl	x1, x8, #3
100002fcc: 24 18 40 fa 	ccmp	x1, #0, #4, ne
100002fd0: 60 00 00 54 	b.eq	0x100002fdc <__ZN4core3ptr71drop_in_place$LT$std..backtrace_rs..symbolize..gimli..macho..Object$GT$17h690a5816acd3f977E+0x64>
100002fd4: 02 01 80 52 	mov	w2, #8
100002fd8: 39 f9 ff 97 	bl	0x1000014bc <___rust_dealloc>
100002fdc: 68 2e 40 f9 	ldr	x8, [x19, #88]
100002fe0: c8 00 00 b4 	cbz	x8, 0x100002ff8 <__ZN4core3ptr71drop_in_place$LT$std..backtrace_rs..symbolize..gimli..macho..Object$GT$17h690a5816acd3f977E+0x80>
100002fe4: 01 ed 7c d3 	lsl	x1, x8, #4
100002fe8: 81 00 00 b4 	cbz	x1, 0x100002ff8 <__ZN4core3ptr71drop_in_place$LT$std..backtrace_rs..symbolize..gimli..macho..Object$GT$17h690a5816acd3f977E+0x80>
100002fec: 60 2a 40 f9 	ldr	x0, [x19, #80]
100002ff0: 02 01 80 52 	mov	w2, #8
100002ff4: 32 f9 ff 97 	bl	0x1000014bc <___rust_dealloc>
100002ff8: 68 3a 40 f9 	ldr	x8, [x19, #112]
100002ffc: 28 03 00 b4 	cbz	x8, 0x100003060 <__ZN4core3ptr71drop_in_place$LT$std..backtrace_rs..symbolize..gimli..macho..Object$GT$17h690a5816acd3f977E+0xe8>
100003000: 69 36 40 f9 	ldr	x9, [x19, #104]
100003004: 08 dd 78 d3 	lsl	x8, x8, #8
100003008: 16 01 04 d1 	sub	x22, x8, #256
10000300c: 34 01 04 91 	add	x20, x9, #256
100003010: 05 00 00 14 	b	0x100003024 <__ZN4core3ptr71drop_in_place$LT$std..backtrace_rs..symbolize..gimli..macho..Object$GT$17h690a5816acd3f977E+0xac>
100003014: d6 02 04 d1 	sub	x22, x22, #256
100003018: 94 02 04 91 	add	x20, x20, #256
10000301c: df 02 04 b1 	cmn	x22, #256
100003020: c0 00 00 54 	b.eq	0x100003038 <__ZN4core3ptr71drop_in_place$LT$std..backtrace_rs..symbolize..gimli..macho..Object$GT$17h690a5816acd3f977E+0xc0>
100003024: 88 82 5b 38 	ldurb	w8, [x20, #-72]
100003028: 68 ff 0f 37 	tbnz	w8, #1, 0x100003014 <__ZN4core3ptr71drop_in_place$LT$std..backtrace_rs..symbolize..gimli..macho..Object$GT$17h690a5816acd3f977E+0x9c>
10000302c: 80 02 04 d1 	sub	x0, x20, #256
100003030: 2d ff ff 97 	bl	0x100002ce4 <__ZN4core3ptr65drop_in_place$LT$std..backtrace_rs..symbolize..gimli..Mapping$GT$17h950bee55b2d4f0cfE>
100003034: f8 ff ff 17 	b	0x100003014 <__ZN4core3ptr71drop_in_place$LT$std..backtrace_rs..symbolize..gimli..macho..Object$GT$17h690a5816acd3f977E+0x9c>
100003038: 68 3a 40 f9 	ldr	x8, [x19, #112]
10000303c: 28 01 00 b4 	cbz	x8, 0x100003060 <__ZN4core3ptr71drop_in_place$LT$std..backtrace_rs..symbolize..gimli..macho..Object$GT$17h690a5816acd3f977E+0xe8>
100003040: 60 36 40 f9 	ldr	x0, [x19, #104]
100003044: 01 dd 78 d3 	lsl	x1, x8, #8
100003048: 02 01 80 52 	mov	w2, #8
10000304c: fd 7b 43 a9 	ldp	x29, x30, [sp, #48]
100003050: f4 4f 42 a9 	ldp	x20, x19, [sp, #32]
100003054: f6 57 41 a9 	ldp	x22, x21, [sp, #16]
100003058: f8 5f c4 a8 	ldp	x24, x23, [sp], #64
10000305c: 18 f9 ff 17 	b	0x1000014bc <___rust_dealloc>
100003060: fd 7b 43 a9 	ldp	x29, x30, [sp, #48]
100003064: f4 4f 42 a9 	ldp	x20, x19, [sp, #32]
100003068: f6 57 41 a9 	ldp	x22, x21, [sp, #16]
10000306c: f8 5f c4 a8 	ldp	x24, x23, [sp], #64
100003070: c0 03 5f d6 	ret
100003074: f5 03 00 aa 	mov	x21, x0
100003078: f6 00 00 b4 	cbz	x22, 0x100003094 <__ZN4core3ptr71drop_in_place$LT$std..backtrace_rs..symbolize..gimli..macho..Object$GT$17h690a5816acd3f977E+0x11c>
10000307c: 97 02 04 91 	add	x23, x20, #256
100003080: d6 02 04 d1 	sub	x22, x22, #256
100003084: e0 03 14 aa 	mov	x0, x20
100003088: 9a fb ff 97 	bl	0x100001ef0 <__ZN4core3ptr121drop_in_place$LT$core..option..Option$LT$core..option..Option$LT$std..backtrace_rs..symbolize..gimli..Mapping$GT$$GT$$GT$17hf8efd2f4f36f4201E>
10000308c: f4 03 17 aa 	mov	x20, x23
100003090: fa ff ff 17 	b	0x100003078 <__ZN4core3ptr71drop_in_place$LT$std..backtrace_rs..symbolize..gimli..macho..Object$GT$17h690a5816acd3f977E+0x100>
100003094: 60 86 46 a9 	ldp	x0, x1, [x19, #104]
100003098: 1a 0d 00 94 	bl	0x100006500 <__ZN5alloc5alloc8box_free17h06c6c347ce251224E>
10000309c: e0 03 15 aa 	mov	x0, x21
1000030a0: 60 b9 00 94 	bl	0x100031620 <_writev+0x100031620>
1000030a4: eb b8 00 94 	bl	0x100031450 <__ZN4core9panicking15panic_no_unwind17ha22e330d9595cb93E>

00000001000030a8 <__ZN4core3ptr72drop_in_place$LT$alloc..collections..btree..mem..replace..PanicGuard$GT$17hc80c079f9c830604E>:
1000030a8: 89 9a 00 14 	b	0x100029acc <__ZN93_$LT$alloc..collections..btree..mem..replace..PanicGuard$u20$as$u20$core..ops..drop..Drop$GT$4drop17h714ce63e008dc4d5E>

00000001000030ac <__ZN4core3ptr72drop_in_place$LT$core..option..Option$LT$object..read..ObjectMap$GT$$GT$17hd041f2e97a71b861E>:
1000030ac: f4 4f be a9 	stp	x20, x19, [sp, #-32]!
1000030b0: fd 7b 01 a9 	stp	x29, x30, [sp, #16]
1000030b4: fd 43 00 91 	add	x29, sp, #16
1000030b8: f3 03 00 aa 	mov	x19, x0
1000030bc: 00 00 40 f9 	ldr	x0, [x0]
1000030c0: 80 01 00 b4 	cbz	x0, 0x1000030f0 <__ZN4core3ptr72drop_in_place$LT$core..option..Option$LT$object..read..ObjectMap$GT$$GT$17hd041f2e97a71b861E+0x44>
1000030c4: 68 06 40 f9 	ldr	x8, [x19, #8]
1000030c8: 1f 01 00 f1 	cmp	x8, #0
1000030cc: 08 09 08 8b 	add	x8, x8, x8, lsl #2
1000030d0: 01 f1 7d d3 	lsl	x1, x8, #3
1000030d4: 24 18 40 fa 	ccmp	x1, #0, #4, ne
1000030d8: 21 01 00 54 	b.ne	0x1000030fc <__ZN4core3ptr72drop_in_place$LT$core..option..Option$LT$object..read..ObjectMap$GT$$GT$17hd041f2e97a71b861E+0x50>
1000030dc: 68 12 40 f9 	ldr	x8, [x19, #32]
1000030e0: 1f 01 00 f1 	cmp	x8, #0
1000030e4: 01 ed 7c d3 	lsl	x1, x8, #4
1000030e8: 24 18 40 fa 	ccmp	x1, #0, #4, ne
1000030ec: 61 01 00 54 	b.ne	0x100003118 <__ZN4core3ptr72drop_in_place$LT$core..option..Option$LT$object..read..ObjectMap$GT$$GT$17hd041f2e97a71b861E+0x6c>
1000030f0: fd 7b 41 a9 	ldp	x29, x30, [sp, #16]
1000030f4: f4 4f c2 a8 	ldp	x20, x19, [sp], #32
1000030f8: c0 03 5f d6 	ret
1000030fc: 02 01 80 52 	mov	w2, #8
100003100: ef f8 ff 97 	bl	0x1000014bc <___rust_dealloc>
100003104: 68 12 40 f9 	ldr	x8, [x19, #32]
100003108: 1f 01 00 f1 	cmp	x8, #0
10000310c: 01 ed 7c d3 	lsl	x1, x8, #4
100003110: 24 18 40 fa 	ccmp	x1, #0, #4, ne
100003114: e0 fe ff 54 	b.eq	0x1000030f0 <__ZN4core3ptr72drop_in_place$LT$core..option..Option$LT$object..read..ObjectMap$GT$$GT$17hd041f2e97a71b861E+0x44>
100003118: 60 0e 40 f9 	ldr	x0, [x19, #24]
10000311c: 02 01 80 52 	mov	w2, #8
100003120: fd 7b 41 a9 	ldp	x29, x30, [sp, #16]
100003124: f4 4f c2 a8 	ldp	x20, x19, [sp], #32
100003128: e5 f8 ff 17 	b	0x1000014bc <___rust_dealloc>

000000010000312c <__ZN4core3ptr75drop_in_place$LT$core..option..Option$LT$alloc..ffi..c_str..CString$GT$$GT$17hcbec6fb0620535d9E>:
10000312c: 08 00 40 f9 	ldr	x8, [x0]
100003130: e8 00 00 b4 	cbz	x8, 0x10000314c <__ZN4core3ptr75drop_in_place$LT$core..option..Option$LT$alloc..ffi..c_str..CString$GT$$GT$17hcbec6fb0620535d9E+0x20>
100003134: 1f 01 00 39 	strb	wzr, [x8]
100003138: 01 04 40 f9 	ldr	x1, [x0, #8]
10000313c: 81 00 00 b4 	cbz	x1, 0x10000314c <__ZN4core3ptr75drop_in_place$LT$core..option..Option$LT$alloc..ffi..c_str..CString$GT$$GT$17hcbec6fb0620535d9E+0x20>
100003140: 00 00 40 f9 	ldr	x0, [x0]
100003144: 22 00 80 52 	mov	w2, #1
100003148: dd f8 ff 17 	b	0x1000014bc <___rust_dealloc>
10000314c: c0 03 5f d6 	ret

0000000100003150 <__ZN4core3ptr75drop_in_place$LT$std..sys..unix..locks..pthread_mutex..PthreadMutexAttr$GT$17he5b205bfce3a79f0E>:
100003150: 00 00 40 f9 	ldr	x0, [x0]
100003154: a5 b9 00 14 	b	0x1000317e8 <_writev+0x1000317e8>

0000000100003158 <__ZN4core3ptr77drop_in_place$LT$alloc..boxed..Box$LT$$u5b$alloc..string..String$u5d$$GT$$GT$17h2e75a231d7d8ed89E>:
100003158: f6 57 bd a9 	stp	x22, x21, [sp, #-48]!
10000315c: f4 4f 01 a9 	stp	x20, x19, [sp, #16]
100003160: fd 7b 02 a9 	stp	x29, x30, [sp, #32]
100003164: fd 83 00 91 	add	x29, sp, #32
100003168: 08 04 40 f9 	ldr	x8, [x0, #8]
10000316c: 28 03 00 b4 	cbz	x8, 0x1000031d0 <__ZN4core3ptr77drop_in_place$LT$alloc..boxed..Box$LT$$u5b$alloc..string..String$u5d$$GT$$GT$17h2e75a231d7d8ed89E+0x78>
100003170: f3 03 00 aa 	mov	x19, x0
100003174: 14 00 40 f9 	ldr	x20, [x0]
100003178: 09 03 80 52 	mov	w9, #24
10000317c: 15 51 09 9b 	madd	x21, x8, x9, x20
100003180: 04 00 00 14 	b	0x100003190 <__ZN4core3ptr77drop_in_place$LT$alloc..boxed..Box$LT$$u5b$alloc..string..String$u5d$$GT$$GT$17h2e75a231d7d8ed89E+0x38>
100003184: 94 62 00 91 	add	x20, x20, #24
100003188: 9f 02 15 eb 	cmp	x20, x21
10000318c: e0 00 00 54 	b.eq	0x1000031a8 <__ZN4core3ptr77drop_in_place$LT$alloc..boxed..Box$LT$$u5b$alloc..string..String$u5d$$GT$$GT$17h2e75a231d7d8ed89E+0x50>
100003190: 81 06 40 f9 	ldr	x1, [x20, #8]
100003194: 81 ff ff b4 	cbz	x1, 0x100003184 <__ZN4core3ptr77drop_in_place$LT$alloc..boxed..Box$LT$$u5b$alloc..string..String$u5d$$GT$$GT$17h2e75a231d7d8ed89E+0x2c>
100003198: 80 02 40 f9 	ldr	x0, [x20]
10000319c: 22 00 80 52 	mov	w2, #1
1000031a0: c7 f8 ff 97 	bl	0x1000014bc <___rust_dealloc>
1000031a4: f8 ff ff 17 	b	0x100003184 <__ZN4core3ptr77drop_in_place$LT$alloc..boxed..Box$LT$$u5b$alloc..string..String$u5d$$GT$$GT$17h2e75a231d7d8ed89E+0x2c>
1000031a8: 68 06 40 f9 	ldr	x8, [x19, #8]
1000031ac: 28 01 00 b4 	cbz	x8, 0x1000031d0 <__ZN4core3ptr77drop_in_place$LT$alloc..boxed..Box$LT$$u5b$alloc..string..String$u5d$$GT$$GT$17h2e75a231d7d8ed89E+0x78>
1000031b0: 60 02 40 f9 	ldr	x0, [x19]
1000031b4: 08 05 08 8b 	add	x8, x8, x8, lsl #1
1000031b8: 01 f1 7d d3 	lsl	x1, x8, #3
1000031bc: 02 01 80 52 	mov	w2, #8
1000031c0: fd 7b 42 a9 	ldp	x29, x30, [sp, #32]
1000031c4: f4 4f 41 a9 	ldp	x20, x19, [sp, #16]
1000031c8: f6 57 c3 a8 	ldp	x22, x21, [sp], #48
1000031cc: bc f8 ff 17 	b	0x1000014bc <___rust_dealloc>
1000031d0: fd 7b 42 a9 	ldp	x29, x30, [sp, #32]
1000031d4: f4 4f 41 a9 	ldp	x20, x19, [sp, #16]
1000031d8: f6 57 c3 a8 	ldp	x22, x21, [sp], #48
1000031dc: c0 03 5f d6 	ret

00000001000031e0 <__ZN4core3ptr78drop_in_place$LT$alloc..vec..Vec$LT$gimli..read..line..FileEntryFormat$GT$$GT$17h5ab7aa810e6055aaE>:
1000031e0: 08 04 40 f9 	ldr	x8, [x0, #8]
1000031e4: 1f 01 00 f1 	cmp	x8, #0
1000031e8: 01 f5 7e d3 	lsl	x1, x8, #2
1000031ec: 24 18 40 fa 	ccmp	x1, #0, #4, ne
1000031f0: 41 00 00 54 	b.ne	0x1000031f8 <__ZN4core3ptr78drop_in_place$LT$alloc..vec..Vec$LT$gimli..read..line..FileEntryFormat$GT$$GT$17h5ab7aa810e6055aaE+0x18>
1000031f4: c0 03 5f d6 	ret
1000031f8: 00 00 40 f9 	ldr	x0, [x0]
1000031fc: 42 00 80 52 	mov	w2, #2
100003200: af f8 ff 17 	b	0x1000014bc <___rust_dealloc>

0000000100003204 <__ZN4core3ptr81drop_in_place$LT$$LP$usize$C$std..backtrace_rs..symbolize..gimli..Mapping$RP$$GT$17h715b224f2d622a9cE>:
100003204: 00 20 00 91 	add	x0, x0, #8
100003208: b7 fe ff 17 	b	0x100002ce4 <__ZN4core3ptr65drop_in_place$LT$std..backtrace_rs..symbolize..gimli..Mapping$GT$17h950bee55b2d4f0cfE>

000000010000320c <__ZN4core3ptr81drop_in_place$LT$core..result..Result$LT$$LP$$RP$$C$std..io..error..Error$GT$$GT$17h3afeb83c47c626c7E>:
10000320c: 08 00 40 f9 	ldr	x8, [x0]
100003210: 48 00 00 b4 	cbz	x8, 0x100003218 <__ZN4core3ptr81drop_in_place$LT$core..result..Result$LT$$LP$$RP$$C$std..io..error..Error$GT$$GT$17h3afeb83c47c626c7E+0xc>
100003214: b7 fd ff 17 	b	0x1000028f0 <__ZN4core3ptr42drop_in_place$LT$std..io..error..Error$GT$17h779b7ab2fb8f1a5eE>
100003218: c0 03 5f d6 	ret

000000010000321c <__ZN4core3ptr82drop_in_place$LT$alloc..sync..ArcInner$LT$std..sys..unix..fs..InnerReadDir$GT$$GT$17hc4e136894cdd33f2E>:
10000321c: f4 4f be a9 	stp	x20, x19, [sp, #-32]!
100003220: fd 7b 01 a9 	stp	x29, x30, [sp, #16]
100003224: fd 43 00 91 	add	x29, sp, #16
100003228: f3 03 00 aa 	mov	x19, x0
10000322c: 00 08 40 f9 	ldr	x0, [x0, #16]
100003230: 20 b9 00 94 	bl	0x1000316b0 <_writev+0x1000316b0>
100003234: 61 12 40 f9 	ldr	x1, [x19, #32]
100003238: c1 00 00 b4 	cbz	x1, 0x100003250 <__ZN4core3ptr82drop_in_place$LT$alloc..sync..ArcInner$LT$std..sys..unix..fs..InnerReadDir$GT$$GT$17hc4e136894cdd33f2E+0x34>
10000323c: 60 0e 40 f9 	ldr	x0, [x19, #24]
100003240: 22 00 80 52 	mov	w2, #1
100003244: fd 7b 41 a9 	ldp	x29, x30, [sp, #16]
100003248: f4 4f c2 a8 	ldp	x20, x19, [sp], #32
10000324c: 9c f8 ff 17 	b	0x1000014bc <___rust_dealloc>
100003250: fd 7b 41 a9 	ldp	x29, x30, [sp, #16]
100003254: f4 4f c2 a8 	ldp	x20, x19, [sp], #32
100003258: c0 03 5f d6 	ret

000000010000325c <__ZN4core3ptr83drop_in_place$LT$std..sys_common..thread_info..set..$u7b$$u7b$closure$u7d$$u7d$$GT$17h34db14ac7ac86ccdE>:
10000325c: 08 0c 40 f9 	ldr	x8, [x0, #24]
100003260: 09 00 80 92 	mov	x9, #-1
100003264: 08 01 69 f8 	<unknown>
100003268: 1f 05 00 f1 	cmp	x8, #1
10000326c: 81 00 00 54 	b.ne	0x10000327c <__ZN4core3ptr83drop_in_place$LT$std..sys_common..thread_info..set..$u7b$$u7b$closure$u7d$$u7d$$GT$17h34db14ac7ac86ccdE+0x20>
100003270: bf 39 03 d5 	dmb	ishld
100003274: 00 0c 40 f9 	ldr	x0, [x0, #24]
100003278: 4b 0c 00 14 	b	0x1000063a4 <__ZN5alloc4sync12Arc$LT$T$GT$9drop_slow17h4a77a6fe5f318196E>
10000327c: c0 03 5f d6 	ret

0000000100003280 <__ZN4core3ptr84drop_in_place$LT$std..io..stdio..set_output_capture..$u7b$$u7b$closure$u7d$$u7d$$GT$17hf91a47562104c09aE>:
100003280: 08 00 40 f9 	ldr	x8, [x0]
100003284: 08 01 00 b4 	cbz	x8, 0x1000032a4 <__ZN4core3ptr84drop_in_place$LT$std..io..stdio..set_output_capture..$u7b$$u7b$closure$u7d$$u7d$$GT$17hf91a47562104c09aE+0x24>
100003288: 09 00 80 92 	mov	x9, #-1
10000328c: 08 01 69 f8 	<unknown>
100003290: 1f 05 00 f1 	cmp	x8, #1
100003294: 81 00 00 54 	b.ne	0x1000032a4 <__ZN4core3ptr84drop_in_place$LT$std..io..stdio..set_output_capture..$u7b$$u7b$closure$u7d$$u7d$$GT$17hf91a47562104c09aE+0x24>
100003298: bf 39 03 d5 	dmb	ishld
10000329c: 00 00 40 f9 	ldr	x0, [x0]
1000032a0: 62 0c 00 14 	b	0x100006428 <__ZN5alloc4sync12Arc$LT$T$GT$9drop_slow17h88213df8f14a27faE>
1000032a4: c0 03 5f d6 	ret

00000001000032a8 <__ZN4core3ptr86drop_in_place$LT$core..result..Result$LT$addr2line..Lines$C$gimli..read..Error$GT$$GT$17h1e061d1d150553acE>:
1000032a8: f6 57 bd a9 	stp	x22, x21, [sp, #-48]!
1000032ac: f4 4f 01 a9 	stp	x20, x19, [sp, #16]
1000032b0: fd 7b 02 a9 	stp	x29, x30, [sp, #32]
1000032b4: fd 83 00 91 	add	x29, sp, #32
1000032b8: 08 00 40 f9 	ldr	x8, [x0]
1000032bc: a8 00 00 b4 	cbz	x8, 0x1000032d0 <__ZN4core3ptr86drop_in_place$LT$core..result..Result$LT$addr2line..Lines$C$gimli..read..Error$GT$$GT$17h1e061d1d150553acE+0x28>
1000032c0: fd 7b 42 a9 	ldp	x29, x30, [sp, #32]
1000032c4: f4 4f 41 a9 	ldp	x20, x19, [sp, #16]
1000032c8: f6 57 c3 a8 	ldp	x22, x21, [sp], #48
1000032cc: c0 03 5f d6 	ret
1000032d0: f3 03 00 aa 	mov	x19, x0
1000032d4: 08 08 40 f9 	ldr	x8, [x0, #16]
1000032d8: a8 02 00 b4 	cbz	x8, 0x10000332c <__ZN4core3ptr86drop_in_place$LT$core..result..Result$LT$addr2line..Lines$C$gimli..read..Error$GT$$GT$17h1e061d1d150553acE+0x84>
1000032dc: 74 06 40 f9 	ldr	x20, [x19, #8]
1000032e0: 09 03 80 52 	mov	w9, #24
1000032e4: 15 51 09 9b 	madd	x21, x8, x9, x20
1000032e8: 04 00 00 14 	b	0x1000032f8 <__ZN4core3ptr86drop_in_place$LT$core..result..Result$LT$addr2line..Lines$C$gimli..read..Error$GT$$GT$17h1e061d1d150553acE+0x50>
1000032ec: 94 62 00 91 	add	x20, x20, #24
1000032f0: 9f 02 15 eb 	cmp	x20, x21
1000032f4: e0 00 00 54 	b.eq	0x100003310 <__ZN4core3ptr86drop_in_place$LT$core..result..Result$LT$addr2line..Lines$C$gimli..read..Error$GT$$GT$17h1e061d1d150553acE+0x68>
1000032f8: 81 06 40 f9 	ldr	x1, [x20, #8]
1000032fc: 81 ff ff b4 	cbz	x1, 0x1000032ec <__ZN4core3ptr86drop_in_place$LT$core..result..Result$LT$addr2line..Lines$C$gimli..read..Error$GT$$GT$17h1e061d1d150553acE+0x44>
100003300: 80 02 40 f9 	ldr	x0, [x20]
100003304: 22 00 80 52 	mov	w2, #1
100003308: 6d f8 ff 97 	bl	0x1000014bc <___rust_dealloc>
10000330c: f8 ff ff 17 	b	0x1000032ec <__ZN4core3ptr86drop_in_place$LT$core..result..Result$LT$addr2line..Lines$C$gimli..read..Error$GT$$GT$17h1e061d1d150553acE+0x44>
100003310: 68 0a 40 f9 	ldr	x8, [x19, #16]
100003314: c8 00 00 b4 	cbz	x8, 0x10000332c <__ZN4core3ptr86drop_in_place$LT$core..result..Result$LT$addr2line..Lines$C$gimli..read..Error$GT$$GT$17h1e061d1d150553acE+0x84>
100003318: 60 06 40 f9 	ldr	x0, [x19, #8]
10000331c: 08 05 08 8b 	add	x8, x8, x8, lsl #1
100003320: 01 f1 7d d3 	lsl	x1, x8, #3
100003324: 02 01 80 52 	mov	w2, #8
100003328: 65 f8 ff 97 	bl	0x1000014bc <___rust_dealloc>
10000332c: 68 12 40 f9 	ldr	x8, [x19, #32]
100003330: 88 fc ff b4 	cbz	x8, 0x1000032c0 <__ZN4core3ptr86drop_in_place$LT$core..result..Result$LT$addr2line..Lines$C$gimli..read..Error$GT$$GT$17h1e061d1d150553acE+0x18>
100003334: 69 0e 40 f9 	ldr	x9, [x19, #24]
100003338: 34 61 00 91 	add	x20, x9, #24
10000333c: 15 e9 7b d3 	lsl	x21, x8, #5
100003340: 04 00 00 14 	b	0x100003350 <__ZN4core3ptr86drop_in_place$LT$core..result..Result$LT$addr2line..Lines$C$gimli..read..Error$GT$$GT$17h1e061d1d150553acE+0xa8>
100003344: 94 82 00 91 	add	x20, x20, #32
100003348: b5 82 00 f1 	subs	x21, x21, #32
10000334c: 20 01 00 54 	b.eq	0x100003370 <__ZN4core3ptr86drop_in_place$LT$core..result..Result$LT$addr2line..Lines$C$gimli..read..Error$GT$$GT$17h1e061d1d150553acE+0xc8>
100003350: 88 02 40 f9 	ldr	x8, [x20]
100003354: 88 ff ff b4 	cbz	x8, 0x100003344 <__ZN4core3ptr86drop_in_place$LT$core..result..Result$LT$addr2line..Lines$C$gimli..read..Error$GT$$GT$17h1e061d1d150553acE+0x9c>
100003358: 80 82 5f f8 	ldur	x0, [x20, #-8]
10000335c: 08 05 08 8b 	add	x8, x8, x8, lsl #1
100003360: 01 f1 7d d3 	lsl	x1, x8, #3
100003364: 02 01 80 52 	mov	w2, #8
100003368: 55 f8 ff 97 	bl	0x1000014bc <___rust_dealloc>
10000336c: f6 ff ff 17 	b	0x100003344 <__ZN4core3ptr86drop_in_place$LT$core..result..Result$LT$addr2line..Lines$C$gimli..read..Error$GT$$GT$17h1e061d1d150553acE+0x9c>
100003370: 68 12 40 f9 	ldr	x8, [x19, #32]
100003374: 68 fa ff b4 	cbz	x8, 0x1000032c0 <__ZN4core3ptr86drop_in_place$LT$core..result..Result$LT$addr2line..Lines$C$gimli..read..Error$GT$$GT$17h1e061d1d150553acE+0x18>
100003378: 60 0e 40 f9 	ldr	x0, [x19, #24]
10000337c: 01 e9 7b d3 	lsl	x1, x8, #5
100003380: 02 01 80 52 	mov	w2, #8
100003384: fd 7b 42 a9 	ldp	x29, x30, [sp, #32]
100003388: f4 4f 41 a9 	ldp	x20, x19, [sp, #16]
10000338c: f6 57 c3 a8 	ldp	x22, x21, [sp], #48
100003390: 4b f8 ff 17 	b	0x1000014bc <___rust_dealloc>

0000000100003394 <__ZN4core3ptr86drop_in_place$LT$core..slice..sort..CopyOnDrop$LT$object..read..ObjectMapEntry$GT$$GT$17h7b43cb51212c1ef2E>:
100003394: 08 24 40 a9 	ldp	x8, x9, [x0]
100003398: 0a 11 40 f9 	ldr	x10, [x8, #32]
10000339c: 01 01 40 ad 	ldp	q1, q0, [x8]
1000033a0: 21 01 00 ad 	stp	q1, q0, [x9]
1000033a4: 2a 11 00 f9 	str	x10, [x9, #32]
1000033a8: c0 03 5f d6 	ret

00000001000033ac <__ZN4core3ptr87drop_in_place$LT$std..io..Write..write_fmt..Adapter$LT$$RF$mut$u20$$u5b$u8$u5d$$GT$$GT$17ha37ee82f04212e34E>:
1000033ac: 08 8c 40 f8 	ldr	x8, [x0, #8]!
1000033b0: 48 00 00 b4 	cbz	x8, 0x1000033b8 <__ZN4core3ptr87drop_in_place$LT$std..io..Write..write_fmt..Adapter$LT$$RF$mut$u20$$u5b$u8$u5d$$GT$$GT$17ha37ee82f04212e34E+0xc>
1000033b4: 4f fd ff 17 	b	0x1000028f0 <__ZN4core3ptr42drop_in_place$LT$std..io..error..Error$GT$17h779b7ab2fb8f1a5eE>
1000033b8: c0 03 5f d6 	ret

00000001000033bc <__ZN4core3ptr88drop_in_place$LT$alloc..vec..Vec$LT$std..backtrace_rs..symbolize..gimli..Library$GT$$GT$17h14811863cf8b791fE>:
1000033bc: f6 57 bd a9 	stp	x22, x21, [sp, #-48]!
1000033c0: f4 4f 01 a9 	stp	x20, x19, [sp, #16]
1000033c4: fd 7b 02 a9 	stp	x29, x30, [sp, #32]
1000033c8: fd 83 00 91 	add	x29, sp, #32
1000033cc: f4 03 00 aa 	mov	x20, x0
1000033d0: 13 00 40 f9 	ldr	x19, [x0]
1000033d4: 08 08 40 f9 	ldr	x8, [x0, #16]
1000033d8: c8 02 00 b4 	cbz	x8, 0x100003430 <__ZN4core3ptr88drop_in_place$LT$alloc..vec..Vec$LT$std..backtrace_rs..symbolize..gimli..Library$GT$$GT$17h14811863cf8b791fE+0x74>
1000033dc: 09 07 80 52 	mov	w9, #56
1000033e0: 15 4d 09 9b 	madd	x21, x8, x9, x19
1000033e4: 04 00 00 14 	b	0x1000033f4 <__ZN4core3ptr88drop_in_place$LT$alloc..vec..Vec$LT$std..backtrace_rs..symbolize..gimli..Library$GT$$GT$17h14811863cf8b791fE+0x38>
1000033e8: 73 e2 00 91 	add	x19, x19, #56
1000033ec: 7f 02 15 eb 	cmp	x19, x21
1000033f0: e0 01 00 54 	b.eq	0x10000342c <__ZN4core3ptr88drop_in_place$LT$alloc..vec..Vec$LT$std..backtrace_rs..symbolize..gimli..Library$GT$$GT$17h14811863cf8b791fE+0x70>
1000033f4: 61 06 40 f9 	ldr	x1, [x19, #8]
1000033f8: 81 00 00 b4 	cbz	x1, 0x100003408 <__ZN4core3ptr88drop_in_place$LT$alloc..vec..Vec$LT$std..backtrace_rs..symbolize..gimli..Library$GT$$GT$17h14811863cf8b791fE+0x4c>
1000033fc: 60 02 40 f9 	ldr	x0, [x19]
100003400: 22 00 80 52 	mov	w2, #1
100003404: 2e f8 ff 97 	bl	0x1000014bc <___rust_dealloc>
100003408: 68 12 40 f9 	ldr	x8, [x19, #32]
10000340c: 1f 01 00 f1 	cmp	x8, #0
100003410: 01 ed 7c d3 	lsl	x1, x8, #4
100003414: 24 18 40 fa 	ccmp	x1, #0, #4, ne
100003418: 80 fe ff 54 	b.eq	0x1000033e8 <__ZN4core3ptr88drop_in_place$LT$alloc..vec..Vec$LT$std..backtrace_rs..symbolize..gimli..Library$GT$$GT$17h14811863cf8b791fE+0x2c>
10000341c: 60 0e 40 f9 	ldr	x0, [x19, #24]
100003420: 02 01 80 52 	mov	w2, #8
100003424: 26 f8 ff 97 	bl	0x1000014bc <___rust_dealloc>
100003428: f0 ff ff 17 	b	0x1000033e8 <__ZN4core3ptr88drop_in_place$LT$alloc..vec..Vec$LT$std..backtrace_rs..symbolize..gimli..Library$GT$$GT$17h14811863cf8b791fE+0x2c>
10000342c: 93 02 40 f9 	ldr	x19, [x20]
100003430: 88 06 40 f9 	ldr	x8, [x20, #8]
100003434: 48 01 00 b4 	cbz	x8, 0x10000345c <__ZN4core3ptr88drop_in_place$LT$alloc..vec..Vec$LT$std..backtrace_rs..symbolize..gimli..Library$GT$$GT$17h14811863cf8b791fE+0xa0>
100003438: 09 07 80 52 	mov	w9, #56
10000343c: 01 7d 09 9b 	mul	x1, x8, x9
100003440: e1 00 00 b4 	cbz	x1, 0x10000345c <__ZN4core3ptr88drop_in_place$LT$alloc..vec..Vec$LT$std..backtrace_rs..symbolize..gimli..Library$GT$$GT$17h14811863cf8b791fE+0xa0>
100003444: e0 03 13 aa 	mov	x0, x19
100003448: 02 01 80 52 	mov	w2, #8
10000344c: fd 7b 42 a9 	ldp	x29, x30, [sp, #32]
100003450: f4 4f 41 a9 	ldp	x20, x19, [sp, #16]
100003454: f6 57 c3 a8 	ldp	x22, x21, [sp], #48
100003458: 19 f8 ff 17 	b	0x1000014bc <___rust_dealloc>
10000345c: fd 7b 42 a9 	ldp	x29, x30, [sp, #32]
100003460: f4 4f 41 a9 	ldp	x20, x19, [sp, #16]
100003464: f6 57 c3 a8 	ldp	x22, x21, [sp], #48
100003468: c0 03 5f d6 	ret

000000010000346c <__ZN4core3ptr88drop_in_place$LT$core..slice..sort..CopyOnDrop$LT$$LP$$RF$$u5b$u8$u5d$$C$u64$RP$$GT$$GT$17h02f7ba8a7b487027E>:
10000346c: 08 24 40 a9 	ldp	x8, x9, [x0]
100003470: 0a 09 40 f9 	ldr	x10, [x8, #16]
100003474: 00 01 c0 3d 	ldr	q0, [x8]
100003478: 20 01 80 3d 	str	q0, [x9]
10000347c: 2a 09 00 f9 	str	x10, [x9, #16]
100003480: c0 03 5f d6 	ret

0000000100003484 <__ZN4core3ptr88drop_in_place$LT$std..sys_common..backtrace.._print_fmt..$u7b$$u7b$closure$u7d$$u7d$$GT$17hef0d03e9caf45981E>:
100003484: e8 03 00 aa 	mov	x8, x0
100003488: 00 00 40 f9 	ldr	x0, [x0]
10000348c: a0 00 00 b4 	cbz	x0, 0x1000034a0 <__ZN4core3ptr88drop_in_place$LT$std..sys_common..backtrace.._print_fmt..$u7b$$u7b$closure$u7d$$u7d$$GT$17hef0d03e9caf45981E+0x1c>
100003490: 01 05 40 f9 	ldr	x1, [x8, #8]
100003494: 61 00 00 b4 	cbz	x1, 0x1000034a0 <__ZN4core3ptr88drop_in_place$LT$std..sys_common..backtrace.._print_fmt..$u7b$$u7b$closure$u7d$$u7d$$GT$17hef0d03e9caf45981E+0x1c>
100003498: 22 00 80 52 	mov	w2, #1
10000349c: 08 f8 ff 17 	b	0x1000014bc <___rust_dealloc>
1000034a0: c0 03 5f d6 	ret

00000001000034a4 <__ZN4core3ptr89drop_in_place$LT$alloc..boxed..Box$LT$std..sys..unix..locks..pthread_mutex..Mutex$GT$$GT$17h8d326ec15b534531E>:
1000034a4: f4 4f be a9 	stp	x20, x19, [sp, #-32]!
1000034a8: fd 7b 01 a9 	stp	x29, x30, [sp, #16]
1000034ac: fd 43 00 91 	add	x29, sp, #16
1000034b0: f3 03 00 aa 	mov	x19, x0
1000034b4: 00 00 40 f9 	ldr	x0, [x0]
1000034b8: bd b8 00 94 	bl	0x1000317ac <_writev+0x1000317ac>
1000034bc: 60 02 40 f9 	ldr	x0, [x19]
1000034c0: 01 08 80 52 	mov	w1, #64
1000034c4: 02 01 80 52 	mov	w2, #8
1000034c8: fd 7b 41 a9 	ldp	x29, x30, [sp, #16]
1000034cc: f4 4f c2 a8 	ldp	x20, x19, [sp], #32
1000034d0: fb f7 ff 17 	b	0x1000014bc <___rust_dealloc>

00000001000034d4 <__ZN4core3ptr90drop_in_place$LT$std..io..buffered..bufwriter..BufWriter$LT$W$GT$..flush_buf..BufGuard$GT$17hcc6aab17e12e0328E>:
1000034d4: f4 4f be a9 	stp	x20, x19, [sp, #-32]!
1000034d8: fd 7b 01 a9 	stp	x29, x30, [sp, #16]
1000034dc: fd 43 00 91 	add	x29, sp, #16
1000034e0: e8 03 00 aa 	mov	x8, x0
1000034e4: 00 04 40 f9 	ldr	x0, [x0, #8]
1000034e8: a0 01 00 b4 	cbz	x0, 0x10000351c <__ZN4core3ptr90drop_in_place$LT$std..io..buffered..bufwriter..BufWriter$LT$W$GT$..flush_buf..BufGuard$GT$17hcc6aab17e12e0328E+0x48>
1000034ec: 14 01 40 f9 	ldr	x20, [x8]
1000034f0: 81 0a 40 f9 	ldr	x1, [x20, #16]
1000034f4: 33 00 00 eb 	subs	x19, x1, x0
1000034f8: 83 01 00 54 	b.lo	0x100003528 <__ZN4core3ptr90drop_in_place$LT$std..io..buffered..bufwriter..BufWriter$LT$W$GT$..flush_buf..BufGuard$GT$17hcc6aab17e12e0328E+0x54>
1000034fc: 9f 0a 00 f9 	str	xzr, [x20, #16]
100003500: e0 00 00 54 	b.eq	0x10000351c <__ZN4core3ptr90drop_in_place$LT$std..io..buffered..bufwriter..BufWriter$LT$W$GT$..flush_buf..BufGuard$GT$17hcc6aab17e12e0328E+0x48>
100003504: 88 02 40 f9 	ldr	x8, [x20]
100003508: 01 01 00 8b 	add	x1, x8, x0
10000350c: e0 03 08 aa 	mov	x0, x8
100003510: e2 03 13 aa 	mov	x2, x19
100003514: 82 b8 00 94 	bl	0x10003171c <_writev+0x10003171c>
100003518: 93 0a 00 f9 	str	x19, [x20, #16]
10000351c: fd 7b 41 a9 	ldp	x29, x30, [sp, #16]
100003520: f4 4f c2 a8 	ldp	x20, x19, [sp], #32
100003524: c0 03 5f d6 	ret
100003528: 02 84 1a 10 	adr	x2, #217216
10000352c: 1f 20 03 d5 	nop
100003530: 06 b8 00 94 	bl	0x100031548 <__ZN4core5slice5index24slice_end_index_len_fail17ha148152571519510E>

0000000100003534 <__ZN4core3ptr95drop_in_place$LT$core..option..IntoIter$LT$std..backtrace_rs..symbolize..gimli..Library$GT$$GT$17h8b5314468f2f46ebE>:
100003534: f4 4f be a9 	stp	x20, x19, [sp, #-32]!
100003538: fd 7b 01 a9 	stp	x29, x30, [sp, #16]
10000353c: fd 43 00 91 	add	x29, sp, #16
100003540: f3 03 00 aa 	mov	x19, x0
100003544: 00 00 40 f9 	ldr	x0, [x0]
100003548: 40 01 00 b4 	cbz	x0, 0x100003570 <__ZN4core3ptr95drop_in_place$LT$core..option..IntoIter$LT$std..backtrace_rs..symbolize..gimli..Library$GT$$GT$17h8b5314468f2f46ebE+0x3c>
10000354c: 61 06 40 f9 	ldr	x1, [x19, #8]
100003550: 61 00 00 b4 	cbz	x1, 0x10000355c <__ZN4core3ptr95drop_in_place$LT$core..option..IntoIter$LT$std..backtrace_rs..symbolize..gimli..Library$GT$$GT$17h8b5314468f2f46ebE+0x28>
100003554: 22 00 80 52 	mov	w2, #1
100003558: d9 f7 ff 97 	bl	0x1000014bc <___rust_dealloc>
10000355c: 68 12 40 f9 	ldr	x8, [x19, #32]
100003560: 1f 01 00 f1 	cmp	x8, #0
100003564: 01 ed 7c d3 	lsl	x1, x8, #4
100003568: 24 18 40 fa 	ccmp	x1, #0, #4, ne
10000356c: 81 00 00 54 	b.ne	0x10000357c <__ZN4core3ptr95drop_in_place$LT$core..option..IntoIter$LT$std..backtrace_rs..symbolize..gimli..Library$GT$$GT$17h8b5314468f2f46ebE+0x48>
100003570: fd 7b 41 a9 	ldp	x29, x30, [sp, #16]
100003574: f4 4f c2 a8 	ldp	x20, x19, [sp], #32
100003578: c0 03 5f d6 	ret
10000357c: 60 0e 40 f9 	ldr	x0, [x19, #24]
100003580: 02 01 80 52 	mov	w2, #8
100003584: fd 7b 41 a9 	ldp	x29, x30, [sp, #16]
100003588: f4 4f c2 a8 	ldp	x20, x19, [sp], #32
10000358c: cc f7 ff 17 	b	0x1000014bc <___rust_dealloc>

0000000100003590 <__ZN4core3ptr95drop_in_place$LT$std..io..buffered..linewriter..LineWriter$LT$std..io..stdio..StdoutRaw$GT$$GT$17h62bea0c25faad2dcE>:
100003590: ff c3 00 d1 	sub	sp, sp, #48
100003594: f4 4f 01 a9 	stp	x20, x19, [sp, #16]
100003598: fd 7b 02 a9 	stp	x29, x30, [sp, #32]
10000359c: fd 83 00 91 	add	x29, sp, #32
1000035a0: f3 03 00 aa 	mov	x19, x0
1000035a4: 08 60 40 39 	ldrb	w8, [x0, #24]
1000035a8: e8 00 00 35 	cbnz	w8, 0x1000035c4 <__ZN4core3ptr95drop_in_place$LT$std..io..buffered..linewriter..LineWriter$LT$std..io..stdio..StdoutRaw$GT$$GT$17h62bea0c25faad2dcE+0x34>
1000035ac: e0 03 13 aa 	mov	x0, x19
1000035b0: df 46 00 94 	bl	0x10001512c <__ZN3std2io8buffered9bufwriter18BufWriter$LT$W$GT$9flush_buf17h5e93ddeeebac5d57E>
1000035b4: e0 07 00 f9 	str	x0, [sp, #8]
1000035b8: 60 00 00 b4 	cbz	x0, 0x1000035c4 <__ZN4core3ptr95drop_in_place$LT$std..io..buffered..linewriter..LineWriter$LT$std..io..stdio..StdoutRaw$GT$$GT$17h62bea0c25faad2dcE+0x34>
1000035bc: e0 23 00 91 	add	x0, sp, #8
1000035c0: cc fc ff 97 	bl	0x1000028f0 <__ZN4core3ptr42drop_in_place$LT$std..io..error..Error$GT$17h779b7ab2fb8f1a5eE>
1000035c4: 61 06 40 f9 	ldr	x1, [x19, #8]
1000035c8: e1 00 00 b4 	cbz	x1, 0x1000035e4 <__ZN4core3ptr95drop_in_place$LT$std..io..buffered..linewriter..LineWriter$LT$std..io..stdio..StdoutRaw$GT$$GT$17h62bea0c25faad2dcE+0x54>
1000035cc: 60 02 40 f9 	ldr	x0, [x19]
1000035d0: 22 00 80 52 	mov	w2, #1
1000035d4: fd 7b 42 a9 	ldp	x29, x30, [sp, #32]
1000035d8: f4 4f 41 a9 	ldp	x20, x19, [sp, #16]
1000035dc: ff c3 00 91 	add	sp, sp, #48
1000035e0: b7 f7 ff 17 	b	0x1000014bc <___rust_dealloc>
1000035e4: fd 7b 42 a9 	ldp	x29, x30, [sp, #32]
1000035e8: f4 4f 41 a9 	ldp	x20, x19, [sp, #16]
1000035ec: ff c3 00 91 	add	sp, sp, #48
1000035f0: c0 03 5f d6 	ret
1000035f4: f4 03 00 aa 	mov	x20, x0
1000035f8: e0 03 13 aa 	mov	x0, x19
1000035fc: 14 fd ff 97 	bl	0x100002a4c <__ZN4core3ptr46drop_in_place$LT$alloc..vec..Vec$LT$u8$GT$$GT$17hc60f7b41ca52d791E>
100003600: e0 03 14 aa 	mov	x0, x20
100003604: 07 b8 00 94 	bl	0x100031620 <_writev+0x100031620>
100003608: 92 b7 00 94 	bl	0x100031450 <__ZN4core9panicking15panic_no_unwind17ha22e330d9595cb93E>

000000010000360c <__ZN4core3str21_$LT$impl$u20$str$GT$8contains17hc998d08003e4a7adE>:
10000360c: ff 03 02 d1 	sub	sp, sp, #128
100003610: fd 7b 07 a9 	stp	x29, x30, [sp, #112]
100003614: fd c3 01 91 	add	x29, sp, #112
100003618: e8 23 00 91 	add	x8, sp, #8
10000361c: cc a7 00 94 	bl	0x10002d54c <__ZN4core3str7pattern11StrSearcher3new17h977462c61d704e55E>
100003620: e8 17 40 f9 	ldr	x8, [sp, #40]
100003624: 48 07 00 b4 	cbz	x8, 0x10000370c <__ZN4core3str21_$LT$impl$u20$str$GT$8contains17hc998d08003e4a7adE+0x100>
100003628: eb 33 40 f9 	ldr	x11, [sp, #96]
10000362c: ea 87 40 a9 	ldp	x10, x1, [sp, #8]
100003630: ef a3 41 a9 	ldp	x15, x8, [sp, #24]
100003634: 7f 05 00 b1 	cmn	x11, #1
100003638: 60 0e 00 54 	b.eq	0x100003804 <__ZN4core3str21_$LT$impl$u20$str$GT$8contains17hc998d08003e4a7adE+0x1f8>
10000363c: ec 2b 40 f9 	ldr	x12, [sp, #80]
100003640: 0d 05 00 d1 	sub	x13, x8, #1
100003644: 89 01 0d 8b 	add	x9, x12, x13
100003648: 3f 01 01 eb 	cmp	x9, x1
10000364c: 82 15 00 54 	b.hs	0x1000038fc <__ZN4core3str21_$LT$impl$u20$str$GT$8contains17hc998d08003e4a7adE+0x2f0>
100003650: f1 3b 44 a9 	ldp	x17, x14, [sp, #64]
100003654: f0 1b 40 f9 	ldr	x16, [sp, #48]
100003658: 02 01 11 cb 	sub	x2, x8, x17
10000365c: e3 03 10 cb 	neg	x3, x16
100003660: 06 00 00 14 	b	0x100003678 <__ZN4core3str21_$LT$impl$u20$str$GT$8contains17hc998d08003e4a7adE+0x6c>
100003664: 0b 00 80 d2 	mov	x11, #0
100003668: 8c 01 08 8b 	add	x12, x12, x8
10000366c: 89 01 0d 8b 	add	x9, x12, x13
100003670: 3f 01 01 eb 	cmp	x9, x1
100003674: 42 14 00 54 	b.hs	0x1000038fc <__ZN4core3str21_$LT$impl$u20$str$GT$8contains17hc998d08003e4a7adE+0x2f0>
100003678: 49 69 69 38 	ldrb	w9, [x10, x9]
10000367c: c9 25 c9 9a 	lsr	x9, x14, x9
100003680: 29 ff 07 36 	tbz	w9, #0, 0x100003664 <__ZN4core3str21_$LT$impl$u20$str$GT$8contains17hc998d08003e4a7adE+0x58>
100003684: 1f 02 0b eb 	cmp	x16, x11
100003688: 09 82 8b 9a 	csel	x9, x16, x11, hi
10000368c: e0 01 09 8b 	add	x0, x15, x9
100003690: 84 01 09 8b 	add	x4, x12, x9
100003694: 05 01 09 eb 	subs	x5, x8, x9
100003698: e5 33 85 9a 	csel	x5, xzr, x5, lo
10000369c: 85 01 00 b4 	cbz	x5, 0x1000036cc <__ZN4core3str21_$LT$impl$u20$str$GT$8contains17hc998d08003e4a7adE+0xc0>
1000036a0: 9f 00 01 eb 	cmp	x4, x1
1000036a4: 62 13 00 54 	b.hs	0x100003910 <__ZN4core3str21_$LT$impl$u20$str$GT$8contains17hc998d08003e4a7adE+0x304>
1000036a8: 06 14 40 38 	ldrb	w6, [x0], #1
1000036ac: 47 69 64 38 	ldrb	w7, [x10, x4]
1000036b0: 84 04 00 91 	add	x4, x4, #1
1000036b4: a5 04 00 d1 	sub	x5, x5, #1
1000036b8: df 00 07 6b 	cmp	w6, w7
1000036bc: 00 ff ff 54 	b.eq	0x10000369c <__ZN4core3str21_$LT$impl$u20$str$GT$8contains17hc998d08003e4a7adE+0x90>
1000036c0: 0b 00 80 d2 	mov	x11, #0
1000036c4: 6c 00 04 8b 	add	x12, x3, x4
1000036c8: e9 ff ff 17 	b	0x10000366c <__ZN4core3str21_$LT$impl$u20$str$GT$8contains17hc998d08003e4a7adE+0x60>
1000036cc: e0 03 10 aa 	mov	x0, x16
1000036d0: 7f 01 00 eb 	cmp	x11, x0
1000036d4: 82 10 00 54 	b.hs	0x1000038e4 <__ZN4core3str21_$LT$impl$u20$str$GT$8contains17hc998d08003e4a7adE+0x2d8>
1000036d8: 00 04 00 d1 	sub	x0, x0, #1
1000036dc: 1f 00 08 eb 	cmp	x0, x8
1000036e0: 82 17 00 54 	b.hs	0x1000039d0 <__ZN4core3str21_$LT$impl$u20$str$GT$8contains17hc998d08003e4a7adE+0x3c4>
1000036e4: 09 00 0c 8b 	add	x9, x0, x12
1000036e8: 3f 01 01 eb 	cmp	x9, x1
1000036ec: 62 11 00 54 	b.hs	0x100003918 <__ZN4core3str21_$LT$impl$u20$str$GT$8contains17hc998d08003e4a7adE+0x30c>
1000036f0: e4 69 60 38 	ldrb	w4, [x15, x0]
1000036f4: 49 69 69 38 	ldrb	w9, [x10, x9]
1000036f8: 9f 00 09 6b 	cmp	w4, w9
1000036fc: a0 fe ff 54 	b.eq	0x1000036d0 <__ZN4core3str21_$LT$impl$u20$str$GT$8contains17hc998d08003e4a7adE+0xc4>
100003700: 8c 01 11 8b 	add	x12, x12, x17
100003704: eb 03 02 aa 	mov	x11, x2
100003708: d9 ff ff 17 	b	0x10000366c <__ZN4core3str21_$LT$impl$u20$str$GT$8contains17hc998d08003e4a7adE+0x60>
10000370c: e8 0b 41 39 	ldrb	w8, [sp, #66]
100003710: 68 0f 00 35 	cbnz	w8, 0x1000038fc <__ZN4core3str21_$LT$impl$u20$str$GT$8contains17hc998d08003e4a7adE+0x2f0>
100003714: e0 87 40 a9 	ldp	x0, x1, [sp, #8]
100003718: e2 1b 40 f9 	ldr	x2, [sp, #48]
10000371c: e8 03 41 39 	ldrb	w8, [sp, #64]
100003720: 1f 01 00 71 	cmp	w8, #0
100003724: e9 17 9f 1a 	cset	w9, eq
100003728: 68 00 80 52 	mov	w8, #3
10000372c: 04 00 00 14 	b	0x10000373c <__ZN4core3str21_$LT$impl$u20$str$GT$8contains17hc998d08003e4a7adE+0x130>
100003730: 2a 00 80 52 	mov	w10, #1
100003734: 09 00 80 52 	mov	w9, #0
100003738: 42 01 02 8b 	add	x2, x10, x2
10000373c: 02 01 00 b4 	cbz	x2, 0x10000375c <__ZN4core3str21_$LT$impl$u20$str$GT$8contains17hc998d08003e4a7adE+0x150>
100003740: 3f 00 02 eb 	cmp	x1, x2
100003744: a9 00 00 54 	b.ls	0x100003758 <__ZN4core3str21_$LT$impl$u20$str$GT$8contains17hc998d08003e4a7adE+0x14c>
100003748: 0a 68 e2 38 	ldrsb	w10, [x0, x2]
10000374c: 5f 01 01 31 	cmn	w10, #64
100003750: 6a 00 00 54 	b.ge	0x10000375c <__ZN4core3str21_$LT$impl$u20$str$GT$8contains17hc998d08003e4a7adE+0x150>
100003754: a3 00 00 14 	b	0x1000039e0 <__ZN4core3str21_$LT$impl$u20$str$GT$8contains17hc998d08003e4a7adE+0x3d4>
100003758: 41 14 00 54 	b.ne	0x1000039e0 <__ZN4core3str21_$LT$impl$u20$str$GT$8contains17hc998d08003e4a7adE+0x3d4>
10000375c: 5f 00 01 eb 	cmp	x2, x1
100003760: c0 0c 00 54 	b.eq	0x1000038f8 <__ZN4core3str21_$LT$impl$u20$str$GT$8contains17hc998d08003e4a7adE+0x2ec>
100003764: 0c 00 02 8b 	add	x12, x0, x2
100003768: 8a 01 c0 39 	ldrsb	w10, [x12]
10000376c: 4d 1d 00 12 	and	w13, w10, #0xff
100003770: 8a 00 f8 37 	tbnz	w10, #31, 0x100003780 <__ZN4core3str21_$LT$impl$u20$str$GT$8contains17hc998d08003e4a7adE+0x174>
100003774: ea 03 0d aa 	mov	x10, x13
100003778: 09 03 00 37 	tbnz	w9, #0, 0x1000037d8 <__ZN4core3str21_$LT$impl$u20$str$GT$8contains17hc998d08003e4a7adE+0x1cc>
10000377c: 90 00 00 14 	b	0x1000039bc <__ZN4core3str21_$LT$impl$u20$str$GT$8contains17hc998d08003e4a7adE+0x3b0>
100003780: ab 11 00 12 	and	w11, w13, #0x1f
100003784: 8a 05 40 39 	ldrb	w10, [x12, #1]
100003788: 4a 15 00 12 	and	w10, w10, #0x3f
10000378c: bf 81 03 71 	cmp	w13, #224
100003790: 83 01 00 54 	b.lo	0x1000037c0 <__ZN4core3str21_$LT$impl$u20$str$GT$8contains17hc998d08003e4a7adE+0x1b4>
100003794: 8e 09 40 39 	ldrb	w14, [x12, #2]
100003798: ce 15 00 12 	and	w14, w14, #0x3f
10000379c: 4e 15 1a 33 	bfi	w14, w10, #6, #6
1000037a0: bf c1 03 71 	cmp	w13, #240
1000037a4: 43 01 00 54 	b.lo	0x1000037cc <__ZN4core3str21_$LT$impl$u20$str$GT$8contains17hc998d08003e4a7adE+0x1c0>
1000037a8: 8a 0d 40 39 	ldrb	w10, [x12, #3]
1000037ac: 4a 15 00 12 	and	w10, w10, #0x3f
1000037b0: ca 2d 1a 33 	bfi	w10, w14, #6, #12
1000037b4: 6a 09 0e 33 	bfi	w10, w11, #18, #3
1000037b8: 09 01 00 37 	tbnz	w9, #0, 0x1000037d8 <__ZN4core3str21_$LT$impl$u20$str$GT$8contains17hc998d08003e4a7adE+0x1cc>
1000037bc: 80 00 00 14 	b	0x1000039bc <__ZN4core3str21_$LT$impl$u20$str$GT$8contains17hc998d08003e4a7adE+0x3b0>
1000037c0: 6a 11 1a 33 	bfi	w10, w11, #6, #5
1000037c4: a9 00 00 37 	tbnz	w9, #0, 0x1000037d8 <__ZN4core3str21_$LT$impl$u20$str$GT$8contains17hc998d08003e4a7adE+0x1cc>
1000037c8: 7d 00 00 14 	b	0x1000039bc <__ZN4core3str21_$LT$impl$u20$str$GT$8contains17hc998d08003e4a7adE+0x3b0>
1000037cc: 6e 11 14 33 	bfi	w14, w11, #12, #5
1000037d0: ea 03 0e aa 	mov	x10, x14
1000037d4: 49 0f 00 36 	tbz	w9, #0, 0x1000039bc <__ZN4core3str21_$LT$impl$u20$str$GT$8contains17hc998d08003e4a7adE+0x3b0>
1000037d8: 5f 41 44 71 	cmp	w10, #272, lsl #12      ; =1114112
1000037dc: 00 09 00 54 	b.eq	0x1000038fc <__ZN4core3str21_$LT$impl$u20$str$GT$8contains17hc998d08003e4a7adE+0x2f0>
1000037e0: 5f 01 02 71 	cmp	w10, #128
1000037e4: 63 fa ff 54 	b.lo	0x100003730 <__ZN4core3str21_$LT$impl$u20$str$GT$8contains17hc998d08003e4a7adE+0x124>
1000037e8: 5f 01 20 71 	cmp	w10, #2048
1000037ec: 62 00 00 54 	b.hs	0x1000037f8 <__ZN4core3str21_$LT$impl$u20$str$GT$8contains17hc998d08003e4a7adE+0x1ec>
1000037f0: 4a 00 80 52 	mov	w10, #2
1000037f4: d0 ff ff 17 	b	0x100003734 <__ZN4core3str21_$LT$impl$u20$str$GT$8contains17hc998d08003e4a7adE+0x128>
1000037f8: 5f 41 40 71 	cmp	w10, #16, lsl #12       ; =65536
1000037fc: 0a 35 88 9a 	cinc	x10, x8, hs
100003800: cd ff ff 17 	b	0x100003734 <__ZN4core3str21_$LT$impl$u20$str$GT$8contains17hc998d08003e4a7adE+0x128>
100003804: eb 2b 40 f9 	ldr	x11, [sp, #80]
100003808: 0d 05 00 d1 	sub	x13, x8, #1
10000380c: 64 01 0d 8b 	add	x4, x11, x13
100003810: 9f 00 01 eb 	cmp	x4, x1
100003814: 42 07 00 54 	b.hs	0x1000038fc <__ZN4core3str21_$LT$impl$u20$str$GT$8contains17hc998d08003e4a7adE+0x2f0>
100003818: ee 27 40 f9 	ldr	x14, [sp, #72]
10000381c: ec 1b 40 f9 	ldr	x12, [sp, #48]
100003820: 9f 01 08 eb 	cmp	x12, x8
100003824: 89 81 88 9a 	csel	x9, x12, x8, hi
100003828: 80 05 00 d1 	sub	x0, x12, #1
10000382c: 1f 00 08 eb 	cmp	x0, x8
100003830: 22 08 00 54 	b.hs	0x100003934 <__ZN4core3str21_$LT$impl$u20$str$GT$8contains17hc998d08003e4a7adE+0x328>
100003834: f0 23 40 f9 	ldr	x16, [sp, #64]
100003838: f1 01 0c 8b 	add	x17, x15, x12
10000383c: 42 01 0c 8b 	add	x2, x10, x12
100003840: 83 01 09 cb 	sub	x3, x12, x9
100003844: ef 05 00 d1 	sub	x15, x15, #1
100003848: 06 00 00 14 	b	0x100003860 <__ZN4core3str21_$LT$impl$u20$str$GT$8contains17hc998d08003e4a7adE+0x254>
10000384c: 6b 01 08 8b 	add	x11, x11, x8
100003850: 09 00 80 52 	mov	w9, #0
100003854: 64 01 0d 8b 	add	x4, x11, x13
100003858: 9f 00 01 eb 	cmp	x4, x1
10000385c: 62 04 00 54 	b.hs	0x1000038e8 <__ZN4core3str21_$LT$impl$u20$str$GT$8contains17hc998d08003e4a7adE+0x2dc>
100003860: 49 69 64 38 	ldrb	w9, [x10, x4]
100003864: c9 25 c9 9a 	lsr	x9, x14, x9
100003868: 29 ff 07 36 	tbz	w9, #0, 0x10000384c <__ZN4core3str21_$LT$impl$u20$str$GT$8contains17hc998d08003e4a7adE+0x240>
10000386c: 09 00 80 d2 	mov	x9, #0
100003870: 40 00 0b 8b 	add	x0, x2, x11
100003874: 84 01 0b 8b 	add	x4, x12, x11
100003878: 7f 00 09 ab 	cmn	x3, x9
10000387c: 60 01 00 54 	b.eq	0x1000038a8 <__ZN4core3str21_$LT$impl$u20$str$GT$8contains17hc998d08003e4a7adE+0x29c>
100003880: 85 00 09 8b 	add	x5, x4, x9
100003884: bf 00 01 eb 	cmp	x5, x1
100003888: c2 08 00 54 	b.hs	0x1000039a0 <__ZN4core3str21_$LT$impl$u20$str$GT$8contains17hc998d08003e4a7adE+0x394>
10000388c: 25 6a 69 38 	ldrb	w5, [x17, x9]
100003890: 06 68 69 38 	ldrb	w6, [x0, x9]
100003894: 29 05 00 91 	add	x9, x9, #1
100003898: bf 00 06 6b 	cmp	w5, w6
10000389c: e0 fe ff 54 	b.eq	0x100003878 <__ZN4core3str21_$LT$impl$u20$str$GT$8contains17hc998d08003e4a7adE+0x26c>
1000038a0: 6b 01 09 8b 	add	x11, x11, x9
1000038a4: eb ff ff 17 	b	0x100003850 <__ZN4core3str21_$LT$impl$u20$str$GT$8contains17hc998d08003e4a7adE+0x244>
1000038a8: 49 01 0b 8b 	add	x9, x10, x11
1000038ac: e4 03 0c aa 	mov	x4, x12
1000038b0: 64 08 00 b4 	cbz	x4, 0x1000039bc <__ZN4core3str21_$LT$impl$u20$str$GT$8contains17hc998d08003e4a7adE+0x3b0>
1000038b4: 60 01 04 8b 	add	x0, x11, x4
1000038b8: 00 04 00 d1 	sub	x0, x0, #1
1000038bc: 1f 00 01 eb 	cmp	x0, x1
1000038c0: 42 03 00 54 	b.hs	0x100003928 <__ZN4core3str21_$LT$impl$u20$str$GT$8contains17hc998d08003e4a7adE+0x31c>
1000038c4: e0 69 64 38 	ldrb	w0, [x15, x4]
1000038c8: 25 01 04 8b 	add	x5, x9, x4
1000038cc: a5 f0 5f 38 	ldurb	w5, [x5, #-1]
1000038d0: 84 04 00 d1 	sub	x4, x4, #1
1000038d4: 1f 00 05 6b 	cmp	w0, w5
1000038d8: c0 fe ff 54 	b.eq	0x1000038b0 <__ZN4core3str21_$LT$impl$u20$str$GT$8contains17hc998d08003e4a7adE+0x2a4>
1000038dc: 6b 01 10 8b 	add	x11, x11, x16
1000038e0: dc ff ff 17 	b	0x100003850 <__ZN4core3str21_$LT$impl$u20$str$GT$8contains17hc998d08003e4a7adE+0x244>
1000038e4: 29 00 80 52 	mov	w9, #1
1000038e8: e0 03 09 aa 	mov	x0, x9
1000038ec: fd 7b 47 a9 	ldp	x29, x30, [sp, #112]
1000038f0: ff 03 02 91 	add	sp, sp, #128
1000038f4: c0 03 5f d6 	ret
1000038f8: 29 06 00 36 	tbz	w9, #0, 0x1000039bc <__ZN4core3str21_$LT$impl$u20$str$GT$8contains17hc998d08003e4a7adE+0x3b0>
1000038fc: 09 00 80 52 	mov	w9, #0
100003900: e0 03 09 aa 	mov	x0, x9
100003904: fd 7b 47 a9 	ldp	x29, x30, [sp, #112]
100003908: ff 03 02 91 	add	sp, sp, #128
10000390c: c0 03 5f d6 	ret
100003910: 28 01 0c 8b 	add	x8, x9, x12
100003914: 24 00 00 14 	b	0x1000039a4 <__ZN4core3str21_$LT$impl$u20$str$GT$8contains17hc998d08003e4a7adE+0x398>
100003918: 02 53 1a 10 	adr	x2, #215648
10000391c: 1f 20 03 d5 	nop
100003920: e0 03 09 aa 	mov	x0, x9
100003924: b7 b6 00 94 	bl	0x100031400 <__ZN4core9panicking18panic_bounds_check17h54a3444ed599ccd1E>
100003928: 82 52 1a 10 	adr	x2, #215632
10000392c: 1f 20 03 d5 	nop
100003930: b4 b6 00 94 	bl	0x100031400 <__ZN4core9panicking18panic_bounds_check17h54a3444ed599ccd1E>
100003934: ef 01 0c 8b 	add	x15, x15, x12
100003938: 50 01 0c 8b 	add	x16, x10, x12
10000393c: 91 01 09 cb 	sub	x17, x12, x9
100003940: 49 69 64 38 	ldrb	w9, [x10, x4]
100003944: c9 25 c9 9a 	lsr	x9, x14, x9
100003948: 09 02 00 36 	tbz	w9, #0, 0x100003988 <__ZN4core3str21_$LT$impl$u20$str$GT$8contains17hc998d08003e4a7adE+0x37c>
10000394c: 09 00 80 d2 	mov	x9, #0
100003950: 02 02 0b 8b 	add	x2, x16, x11
100003954: 83 01 0b 8b 	add	x3, x12, x11
100003958: 3f 02 09 ab 	cmn	x17, x9
10000395c: e0 02 00 54 	b.eq	0x1000039b8 <__ZN4core3str21_$LT$impl$u20$str$GT$8contains17hc998d08003e4a7adE+0x3ac>
100003960: 64 00 09 8b 	add	x4, x3, x9
100003964: 9f 00 01 eb 	cmp	x4, x1
100003968: c2 01 00 54 	b.hs	0x1000039a0 <__ZN4core3str21_$LT$impl$u20$str$GT$8contains17hc998d08003e4a7adE+0x394>
10000396c: e4 69 69 38 	ldrb	w4, [x15, x9]
100003970: 45 68 69 38 	ldrb	w5, [x2, x9]
100003974: 29 05 00 91 	add	x9, x9, #1
100003978: 9f 00 05 6b 	cmp	w4, w5
10000397c: e0 fe ff 54 	b.eq	0x100003958 <__ZN4core3str21_$LT$impl$u20$str$GT$8contains17hc998d08003e4a7adE+0x34c>
100003980: 6b 01 09 8b 	add	x11, x11, x9
100003984: 02 00 00 14 	b	0x10000398c <__ZN4core3str21_$LT$impl$u20$str$GT$8contains17hc998d08003e4a7adE+0x380>
100003988: 6b 01 08 8b 	add	x11, x11, x8
10000398c: 09 00 80 52 	mov	w9, #0
100003990: 64 01 0d 8b 	add	x4, x11, x13
100003994: 9f 00 01 eb 	cmp	x4, x1
100003998: 43 fd ff 54 	b.lo	0x100003940 <__ZN4core3str21_$LT$impl$u20$str$GT$8contains17hc998d08003e4a7adE+0x334>
10000399c: d3 ff ff 17 	b	0x1000038e8 <__ZN4core3str21_$LT$impl$u20$str$GT$8contains17hc998d08003e4a7adE+0x2dc>
1000039a0: 68 01 0c 8b 	add	x8, x11, x12
1000039a4: 3f 00 08 eb 	cmp	x1, x8
1000039a8: 20 80 88 9a 	csel	x0, x1, x8, hi
1000039ac: e2 4c 1a 10 	adr	x2, #215452
1000039b0: 1f 20 03 d5 	nop
1000039b4: 93 b6 00 94 	bl	0x100031400 <__ZN4core9panicking18panic_bounds_check17h54a3444ed599ccd1E>
1000039b8: cc 00 00 b5 	cbnz	x12, 0x1000039d0 <__ZN4core3str21_$LT$impl$u20$str$GT$8contains17hc998d08003e4a7adE+0x3c4>
1000039bc: 29 00 80 52 	mov	w9, #1
1000039c0: e0 03 09 aa 	mov	x0, x9
1000039c4: fd 7b 47 a9 	ldp	x29, x30, [sp, #112]
1000039c8: ff 03 02 91 	add	sp, sp, #128
1000039cc: c0 03 5f d6 	ret
1000039d0: 82 4c 1a 10 	adr	x2, #215440
1000039d4: 1f 20 03 d5 	nop
1000039d8: e1 03 08 aa 	mov	x1, x8
1000039dc: 89 b6 00 94 	bl	0x100031400 <__ZN4core9panicking18panic_bounds_check17h54a3444ed599ccd1E>
1000039e0: 84 6b 1a 10 	adr	x4, #216432
1000039e4: 1f 20 03 d5 	nop
1000039e8: e3 03 01 aa 	mov	x3, x1
1000039ec: eb b6 00 94 	bl	0x100031598 <__ZN4core3str16slice_error_fail17h2805d168fae0f9a7E>

00000001000039f0 <__ZN4core5slice4sort10shift_tail17h715b357f8599b822E>:
1000039f0: fa 67 bb a9 	stp	x26, x25, [sp, #-80]!
1000039f4: f8 5f 01 a9 	stp	x24, x23, [sp, #16]
1000039f8: f6 57 02 a9 	stp	x22, x21, [sp, #32]
1000039fc: f4 4f 03 a9 	stp	x20, x19, [sp, #48]
100003a00: fd 7b 04 a9 	stp	x29, x30, [sp, #64]
100003a04: fd 03 01 91 	add	x29, sp, #64
100003a08: 37 08 00 f1 	subs	x23, x1, #2
100003a0c: e3 01 00 54 	b.lo	0x100003a48 <__ZN4core5slice4sort10shift_tail17h715b357f8599b822E+0x58>
100003a10: f5 03 01 aa 	mov	x21, x1
100003a14: f4 03 00 aa 	mov	x20, x0
100003a18: 08 03 80 52 	mov	w8, #24
100003a1c: 39 00 08 9b 	madd	x25, x1, x8, x0
100003a20: 33 db fe a9 	ldp	x19, x22, [x25, #-24]!
100003a24: 21 a3 7e a9 	ldp	x1, x8, [x25, #-24]
100003a28: d8 02 08 eb 	subs	x24, x22, x8
100003a2c: c2 32 88 9a 	csel	x2, x22, x8, lo
100003a30: e0 03 13 aa 	mov	x0, x19
100003a34: 34 b7 00 94 	bl	0x100031704 <_writev+0x100031704>
100003a38: 08 7c 40 93 	sxtw	x8, w0
100003a3c: 1f 00 00 71 	cmp	w0, #0
100003a40: 08 03 88 9a 	csel	x8, x24, x8, eq
100003a44: e8 00 f8 b7 	tbnz	x8, #63, 0x100003a60 <__ZN4core5slice4sort10shift_tail17h715b357f8599b822E+0x70>
100003a48: fd 7b 44 a9 	ldp	x29, x30, [sp, #64]
100003a4c: f4 4f 43 a9 	ldp	x20, x19, [sp, #48]
100003a50: f6 57 42 a9 	ldp	x22, x21, [sp, #32]
100003a54: f8 5f 41 a9 	ldp	x24, x23, [sp, #16]
100003a58: fa 67 c5 a8 	ldp	x26, x25, [sp], #80
100003a5c: c0 03 5f d6 	ret
100003a60: a8 06 00 d1 	sub	x8, x21, #1
100003a64: 09 03 80 52 	mov	w9, #24
100003a68: 08 51 09 9b 	madd	x8, x8, x9, x20
100003a6c: 18 09 40 f9 	ldr	x24, [x8, #16]
100003a70: e8 52 09 9b 	madd	x8, x23, x9, x20
100003a74: 00 01 c0 3d 	ldr	q0, [x8]
100003a78: 20 03 80 3d 	str	q0, [x25]
100003a7c: 09 09 40 f9 	ldr	x9, [x8, #16]
100003a80: 29 0b 00 f9 	str	x9, [x25, #16]
100003a84: f7 02 00 b4 	cbz	x23, 0x100003ae0 <__ZN4core5slice4sort10shift_tail17h715b357f8599b822E+0xf0>
100003a88: 08 03 80 52 	mov	w8, #24
100003a8c: a8 52 08 9b 	madd	x8, x21, x8, x20
100003a90: 15 21 01 d1 	sub	x21, x8, #72
100003a94: a1 22 40 a9 	ldp	x1, x8, [x21]
100003a98: d9 02 08 eb 	subs	x25, x22, x8
100003a9c: c2 32 88 9a 	csel	x2, x22, x8, lo
100003aa0: e0 03 13 aa 	mov	x0, x19
100003aa4: 18 b7 00 94 	bl	0x100031704 <_writev+0x100031704>
100003aa8: 08 7c 40 93 	sxtw	x8, w0
100003aac: 1f 00 00 71 	cmp	w0, #0
100003ab0: 28 03 88 9a 	csel	x8, x25, x8, eq
100003ab4: 48 01 f8 b6 	tbz	x8, #63, 0x100003adc <__ZN4core5slice4sort10shift_tail17h715b357f8599b822E+0xec>
100003ab8: a0 02 c0 3d 	ldr	q0, [x21]
100003abc: a0 82 81 3c 	stur	q0, [x21, #24]
100003ac0: a8 0a 40 f9 	ldr	x8, [x21, #16]
100003ac4: a8 16 00 f9 	str	x8, [x21, #40]
100003ac8: b5 62 00 d1 	sub	x21, x21, #24
100003acc: f7 06 00 d1 	sub	x23, x23, #1
100003ad0: 37 fe ff b5 	cbnz	x23, 0x100003a94 <__ZN4core5slice4sort10shift_tail17h715b357f8599b822E+0xa4>
100003ad4: e8 03 14 aa 	mov	x8, x20
100003ad8: 02 00 00 14 	b	0x100003ae0 <__ZN4core5slice4sort10shift_tail17h715b357f8599b822E+0xf0>
100003adc: a8 62 00 91 	add	x8, x21, #24
100003ae0: 13 59 00 a9 	stp	x19, x22, [x8]
100003ae4: 18 09 00 f9 	str	x24, [x8, #16]
100003ae8: fd 7b 44 a9 	ldp	x29, x30, [sp, #64]
100003aec: f4 4f 43 a9 	ldp	x20, x19, [sp, #48]
100003af0: f6 57 42 a9 	ldp	x22, x21, [sp, #32]
100003af4: f8 5f 41 a9 	ldp	x24, x23, [sp, #16]
100003af8: fa 67 c5 a8 	ldp	x26, x25, [sp], #80
100003afc: c0 03 5f d6 	ret

0000000100003b00 <__ZN4core5slice4sort12choose_pivot28_$u7b$$u7b$closure$u7d$$u7d$17h019b65396bce466eE>:
100003b00: ff c3 01 d1 	sub	sp, sp, #112
100003b04: fc 6f 01 a9 	stp	x28, x27, [sp, #16]
100003b08: fa 67 02 a9 	stp	x26, x25, [sp, #32]
100003b0c: f8 5f 03 a9 	stp	x24, x23, [sp, #48]
100003b10: f6 57 04 a9 	stp	x22, x21, [sp, #64]
100003b14: f4 4f 05 a9 	stp	x20, x19, [sp, #80]
100003b18: fd 7b 06 a9 	stp	x29, x30, [sp, #96]
100003b1c: fd 83 01 91 	add	x29, sp, #96
100003b20: f5 03 03 aa 	mov	x21, x3
100003b24: f3 03 02 aa 	mov	x19, x2
100003b28: f4 03 01 aa 	mov	x20, x1
100003b2c: 17 00 40 f9 	ldr	x23, [x0]
100003b30: f9 06 40 f9 	ldr	x25, [x23, #8]
100003b34: 58 00 40 f9 	ldr	x24, [x2]
100003b38: 3c 00 40 f9 	ldr	x28, [x1]
100003b3c: 08 03 80 52 	mov	w8, #24
100003b40: 09 67 08 9b 	madd	x9, x24, x8, x25
100003b44: 36 6d 40 a9 	ldp	x22, x27, [x9]
100003b48: 88 67 08 9b 	madd	x8, x28, x8, x25
100003b4c: 01 21 40 a9 	ldp	x1, x8, [x8]
100003b50: 7a 03 08 eb 	subs	x26, x27, x8
100003b54: 62 33 88 9a 	csel	x2, x27, x8, lo
100003b58: e0 03 16 aa 	mov	x0, x22
100003b5c: ea b6 00 94 	bl	0x100031704 <_writev+0x100031704>
100003b60: 08 7c 40 93 	sxtw	x8, w0
100003b64: 1f 00 00 71 	cmp	w0, #0
100003b68: 48 03 88 9a 	csel	x8, x26, x8, eq
100003b6c: f4 07 00 f9 	str	x20, [sp, #8]
100003b70: 68 00 f8 b7 	tbnz	x8, #63, 0x100003b7c <__ZN4core5slice4sort12choose_pivot28_$u7b$$u7b$closure$u7d$$u7d$17h019b65396bce466eE+0x7c>
100003b74: fa 03 1c aa 	mov	x26, x28
100003b78: 0d 00 00 14 	b	0x100003bac <__ZN4core5slice4sort12choose_pivot28_$u7b$$u7b$closure$u7d$$u7d$17h019b65396bce466eE+0xac>
100003b7c: 98 02 00 f9 	str	x24, [x20]
100003b80: 7c 02 00 f9 	str	x28, [x19]
100003b84: e8 0e 40 f9 	ldr	x8, [x23, #24]
100003b88: 09 01 40 f9 	ldr	x9, [x8]
100003b8c: 29 05 00 91 	add	x9, x9, #1
100003b90: 09 01 00 f9 	str	x9, [x8]
100003b94: f9 06 40 f9 	ldr	x25, [x23, #8]
100003b98: 08 03 80 52 	mov	w8, #24
100003b9c: 88 67 08 9b 	madd	x8, x28, x8, x25
100003ba0: 16 6d 40 a9 	ldp	x22, x27, [x8]
100003ba4: fa 03 18 aa 	mov	x26, x24
100003ba8: f8 03 1c aa 	mov	x24, x28
100003bac: bc 02 40 f9 	ldr	x28, [x21]
100003bb0: 08 03 80 52 	mov	w8, #24
100003bb4: 88 67 08 9b 	madd	x8, x28, x8, x25
100003bb8: 00 21 40 a9 	ldp	x0, x8, [x8]
100003bbc: 14 01 1b eb 	subs	x20, x8, x27
100003bc0: 02 31 9b 9a 	csel	x2, x8, x27, lo
100003bc4: e1 03 16 aa 	mov	x1, x22
100003bc8: cf b6 00 94 	bl	0x100031704 <_writev+0x100031704>
100003bcc: 08 7c 40 93 	sxtw	x8, w0
100003bd0: 1f 00 00 71 	cmp	w0, #0
100003bd4: 88 02 88 9a 	csel	x8, x20, x8, eq
100003bd8: 88 01 f8 b6 	tbz	x8, #63, 0x100003c08 <__ZN4core5slice4sort12choose_pivot28_$u7b$$u7b$closure$u7d$$u7d$17h019b65396bce466eE+0x108>
100003bdc: 7c 02 00 f9 	str	x28, [x19]
100003be0: b8 02 00 f9 	str	x24, [x21]
100003be4: e8 0e 40 f9 	ldr	x8, [x23, #24]
100003be8: 09 01 40 f9 	ldr	x9, [x8]
100003bec: 29 05 00 91 	add	x9, x9, #1
100003bf0: 09 01 00 f9 	str	x9, [x8]
100003bf4: f9 06 40 f9 	ldr	x25, [x23, #8]
100003bf8: 08 03 80 52 	mov	w8, #24
100003bfc: 88 67 08 9b 	madd	x8, x28, x8, x25
100003c00: 16 6d 40 a9 	ldp	x22, x27, [x8]
100003c04: f8 03 1c aa 	mov	x24, x28
100003c08: 08 03 80 52 	mov	w8, #24
100003c0c: 48 67 08 9b 	madd	x8, x26, x8, x25
100003c10: 01 21 40 a9 	ldp	x1, x8, [x8]
100003c14: 74 03 08 eb 	subs	x20, x27, x8
100003c18: 62 33 88 9a 	csel	x2, x27, x8, lo
100003c1c: e0 03 16 aa 	mov	x0, x22
100003c20: b9 b6 00 94 	bl	0x100031704 <_writev+0x100031704>
100003c24: 08 7c 40 93 	sxtw	x8, w0
100003c28: 1f 00 00 71 	cmp	w0, #0
100003c2c: 88 02 88 9a 	csel	x8, x20, x8, eq
100003c30: 08 01 f8 b6 	tbz	x8, #63, 0x100003c50 <__ZN4core5slice4sort12choose_pivot28_$u7b$$u7b$closure$u7d$$u7d$17h019b65396bce466eE+0x150>
100003c34: e8 07 40 f9 	ldr	x8, [sp, #8]
100003c38: 18 01 00 f9 	str	x24, [x8]
100003c3c: 7a 02 00 f9 	str	x26, [x19]
100003c40: e8 0e 40 f9 	ldr	x8, [x23, #24]
100003c44: 09 01 40 f9 	ldr	x9, [x8]
100003c48: 29 05 00 91 	add	x9, x9, #1
100003c4c: 09 01 00 f9 	str	x9, [x8]
100003c50: fd 7b 46 a9 	ldp	x29, x30, [sp, #96]
100003c54: f4 4f 45 a9 	ldp	x20, x19, [sp, #80]
100003c58: f6 57 44 a9 	ldp	x22, x21, [sp, #64]
100003c5c: f8 5f 43 a9 	ldp	x24, x23, [sp, #48]
100003c60: fa 67 42 a9 	ldp	x26, x25, [sp, #32]
100003c64: fc 6f 41 a9 	ldp	x28, x27, [sp, #16]
100003c68: ff c3 01 91 	add	sp, sp, #112
100003c6c: c0 03 5f d6 	ret

0000000100003c70 <__ZN4core5slice4sort7recurse17h06c1754ae91d4411E>:
100003c70: ff 03 07 d1 	sub	sp, sp, #448
100003c74: fc 6f 16 a9 	stp	x28, x27, [sp, #352]
100003c78: fa 67 17 a9 	stp	x26, x25, [sp, #368]
100003c7c: f8 5f 18 a9 	stp	x24, x23, [sp, #384]
100003c80: f6 57 19 a9 	stp	x22, x21, [sp, #400]
100003c84: f4 4f 1a a9 	stp	x20, x19, [sp, #416]
100003c88: fd 7b 1b a9 	stp	x29, x30, [sp, #432]
100003c8c: fd c3 06 91 	add	x29, sp, #432
100003c90: e2 07 00 f9 	str	x2, [sp, #8]
100003c94: f7 03 01 aa 	mov	x23, x1
100003c98: f3 03 00 aa 	mov	x19, x0
100003c9c: 3f 54 00 f1 	cmp	x1, #21
100003ca0: 62 00 00 54 	b.hs	0x100003cac <__ZN4core5slice4sort7recurse17h06c1754ae91d4411E+0x3c>
100003ca4: fa 03 17 aa 	mov	x26, x23
100003ca8: 12 02 00 14 	b	0x1000044f0 <__ZN4core5slice4sort7recurse17h06c1754ae91d4411E+0x880>
100003cac: f5 03 04 aa 	mov	x21, x4
100003cb0: f6 03 03 aa 	mov	x22, x3
100003cb4: 21 00 80 52 	mov	w1, #1
100003cb8: 1c 03 80 52 	mov	w28, #24
100003cbc: 3b 00 80 52 	mov	w27, #1
100003cc0: 34 00 80 52 	mov	w20, #1
100003cc4: 74 03 14 0a 	and	w20, w27, w20
100003cc8: f8 03 13 aa 	mov	x24, x19
100003ccc: f9 03 17 aa 	mov	x25, x23
100003cd0: 35 47 00 34 	cbz	w21, 0x1000045b4 <__ZN4core5slice4sort7recurse17h06c1754ae91d4411E+0x944>
100003cd4: 7b 08 00 36 	tbz	w27, #0, 0x100003de0 <__ZN4core5slice4sort7recurse17h06c1754ae91d4411E+0x170>
100003cd8: 29 ff 42 d3 	lsr	x9, x25, #2
100003cdc: 2a f9 7f d3 	lsl	x10, x9, #1
100003ce0: 48 01 09 8b 	add	x8, x10, x9
100003ce4: 3f c7 00 f1 	cmp	x25, #49
100003ce8: 09 09 00 54 	b.ls	0x100003e08 <__ZN4core5slice4sort7recurse17h06c1754ae91d4411E+0x198>
100003cec: 2b 05 00 d1 	sub	x11, x9, #1
100003cf0: 2c 05 00 91 	add	x12, x9, #1
100003cf4: 2d 61 1c 9b 	madd	x13, x9, x28, x24
100003cf8: ae 09 40 f9 	ldr	x14, [x13, #16]
100003cfc: ad 81 5f f8 	ldur	x13, [x13, #-8]
100003d00: df 01 0d eb 	cmp	x14, x13
100003d04: af 21 8e 9a 	csel	x15, x13, x14, hs
100003d08: f0 23 81 9a 	csel	x16, xzr, x1, hs
100003d0c: 31 21 8b 9a 	csel	x17, x9, x11, hs
100003d10: 69 21 89 9a 	csel	x9, x11, x9, hs
100003d14: cb 21 8d 9a 	csel	x11, x14, x13, hs
100003d18: 8d 61 1c 9b 	madd	x13, x12, x28, x24
100003d1c: ad 09 40 f9 	ldr	x13, [x13, #16]
100003d20: bf 01 0b eb 	cmp	x13, x11
100003d24: 8c 31 91 9a 	csel	x12, x12, x17, lo
100003d28: 0e 26 90 9a 	cinc	x14, x16, lo
100003d2c: ab 31 8b 9a 	csel	x11, x13, x11, lo
100003d30: 7f 01 0f eb 	cmp	x11, x15
100003d34: 29 31 8c 9a 	csel	x9, x9, x12, lo
100003d38: cb 25 8e 9a 	cinc	x11, x14, lo
100003d3c: 4c 05 00 d1 	sub	x12, x10, #1
100003d40: 4d 01 40 b2 	orr	x13, x10, #0x1
100003d44: 4e 61 1c 9b 	madd	x14, x10, x28, x24
100003d48: cf 09 40 f9 	ldr	x15, [x14, #16]
100003d4c: ce 81 5f f8 	ldur	x14, [x14, #-8]
100003d50: ff 01 0e eb 	cmp	x15, x14
100003d54: d0 21 8f 9a 	csel	x16, x14, x15, hs
100003d58: 6b 25 8b 9a 	cinc	x11, x11, lo
100003d5c: 51 21 8c 9a 	csel	x17, x10, x12, hs
100003d60: 8a 21 8a 9a 	csel	x10, x12, x10, hs
100003d64: ec 21 8e 9a 	csel	x12, x15, x14, hs
100003d68: ae 61 1c 9b 	madd	x14, x13, x28, x24
100003d6c: ce 09 40 f9 	ldr	x14, [x14, #16]
100003d70: df 01 0c eb 	cmp	x14, x12
100003d74: ad 31 91 9a 	csel	x13, x13, x17, lo
100003d78: 6b 25 8b 9a 	cinc	x11, x11, lo
100003d7c: cc 31 8c 9a 	csel	x12, x14, x12, lo
100003d80: 9f 01 10 eb 	cmp	x12, x16
100003d84: 4a 31 8d 9a 	csel	x10, x10, x13, lo
100003d88: 6b 25 8b 9a 	cinc	x11, x11, lo
100003d8c: 0c 05 00 d1 	sub	x12, x8, #1
100003d90: 0d 05 00 91 	add	x13, x8, #1
100003d94: 0e 61 1c 9b 	madd	x14, x8, x28, x24
100003d98: cf 09 40 f9 	ldr	x15, [x14, #16]
100003d9c: ce 81 5f f8 	ldur	x14, [x14, #-8]
100003da0: ff 01 0e eb 	cmp	x15, x14
100003da4: d0 21 8f 9a 	csel	x16, x14, x15, hs
100003da8: 6b 25 8b 9a 	cinc	x11, x11, lo
100003dac: 11 21 8c 9a 	csel	x17, x8, x12, hs
100003db0: 88 21 88 9a 	csel	x8, x12, x8, hs
100003db4: ec 21 8e 9a 	csel	x12, x15, x14, hs
100003db8: ae 61 1c 9b 	madd	x14, x13, x28, x24
100003dbc: ce 09 40 f9 	ldr	x14, [x14, #16]
100003dc0: df 01 0c eb 	cmp	x14, x12
100003dc4: ad 31 91 9a 	csel	x13, x13, x17, lo
100003dc8: 6b 25 8b 9a 	cinc	x11, x11, lo
100003dcc: cc 31 8c 9a 	csel	x12, x14, x12, lo
100003dd0: 9f 01 10 eb 	cmp	x12, x16
100003dd4: 08 31 8d 9a 	csel	x8, x8, x13, lo
100003dd8: 6b 25 8b 9a 	cinc	x11, x11, lo
100003ddc: 0c 00 00 14 	b	0x100003e0c <__ZN4core5slice4sort7recurse17h06c1754ae91d4411E+0x19c>
100003de0: e0 03 18 aa 	mov	x0, x24
100003de4: e1 03 19 aa 	mov	x1, x25
100003de8: 32 ae 00 94 	bl	0x10002f6b0 <__ZN4core5slice4sort14break_patterns17h05c084840c207480E>
100003dec: 21 00 80 52 	mov	w1, #1
100003df0: b5 06 00 51 	sub	w21, w21, #1
100003df4: 29 ff 42 d3 	lsr	x9, x25, #2
100003df8: 2a f9 7f d3 	lsl	x10, x9, #1
100003dfc: 48 01 09 8b 	add	x8, x10, x9
100003e00: 3f c7 00 f1 	cmp	x25, #49
100003e04: 48 f7 ff 54 	b.hi	0x100003cec <__ZN4core5slice4sort7recurse17h06c1754ae91d4411E+0x7c>
100003e08: 0b 00 80 d2 	mov	x11, #0
100003e0c: 4c 61 1c 9b 	madd	x12, x10, x28, x24
100003e10: 8c 09 40 f9 	ldr	x12, [x12, #16]
100003e14: 2d 61 1c 9b 	madd	x13, x9, x28, x24
100003e18: ad 09 40 f9 	ldr	x13, [x13, #16]
100003e1c: 9f 01 0d eb 	cmp	x12, x13
100003e20: ae 21 8c 9a 	csel	x14, x13, x12, hs
100003e24: 6b 25 8b 9a 	cinc	x11, x11, lo
100003e28: 4f 21 89 9a 	csel	x15, x10, x9, hs
100003e2c: 3a 21 8a 9a 	csel	x26, x9, x10, hs
100003e30: 8a 21 8d 9a 	csel	x10, x12, x13, hs
100003e34: 09 61 1c 9b 	madd	x9, x8, x28, x24
100003e38: 2c 09 40 f9 	ldr	x12, [x9, #16]
100003e3c: 9f 01 0a eb 	cmp	x12, x10
100003e40: 09 31 8f 9a 	csel	x9, x8, x15, lo
100003e44: 68 25 8b 9a 	cinc	x8, x11, lo
100003e48: 8a 31 8a 9a 	csel	x10, x12, x10, lo
100003e4c: 5f 01 0e eb 	cmp	x10, x14
100003e50: 22 01 00 54 	b.hs	0x100003e74 <__ZN4core5slice4sort7recurse17h06c1754ae91d4411E+0x204>
100003e54: 1f 2d 00 f1 	cmp	x8, #11
100003e58: a2 01 00 54 	b.hs	0x100003e8c <__ZN4core5slice4sort7recurse17h06c1754ae91d4411E+0x21c>
100003e5c: 08 05 00 91 	add	x8, x8, #1
100003e60: 1f 01 00 f1 	cmp	x8, #0
100003e64: e8 17 9f 1a 	cset	w8, eq
100003e68: 88 02 08 0a 	and	w8, w20, w8
100003e6c: e8 03 00 36 	tbz	w8, #0, 0x100003ee8 <__ZN4core5slice4sort7recurse17h06c1754ae91d4411E+0x278>
100003e70: 6c 00 00 14 	b	0x100004020 <__ZN4core5slice4sort7recurse17h06c1754ae91d4411E+0x3b0>
100003e74: fa 03 09 aa 	mov	x26, x9
100003e78: 1f 01 00 f1 	cmp	x8, #0
100003e7c: e8 17 9f 1a 	cset	w8, eq
100003e80: 88 02 08 0a 	and	w8, w20, w8
100003e84: 28 03 00 36 	tbz	w8, #0, 0x100003ee8 <__ZN4core5slice4sort7recurse17h06c1754ae91d4411E+0x278>
100003e88: 66 00 00 14 	b	0x100004020 <__ZN4core5slice4sort7recurse17h06c1754ae91d4411E+0x3b0>
100003e8c: 28 ff 41 d3 	lsr	x8, x25, #1
100003e90: 29 63 1c 9b 	madd	x9, x25, x28, x24
100003e94: 29 61 00 d1 	sub	x9, x9, #24
100003e98: ea 03 18 aa 	mov	x10, x24
100003e9c: 40 01 c0 3d 	ldr	q0, [x10]
100003ea0: 4b 09 40 f9 	ldr	x11, [x10, #16]
100003ea4: eb 6b 00 f9 	str	x11, [sp, #208]
100003ea8: e0 33 80 3d 	str	q0, [sp, #192]
100003eac: 20 01 c0 3d 	ldr	q0, [x9]
100003eb0: 2b 09 40 f9 	ldr	x11, [x9, #16]
100003eb4: 4b 09 00 f9 	str	x11, [x10, #16]
100003eb8: 40 85 81 3c 	str	q0, [x10], #24
100003ebc: e0 33 c0 3d 	ldr	q0, [sp, #192]
100003ec0: eb 6b 40 f9 	ldr	x11, [sp, #208]
100003ec4: 2b 09 00 f9 	str	x11, [x9, #16]
100003ec8: 20 85 9e 3c 	str	q0, [x9], #-24
100003ecc: 08 05 00 d1 	sub	x8, x8, #1
100003ed0: 68 fe ff b5 	cbnz	x8, 0x100003e9c <__ZN4core5slice4sort7recurse17h06c1754ae91d4411E+0x22c>
100003ed4: e8 03 3a aa 	mvn	x8, x26
100003ed8: 3a 03 08 8b 	add	x26, x25, x8
100003edc: 28 00 80 52 	mov	w8, #1
100003ee0: 88 02 08 0a 	and	w8, w20, w8
100003ee4: e8 09 00 37 	tbnz	w8, #0, 0x100004020 <__ZN4core5slice4sort7recurse17h06c1754ae91d4411E+0x3b0>
100003ee8: d6 0a 00 b4 	cbz	x22, 0x100004040 <__ZN4core5slice4sort7recurse17h06c1754ae91d4411E+0x3d0>
100003eec: 5f 03 19 eb 	cmp	x26, x25
100003ef0: a2 37 00 54 	b.hs	0x1000045e4 <__ZN4core5slice4sort7recurse17h06c1754ae91d4411E+0x974>
100003ef4: c8 0a 40 f9 	ldr	x8, [x22, #16]
100003ef8: 49 63 1c 9b 	madd	x9, x26, x28, x24
100003efc: 29 09 40 f9 	ldr	x9, [x9, #16]
100003f00: 1f 01 09 eb 	cmp	x8, x9
100003f04: a3 09 00 54 	b.lo	0x100004038 <__ZN4core5slice4sort7recurse17h06c1754ae91d4411E+0x3c8>
100003f08: 08 00 80 d2 	mov	x8, #0
100003f0c: 49 63 1c 9b 	madd	x9, x26, x28, x24
100003f10: 00 03 c0 3d 	ldr	q0, [x24]
100003f14: 0a 0b 40 f9 	ldr	x10, [x24, #16]
100003f18: ea 6b 00 f9 	str	x10, [sp, #208]
100003f1c: e0 33 80 3d 	str	q0, [sp, #192]
100003f20: 20 01 c0 3d 	ldr	q0, [x9]
100003f24: 2a 09 40 f9 	ldr	x10, [x9, #16]
100003f28: 0a 0b 00 f9 	str	x10, [x24, #16]
100003f2c: 00 03 80 3d 	str	q0, [x24]
100003f30: e0 33 c0 3d 	ldr	q0, [sp, #192]
100003f34: ea 6b 40 f9 	ldr	x10, [sp, #208]
100003f38: 2a 09 00 f9 	str	x10, [x9, #16]
100003f3c: 20 01 80 3d 	str	q0, [x9]
100003f40: 0a 63 00 91 	add	x10, x24, #24
100003f44: 00 03 c0 3d 	ldr	q0, [x24]
100003f48: e0 13 80 3d 	str	q0, [sp, #64]
100003f4c: 09 0b 40 f9 	ldr	x9, [x24, #16]
100003f50: 0b a3 00 91 	add	x11, x24, #40
100003f54: ec 03 19 aa 	mov	x12, x25
100003f58: 8d 05 00 d1 	sub	x13, x12, #1
100003f5c: 1f 01 0d eb 	cmp	x8, x13
100003f60: 42 01 00 54 	b.hs	0x100003f88 <__ZN4core5slice4sort7recurse17h06c1754ae91d4411E+0x318>
100003f64: 0e 2d 1c 9b 	madd	x14, x8, x28, x11
100003f68: cf 01 40 f9 	ldr	x15, [x14]
100003f6c: 3f 01 0f eb 	cmp	x9, x15
100003f70: c3 00 00 54 	b.lo	0x100003f88 <__ZN4core5slice4sort7recurse17h06c1754ae91d4411E+0x318>
100003f74: 08 05 00 91 	add	x8, x8, #1
100003f78: ce 61 00 91 	add	x14, x14, #24
100003f7c: bf 01 08 eb 	cmp	x13, x8
100003f80: 41 ff ff 54 	b.ne	0x100003f68 <__ZN4core5slice4sort7recurse17h06c1754ae91d4411E+0x2f8>
100003f84: e8 03 0d aa 	mov	x8, x13
100003f88: 8e 61 1c 9b 	madd	x14, x12, x28, x24
100003f8c: 8c 05 00 d1 	sub	x12, x12, #1
100003f90: 1f 01 0c eb 	cmp	x8, x12
100003f94: 02 03 00 54 	b.hs	0x100003ff4 <__ZN4core5slice4sort7recurse17h06c1754ae91d4411E+0x384>
100003f98: cd 61 00 d1 	sub	x13, x14, #24
100003f9c: cf 81 5f f8 	ldur	x15, [x14, #-8]
100003fa0: ee 03 0d aa 	mov	x14, x13
100003fa4: 3f 01 0f eb 	cmp	x9, x15
100003fa8: 23 ff ff 54 	b.lo	0x100003f8c <__ZN4core5slice4sort7recurse17h06c1754ae91d4411E+0x31c>
100003fac: 0e 29 1c 9b 	madd	x14, x8, x28, x10
100003fb0: c0 01 c0 3d 	ldr	q0, [x14]
100003fb4: cf 09 40 f9 	ldr	x15, [x14, #16]
100003fb8: ef 6b 00 f9 	str	x15, [sp, #208]
100003fbc: e0 33 80 3d 	str	q0, [sp, #192]
100003fc0: a0 01 c0 3d 	ldr	q0, [x13]
100003fc4: af 09 40 f9 	ldr	x15, [x13, #16]
100003fc8: cf 09 00 f9 	str	x15, [x14, #16]
100003fcc: c0 01 80 3d 	str	q0, [x14]
100003fd0: e0 33 c0 3d 	ldr	q0, [sp, #192]
100003fd4: ee 6b 40 f9 	ldr	x14, [sp, #208]
100003fd8: ae 09 00 f9 	str	x14, [x13, #16]
100003fdc: a0 01 80 3d 	str	q0, [x13]
100003fe0: 08 05 00 91 	add	x8, x8, #1
100003fe4: 8d 05 00 d1 	sub	x13, x12, #1
100003fe8: 1f 01 0d eb 	cmp	x8, x13
100003fec: c3 fb ff 54 	b.lo	0x100003f64 <__ZN4core5slice4sort7recurse17h06c1754ae91d4411E+0x2f4>
100003ff0: e6 ff ff 17 	b	0x100003f88 <__ZN4core5slice4sort7recurse17h06c1754ae91d4411E+0x318>
100003ff4: 00 05 00 91 	add	x0, x8, #1
100003ff8: e0 13 c0 3d 	ldr	q0, [sp, #64]
100003ffc: 00 03 80 3d 	str	q0, [x24]
100004000: 09 0b 00 f9 	str	x9, [x24, #16]
100004004: 3a 03 00 eb 	subs	x26, x25, x0
100004008: 83 30 00 54 	b.lo	0x100004618 <__ZN4core5slice4sort7recurse17h06c1754ae91d4411E+0x9a8>
10000400c: 18 60 1c 9b 	madd	x24, x0, x28, x24
100004010: f9 03 1a aa 	mov	x25, x26
100004014: 5f 57 00 f1 	cmp	x26, #21
100004018: c2 e5 ff 54 	b.hs	0x100003cd0 <__ZN4core5slice4sort7recurse17h06c1754ae91d4411E+0x60>
10000401c: 34 01 00 14 	b	0x1000044ec <__ZN4core5slice4sort7recurse17h06c1754ae91d4411E+0x87c>
100004020: e0 03 18 aa 	mov	x0, x24
100004024: e1 03 19 aa 	mov	x1, x25
100004028: df af 00 94 	bl	0x10002ffa4 <__ZN4core5slice4sort22partial_insertion_sort17hb8c70a7fac32505aE>
10000402c: 21 00 80 52 	mov	w1, #1
100004030: c0 f5 07 36 	tbz	w0, #0, 0x100003ee8 <__ZN4core5slice4sort7recurse17h06c1754ae91d4411E+0x278>
100004034: 64 01 00 14 	b	0x1000045c4 <__ZN4core5slice4sort7recurse17h06c1754ae91d4411E+0x954>
100004038: f3 03 18 aa 	mov	x19, x24
10000403c: f7 03 19 aa 	mov	x23, x25
100004040: 5f 03 17 eb 	cmp	x26, x23
100004044: a2 2d 00 54 	b.hs	0x1000045f8 <__ZN4core5slice4sort7recurse17h06c1754ae91d4411E+0x988>
100004048: 48 4f 1c 9b 	madd	x8, x26, x28, x19
10000404c: 60 02 c0 3d 	ldr	q0, [x19]
100004050: 69 0a 40 f9 	ldr	x9, [x19, #16]
100004054: e9 6b 00 f9 	str	x9, [sp, #208]
100004058: e0 33 80 3d 	str	q0, [sp, #192]
10000405c: 00 01 c0 3d 	ldr	q0, [x8]
100004060: 09 09 40 f9 	ldr	x9, [x8, #16]
100004064: 69 0a 00 f9 	str	x9, [x19, #16]
100004068: 60 02 80 3d 	str	q0, [x19]
10000406c: e0 33 c0 3d 	ldr	q0, [sp, #192]
100004070: e9 6b 40 f9 	ldr	x9, [sp, #208]
100004074: 09 09 00 f9 	str	x9, [x8, #16]
100004078: 00 01 80 3d 	str	q0, [x8]
10000407c: 60 02 c0 3d 	ldr	q0, [x19]
100004080: 69 0a 40 f9 	ldr	x9, [x19, #16]
100004084: e9 13 00 f9 	str	x9, [sp, #32]
100004088: e0 07 80 3d 	str	q0, [sp, #16]
10000408c: e8 43 00 91 	add	x8, sp, #16
100004090: e8 4f 03 a9 	stp	x8, x19, [sp, #48]
100004094: 00 00 80 d2 	mov	x0, #0
100004098: e1 06 00 f1 	subs	x1, x23, #1
10000409c: a0 01 00 54 	b.eq	0x1000040d0 <__ZN4core5slice4sort7recurse17h06c1754ae91d4411E+0x460>
1000040a0: 68 a2 00 91 	add	x8, x19, #40
1000040a4: f4 f3 01 b2 	mov	x20, #-6148914691236517206
1000040a8: 74 55 95 f2 	movk	x20, #43691
1000040ac: 0a 01 40 f9 	ldr	x10, [x8]
1000040b0: 5f 01 09 eb 	cmp	x10, x9
1000040b4: 22 01 00 54 	b.hs	0x1000040d8 <__ZN4core5slice4sort7recurse17h06c1754ae91d4411E+0x468>
1000040b8: 00 04 00 91 	add	x0, x0, #1
1000040bc: 08 61 00 91 	add	x8, x8, #24
1000040c0: 3f 00 00 eb 	cmp	x1, x0
1000040c4: 41 ff ff 54 	b.ne	0x1000040ac <__ZN4core5slice4sort7recurse17h06c1754ae91d4411E+0x43c>
1000040c8: e0 03 01 aa 	mov	x0, x1
1000040cc: 03 00 00 14 	b	0x1000040d8 <__ZN4core5slice4sort7recurse17h06c1754ae91d4411E+0x468>
1000040d0: f4 f3 01 b2 	mov	x20, #-6148914691236517206
1000040d4: 74 55 95 f2 	movk	x20, #43691
1000040d8: 6b 62 00 91 	add	x11, x19, #24
1000040dc: 1f 00 01 eb 	cmp	x0, x1
1000040e0: 0a 30 81 9a 	csel	x10, x0, x1, lo
1000040e4: e8 f3 7d b2 	orr	x8, xzr, #0xfffffffffffffff8
1000040e8: ec 22 1c 9b 	madd	x12, x23, x28, x8
1000040ec: e8 03 17 aa 	mov	x8, x23
1000040f0: 08 05 00 d1 	sub	x8, x8, #1
1000040f4: 1f 01 00 eb 	cmp	x8, x0
1000040f8: c9 00 00 54 	b.ls	0x100004110 <__ZN4core5slice4sort7recurse17h06c1754ae91d4411E+0x4a0>
1000040fc: 6d 6a 6c f8 	ldr	x13, [x19, x12]
100004100: 8c 61 00 d1 	sub	x12, x12, #24
100004104: bf 01 09 eb 	cmp	x13, x9
100004108: 42 ff ff 54 	b.hs	0x1000040f0 <__ZN4core5slice4sort7recurse17h06c1754ae91d4411E+0x480>
10000410c: 02 00 00 14 	b	0x100004114 <__ZN4core5slice4sort7recurse17h06c1754ae91d4411E+0x4a4>
100004110: e8 03 0a aa 	mov	x8, x10
100004114: 1f 01 00 eb 	cmp	x8, x0
100004118: 23 29 00 54 	b.lo	0x10000463c <__ZN4core5slice4sort7recurse17h06c1754ae91d4411E+0x9cc>
10000411c: 1f 01 01 eb 	cmp	x8, x1
100004120: 48 28 00 54 	b.hi	0x100004628 <__ZN4core5slice4sort7recurse17h06c1754ae91d4411E+0x9b8>
100004124: 0c 00 80 d2 	mov	x12, #0
100004128: 0f 00 80 d2 	mov	x15, #0
10000412c: 0d 00 80 d2 	mov	x13, #0
100004130: 10 00 80 d2 	mov	x16, #0
100004134: 0a 2c 1c 9b 	madd	x10, x0, x28, x11
100004138: 0b 2d 1c 9b 	madd	x11, x8, x28, x11
10000413c: 11 10 80 52 	mov	w17, #128
100004140: 01 10 80 52 	mov	w1, #128
100004144: ee 03 0a aa 	mov	x14, x10
100004148: 0f 00 00 14 	b	0x100004184 <__ZN4core5slice4sort7recurse17h06c1754ae91d4411E+0x514>
10000414c: a0 03 d9 3c 	ldur	q0, [x29, #-112]
100004150: a3 03 5a f8 	ldur	x3, [x29, #-96]
100004154: 83 08 00 f9 	str	x3, [x4, #16]
100004158: 80 00 80 3d 	str	q0, [x4]
10000415c: 10 06 00 91 	add	x16, x16, #1
100004160: ef 05 00 91 	add	x15, x15, #1
100004164: 1f 02 0d eb 	cmp	x16, x13
100004168: 23 00 9f 9a 	csel	x3, x1, xzr, eq
10000416c: 6e 38 1c 9b 	madd	x14, x3, x28, x14
100004170: ff 01 0c eb 	cmp	x15, x12
100004174: e3 17 91 da 	csneg	x3, xzr, x17, ne
100004178: 6b 2c 1c 9b 	madd	x11, x3, x28, x11
10000417c: 5f 0c 0c f1 	cmp	x2, #771
100004180: 03 0f 00 54 	b.lo	0x100004360 <__ZN4core5slice4sort7recurse17h06c1754ae91d4411E+0x6f0>
100004184: 63 01 0e cb 	sub	x3, x11, x14
100004188: 62 fc 43 d3 	lsr	x2, x3, #3
10000418c: 5f 0c 0c f1 	cmp	x2, #771
100004190: c3 05 00 54 	b.lo	0x100004248 <__ZN4core5slice4sort7recurse17h06c1754ae91d4411E+0x5d8>
100004194: 1f 02 0d eb 	cmp	x16, x13
100004198: 00 08 00 54 	b.eq	0x100004298 <__ZN4core5slice4sort7recurse17h06c1754ae91d4411E+0x628>
10000419c: ff 01 0c eb 	cmp	x15, x12
1000041a0: 80 0a 00 54 	b.eq	0x1000042f0 <__ZN4core5slice4sort7recurse17h06c1754ae91d4411E+0x680>
1000041a4: a3 01 10 cb 	sub	x3, x13, x16
1000041a8: 84 01 0f cb 	sub	x4, x12, x15
1000041ac: 7f 00 04 eb 	cmp	x3, x4
1000041b0: 83 80 83 9a 	csel	x3, x4, x3, hi
1000041b4: 83 fd ff b4 	cbz	x3, 0x100004164 <__ZN4core5slice4sort7recurse17h06c1754ae91d4411E+0x4f4>
1000041b8: 04 02 40 39 	ldrb	w4, [x16]
1000041bc: 84 38 1c 9b 	madd	x4, x4, x28, x14
1000041c0: 80 00 c0 3d 	ldr	q0, [x4]
1000041c4: 84 08 40 f9 	ldr	x4, [x4, #16]
1000041c8: a4 03 1a f8 	stur	x4, [x29, #-96]
1000041cc: a0 03 99 3c 	stur	q0, [x29, #-112]
1000041d0: e5 01 40 39 	ldrb	w5, [x15]
1000041d4: e4 03 25 aa 	mvn	x4, x5
1000041d8: 84 2c 1c 9b 	madd	x4, x4, x28, x11
1000041dc: 06 02 40 39 	ldrb	w6, [x16]
1000041e0: c6 38 1c 9b 	madd	x6, x6, x28, x14
1000041e4: 87 08 40 f9 	ldr	x7, [x4, #16]
1000041e8: 80 00 c0 3d 	ldr	q0, [x4]
1000041ec: c0 00 80 3d 	str	q0, [x6]
1000041f0: c7 08 00 f9 	str	x7, [x6, #16]
1000041f4: 63 04 00 f1 	subs	x3, x3, #1
1000041f8: a0 fa ff 54 	b.eq	0x10000414c <__ZN4core5slice4sort7recurse17h06c1754ae91d4411E+0x4dc>
1000041fc: 04 1e 40 38 	ldrb	w4, [x16, #1]!
100004200: 86 38 1c 9b 	madd	x6, x4, x28, x14
100004204: e4 03 25 2a 	mvn	w4, w5
100004208: 84 dc 78 b2 	orr	x4, x4, #0xffffffffffffff00
10000420c: 84 2c 1c 9b 	madd	x4, x4, x28, x11
100004210: c5 08 40 f9 	ldr	x5, [x6, #16]
100004214: c0 00 c0 3d 	ldr	q0, [x6]
100004218: 80 00 80 3d 	str	q0, [x4]
10000421c: 85 08 00 f9 	str	x5, [x4, #16]
100004220: e5 1d 40 38 	ldrb	w5, [x15, #1]!
100004224: e4 03 25 aa 	mvn	x4, x5
100004228: 84 2c 1c 9b 	madd	x4, x4, x28, x11
10000422c: 87 08 40 f9 	ldr	x7, [x4, #16]
100004230: 80 00 c0 3d 	ldr	q0, [x4]
100004234: c0 00 80 3d 	str	q0, [x6]
100004238: c7 08 00 f9 	str	x7, [x6, #16]
10000423c: 63 04 00 f1 	subs	x3, x3, #1
100004240: e1 fd ff 54 	b.ne	0x1000041fc <__ZN4core5slice4sort7recurse17h06c1754ae91d4411E+0x58c>
100004244: c2 ff ff 17 	b	0x10000414c <__ZN4core5slice4sort7recurse17h06c1754ae91d4411E+0x4dc>
100004248: 63 7c d4 9b 	umulh	x3, x3, x20
10000424c: 63 fc 44 d3 	lsr	x3, x3, #4
100004250: 1f 02 0d eb 	cmp	x16, x13
100004254: e4 27 9f 1a 	cset	w4, lo
100004258: ff 01 0c eb 	cmp	x15, x12
10000425c: e5 27 9f 1a 	cset	w5, lo
100004260: 84 00 05 2a 	orr	w4, w4, w5
100004264: 65 00 02 d1 	sub	x5, x3, #128
100004268: 9f 00 00 71 	cmp	w4, #0
10000426c: a3 10 83 9a 	csel	x3, x5, x3, ne
100004270: 1f 02 0d eb 	cmp	x16, x13
100004274: 71 30 91 9a 	csel	x17, x3, x17, lo
100004278: 21 30 83 9a 	csel	x1, x1, x3, lo
10000427c: 65 fc 41 d3 	lsr	x5, x3, #1
100004280: 63 00 05 cb 	sub	x3, x3, x5
100004284: 9f 00 00 72 	tst	w4, #0x1
100004288: 31 12 83 9a 	csel	x17, x17, x3, ne
10000428c: 21 10 85 9a 	csel	x1, x1, x5, ne
100004290: 1f 02 0d eb 	cmp	x16, x13
100004294: 41 f8 ff 54 	b.ne	0x10000419c <__ZN4core5slice4sort7recurse17h06c1754ae91d4411E+0x52c>
100004298: 41 02 00 b4 	cbz	x1, 0x1000042e0 <__ZN4core5slice4sort7recurse17h06c1754ae91d4411E+0x670>
10000429c: 03 00 80 d2 	mov	x3, #0
1000042a0: ed 03 01 91 	add	x13, sp, #64
1000042a4: f0 03 0e aa 	mov	x16, x14
1000042a8: e4 03 0d aa 	mov	x4, x13
1000042ac: 83 14 00 38 	strb	w3, [x4], #1
1000042b0: 65 04 00 91 	add	x5, x3, #1
1000042b4: 03 0a 40 f9 	ldr	x3, [x16, #16]
1000042b8: 7f 00 09 eb 	cmp	x3, x9
1000042bc: ad 31 84 9a 	csel	x13, x13, x4, lo
1000042c0: 10 62 00 91 	add	x16, x16, #24
1000042c4: e3 03 05 aa 	mov	x3, x5
1000042c8: 3f 00 05 eb 	cmp	x1, x5
1000042cc: e1 fe ff 54 	b.ne	0x1000042a8 <__ZN4core5slice4sort7recurse17h06c1754ae91d4411E+0x638>
1000042d0: f0 03 01 91 	add	x16, sp, #64
1000042d4: ff 01 0c eb 	cmp	x15, x12
1000042d8: 61 f6 ff 54 	b.ne	0x1000041a4 <__ZN4core5slice4sort7recurse17h06c1754ae91d4411E+0x534>
1000042dc: 05 00 00 14 	b	0x1000042f0 <__ZN4core5slice4sort7recurse17h06c1754ae91d4411E+0x680>
1000042e0: ed 03 01 91 	add	x13, sp, #64
1000042e4: f0 03 01 91 	add	x16, sp, #64
1000042e8: ff 01 0c eb 	cmp	x15, x12
1000042ec: c1 f5 ff 54 	b.ne	0x1000041a4 <__ZN4core5slice4sort7recurse17h06c1754ae91d4411E+0x534>
1000042f0: 91 02 00 b4 	cbz	x17, 0x100004340 <__ZN4core5slice4sort7recurse17h06c1754ae91d4411E+0x6d0>
1000042f4: 03 00 80 d2 	mov	x3, #0
1000042f8: ec 03 03 91 	add	x12, sp, #192
1000042fc: 6f 21 00 d1 	sub	x15, x11, #8
100004300: e4 03 0c aa 	mov	x4, x12
100004304: 83 14 00 38 	strb	w3, [x4], #1
100004308: 65 04 00 91 	add	x5, x3, #1
10000430c: e3 85 5e f8 	ldr	x3, [x15], #-24
100004310: 7f 00 09 eb 	cmp	x3, x9
100004314: 8c 21 84 9a 	csel	x12, x12, x4, hs
100004318: e3 03 05 aa 	mov	x3, x5
10000431c: 3f 02 05 eb 	cmp	x17, x5
100004320: 01 ff ff 54 	b.ne	0x100004300 <__ZN4core5slice4sort7recurse17h06c1754ae91d4411E+0x690>
100004324: ef 03 03 91 	add	x15, sp, #192
100004328: a3 01 10 cb 	sub	x3, x13, x16
10000432c: 84 01 0f cb 	sub	x4, x12, x15
100004330: 7f 00 04 eb 	cmp	x3, x4
100004334: 83 80 83 9a 	csel	x3, x4, x3, hi
100004338: 03 f4 ff b5 	cbnz	x3, 0x1000041b8 <__ZN4core5slice4sort7recurse17h06c1754ae91d4411E+0x548>
10000433c: 8a ff ff 17 	b	0x100004164 <__ZN4core5slice4sort7recurse17h06c1754ae91d4411E+0x4f4>
100004340: ec 03 03 91 	add	x12, sp, #192
100004344: ef 03 03 91 	add	x15, sp, #192
100004348: a3 01 10 cb 	sub	x3, x13, x16
10000434c: 84 01 0f cb 	sub	x4, x12, x15
100004350: 7f 00 04 eb 	cmp	x3, x4
100004354: 83 80 83 9a 	csel	x3, x4, x3, hi
100004358: 03 f3 ff b5 	cbnz	x3, 0x1000041b8 <__ZN4core5slice4sort7recurse17h06c1754ae91d4411E+0x548>
10000435c: 82 ff ff 17 	b	0x100004164 <__ZN4core5slice4sort7recurse17h06c1754ae91d4411E+0x4f4>
100004360: 1f 02 0d eb 	cmp	x16, x13
100004364: 42 08 00 54 	b.hs	0x10000446c <__ZN4core5slice4sort7recurse17h06c1754ae91d4411E+0x7fc>
100004368: a9 fd 5f 38 	ldrb	w9, [x13, #-1]!
10000436c: 2c 39 1c 9b 	madd	x12, x9, x28, x14
100004370: 69 61 00 d1 	sub	x9, x11, #24
100004374: 80 01 c0 3d 	ldr	q0, [x12]
100004378: 8f 09 40 f9 	ldr	x15, [x12, #16]
10000437c: af 03 1a f8 	stur	x15, [x29, #-96]
100004380: a0 03 99 3c 	stur	q0, [x29, #-112]
100004384: 60 81 de 3c 	ldur	q0, [x11, #-24]
100004388: 6f 81 5f f8 	ldur	x15, [x11, #-8]
10000438c: 8f 09 00 f9 	str	x15, [x12, #16]
100004390: 80 01 80 3d 	str	q0, [x12]
100004394: a0 03 d9 3c 	ldur	q0, [x29, #-112]
100004398: ac 03 5a f8 	ldur	x12, [x29, #-96]
10000439c: 6c 81 1f f8 	stur	x12, [x11, #-8]
1000043a0: 60 81 9e 3c 	stur	q0, [x11, #-24]
1000043a4: eb 03 09 aa 	mov	x11, x9
1000043a8: 1f 02 0d eb 	cmp	x16, x13
1000043ac: e3 fd ff 54 	b.lo	0x100004368 <__ZN4core5slice4sort7recurse17h06c1754ae91d4411E+0x6f8>
1000043b0: 29 01 0a cb 	sub	x9, x9, x10
1000043b4: 29 7d d4 9b 	umulh	x9, x9, x20
1000043b8: e0 07 c0 3d 	ldr	q0, [sp, #16]
1000043bc: ea 13 40 f9 	ldr	x10, [sp, #32]
1000043c0: 1a 10 49 8b 	add	x26, x0, x9, lsr #4
1000043c4: 6a 0a 00 f9 	str	x10, [x19, #16]
1000043c8: 60 02 80 3d 	str	q0, [x19]
1000043cc: e9 02 1a eb 	subs	x9, x23, x26
1000043d0: a9 11 00 54 	b.ls	0x100004604 <__ZN4core5slice4sort7recurse17h06c1754ae91d4411E+0x994>
1000043d4: 1f 00 08 eb 	cmp	x0, x8
1000043d8: f4 37 9f 1a 	cset	w20, hs
1000043dc: 58 4f 1c 9b 	madd	x24, x26, x28, x19
1000043e0: 60 02 c0 3d 	ldr	q0, [x19]
1000043e4: 68 0a 40 f9 	ldr	x8, [x19, #16]
1000043e8: e8 6b 00 f9 	str	x8, [sp, #208]
1000043ec: e0 33 80 3d 	str	q0, [sp, #192]
1000043f0: 00 03 c0 3d 	ldr	q0, [x24]
1000043f4: 08 0b 40 f9 	ldr	x8, [x24, #16]
1000043f8: 68 0a 00 f9 	str	x8, [x19, #16]
1000043fc: 60 02 80 3d 	str	q0, [x19]
100004400: e0 33 c0 3d 	ldr	q0, [sp, #192]
100004404: e8 6b 40 f9 	ldr	x8, [sp, #208]
100004408: 08 0b 00 f9 	str	x8, [x24, #16]
10000440c: 00 03 80 3d 	str	q0, [x24]
100004410: 5f 03 09 eb 	cmp	x26, x9
100004414: 28 81 9a 9a 	csel	x8, x9, x26, hi
100004418: 1f 0d 57 eb 	cmp	x8, x23, lsr #3
10000441c: fb 37 9f 1a 	cset	w27, hs
100004420: 89 11 00 b4 	cbz	x9, 0x100004650 <__ZN4core5slice4sort7recurse17h06c1754ae91d4411E+0x9e0>
100004424: 17 63 00 91 	add	x23, x24, #24
100004428: 39 05 00 d1 	sub	x25, x9, #1
10000442c: 5f 03 19 eb 	cmp	x26, x25
100004430: 82 04 00 54 	b.hs	0x1000044c0 <__ZN4core5slice4sort7recurse17h06c1754ae91d4411E+0x850>
100004434: e0 03 13 aa 	mov	x0, x19
100004438: e1 03 1a aa 	mov	x1, x26
10000443c: e2 07 40 f9 	ldr	x2, [sp, #8]
100004440: e3 03 16 aa 	mov	x3, x22
100004444: e4 03 15 aa 	mov	x4, x21
100004448: 0a fe ff 97 	bl	0x100003c70 <__ZN4core5slice4sort7recurse17h06c1754ae91d4411E>
10000444c: f6 03 18 aa 	mov	x22, x24
100004450: fa 03 19 aa 	mov	x26, x25
100004454: f3 03 17 aa 	mov	x19, x23
100004458: f7 03 1a aa 	mov	x23, x26
10000445c: 5f 57 00 f1 	cmp	x26, #21
100004460: 21 00 80 52 	mov	w1, #1
100004464: 02 c3 ff 54 	b.hs	0x100003cc4 <__ZN4core5slice4sort7recurse17h06c1754ae91d4411E+0x54>
100004468: 22 00 00 14 	b	0x1000044f0 <__ZN4core5slice4sort7recurse17h06c1754ae91d4411E+0x880>
10000446c: e9 03 0e aa 	mov	x9, x14
100004470: ff 01 0c eb 	cmp	x15, x12
100004474: e2 f9 ff 54 	b.hs	0x1000043b0 <__ZN4core5slice4sort7recurse17h06c1754ae91d4411E+0x740>
100004478: 8d fd 5f 38 	ldrb	w13, [x12, #-1]!
10000447c: ed 03 2d aa 	mvn	x13, x13
100004480: ad 2d 1c 9b 	madd	x13, x13, x28, x11
100004484: 20 01 c0 3d 	ldr	q0, [x9]
100004488: 2e 09 40 f9 	ldr	x14, [x9, #16]
10000448c: ae 03 1a f8 	stur	x14, [x29, #-96]
100004490: a0 03 99 3c 	stur	q0, [x29, #-112]
100004494: a0 01 c0 3d 	ldr	q0, [x13]
100004498: ae 09 40 f9 	ldr	x14, [x13, #16]
10000449c: 2e 09 00 f9 	str	x14, [x9, #16]
1000044a0: 20 85 81 3c 	str	q0, [x9], #24
1000044a4: a0 03 d9 3c 	ldur	q0, [x29, #-112]
1000044a8: ae 03 5a f8 	ldur	x14, [x29, #-96]
1000044ac: ae 09 00 f9 	str	x14, [x13, #16]
1000044b0: a0 01 80 3d 	str	q0, [x13]
1000044b4: ff 01 0c eb 	cmp	x15, x12
1000044b8: 03 fe ff 54 	b.lo	0x100004478 <__ZN4core5slice4sort7recurse17h06c1754ae91d4411E+0x808>
1000044bc: bd ff ff 17 	b	0x1000043b0 <__ZN4core5slice4sort7recurse17h06c1754ae91d4411E+0x740>
1000044c0: e0 03 17 aa 	mov	x0, x23
1000044c4: e1 03 19 aa 	mov	x1, x25
1000044c8: e2 07 40 f9 	ldr	x2, [sp, #8]
1000044cc: e3 03 18 aa 	mov	x3, x24
1000044d0: e4 03 15 aa 	mov	x4, x21
1000044d4: e7 fd ff 97 	bl	0x100003c70 <__ZN4core5slice4sort7recurse17h06c1754ae91d4411E>
1000044d8: f7 03 1a aa 	mov	x23, x26
1000044dc: 5f 57 00 f1 	cmp	x26, #21
1000044e0: 21 00 80 52 	mov	w1, #1
1000044e4: 02 bf ff 54 	b.hs	0x100003cc4 <__ZN4core5slice4sort7recurse17h06c1754ae91d4411E+0x54>
1000044e8: 02 00 00 14 	b	0x1000044f0 <__ZN4core5slice4sort7recurse17h06c1754ae91d4411E+0x880>
1000044ec: f3 03 18 aa 	mov	x19, x24
1000044f0: 5f 0b 00 f1 	cmp	x26, #2
1000044f4: 83 06 00 54 	b.lo	0x1000045c4 <__ZN4core5slice4sort7recurse17h06c1754ae91d4411E+0x954>
1000044f8: 08 00 80 d2 	mov	x8, #0
1000044fc: 29 00 80 52 	mov	w9, #1
100004500: 0a 03 80 52 	mov	w10, #24
100004504: eb 03 13 aa 	mov	x11, x19
100004508: 0a 00 00 14 	b	0x100004530 <__ZN4core5slice4sort7recurse17h06c1754ae91d4411E+0x8c0>
10000450c: ed 03 13 aa 	mov	x13, x19
100004510: e0 33 c0 3d 	ldr	q0, [sp, #192]
100004514: a0 01 80 3d 	str	q0, [x13]
100004518: ac 09 00 f9 	str	x12, [x13, #16]
10000451c: 29 05 00 91 	add	x9, x9, #1
100004520: 6b 61 00 91 	add	x11, x11, #24
100004524: 08 05 00 d1 	sub	x8, x8, #1
100004528: 3f 01 1a eb 	cmp	x9, x26
10000452c: c0 04 00 54 	b.eq	0x1000045c4 <__ZN4core5slice4sort7recurse17h06c1754ae91d4411E+0x954>
100004530: 2d 4d 0a 9b 	madd	x13, x9, x10, x19
100004534: ac 09 40 f9 	ldr	x12, [x13, #16]
100004538: ad 81 5f f8 	ldur	x13, [x13, #-8]
10000453c: 9f 01 0d eb 	cmp	x12, x13
100004540: e2 fe ff 54 	b.hs	0x10000451c <__ZN4core5slice4sort7recurse17h06c1754ae91d4411E+0x8ac>
100004544: 2e 4d 0a 9b 	madd	x14, x9, x10, x19
100004548: c0 01 c0 3d 	ldr	q0, [x14]
10000454c: e0 33 80 3d 	str	q0, [sp, #192]
100004550: 2f 05 00 d1 	sub	x15, x9, #1
100004554: ed 4d 0a 9b 	madd	x13, x15, x10, x19
100004558: b0 09 40 f9 	ldr	x16, [x13, #16]
10000455c: d0 09 00 f9 	str	x16, [x14, #16]
100004560: a0 01 c0 3d 	ldr	q0, [x13]
100004564: c0 01 80 3d 	str	q0, [x14]
100004568: 4f fd ff b4 	cbz	x15, 0x100004510 <__ZN4core5slice4sort7recurse17h06c1754ae91d4411E+0x8a0>
10000456c: 2e 4d 0a 9b 	madd	x14, x9, x10, x19
100004570: d0 01 5e f8 	ldur	x16, [x14, #-32]
100004574: ee 03 08 aa 	mov	x14, x8
100004578: ef 03 0b aa 	mov	x15, x11
10000457c: 9f 01 10 eb 	cmp	x12, x16
100004580: 82 fc ff 54 	b.hs	0x100004510 <__ZN4core5slice4sort7recurse17h06c1754ae91d4411E+0x8a0>
100004584: e0 81 de 3c 	ldur	q0, [x15, #-24]
100004588: e0 01 80 3d 	str	q0, [x15]
10000458c: ed 81 5f f8 	ldur	x13, [x15, #-8]
100004590: ed 09 00 f9 	str	x13, [x15, #16]
100004594: ce 05 00 b1 	adds	x14, x14, #1
100004598: a2 fb ff 54 	b.hs	0x10000450c <__ZN4core5slice4sort7recurse17h06c1754ae91d4411E+0x89c>
10000459c: ed 61 00 d1 	sub	x13, x15, #24
1000045a0: f0 01 5e f8 	ldur	x16, [x15, #-32]
1000045a4: ef 03 0d aa 	mov	x15, x13
1000045a8: 9f 01 10 eb 	cmp	x12, x16
1000045ac: c3 fe ff 54 	b.lo	0x100004584 <__ZN4core5slice4sort7recurse17h06c1754ae91d4411E+0x914>
1000045b0: d8 ff ff 17 	b	0x100004510 <__ZN4core5slice4sort7recurse17h06c1754ae91d4411E+0x8a0>
1000045b4: e0 03 18 aa 	mov	x0, x24
1000045b8: e1 03 19 aa 	mov	x1, x25
1000045bc: e2 07 40 f9 	ldr	x2, [sp, #8]
1000045c0: c3 af 00 94 	bl	0x1000304cc <__ZN4core5slice4sort8heapsort17h9353fdc64e481355E>
1000045c4: fd 7b 5b a9 	ldp	x29, x30, [sp, #432]
1000045c8: f4 4f 5a a9 	ldp	x20, x19, [sp, #416]
1000045cc: f6 57 59 a9 	ldp	x22, x21, [sp, #400]
1000045d0: f8 5f 58 a9 	ldp	x24, x23, [sp, #384]
1000045d4: fa 67 57 a9 	ldp	x26, x25, [sp, #368]
1000045d8: fc 6f 56 a9 	ldp	x28, x27, [sp, #352]
1000045dc: ff 03 07 91 	add	sp, sp, #448
1000045e0: c0 03 5f d6 	ret
1000045e4: e2 ef 19 10 	adr	x2, #212476
1000045e8: 1f 20 03 d5 	nop
1000045ec: e0 03 1a aa 	mov	x0, x26
1000045f0: e1 03 19 aa 	mov	x1, x25
1000045f4: 83 b3 00 94 	bl	0x100031400 <__ZN4core9panicking18panic_bounds_check17h54a3444ed599ccd1E>
1000045f8: c2 f3 19 10 	adr	x2, #212600
1000045fc: 1f 20 03 d5 	nop
100004600: 03 00 00 14 	b	0x10000460c <__ZN4core5slice4sort7recurse17h06c1754ae91d4411E+0x99c>
100004604: e2 f4 19 10 	adr	x2, #212636
100004608: 1f 20 03 d5 	nop
10000460c: e0 03 1a aa 	mov	x0, x26
100004610: e1 03 17 aa 	mov	x1, x23
100004614: 7b b3 00 94 	bl	0x100031400 <__ZN4core9panicking18panic_bounds_check17h54a3444ed599ccd1E>
100004618: 02 ef 19 10 	adr	x2, #212448
10000461c: 1f 20 03 d5 	nop
100004620: e1 03 19 aa 	mov	x1, x25
100004624: c6 b3 00 94 	bl	0x10003153c <__ZN4core5slice5index26slice_start_index_len_fail17h7d2eb9b98c2d25e4E>
100004628: 02 f3 19 10 	adr	x2, #212576
10000462c: 1f 20 03 d5 	nop
100004630: e0 03 08 aa 	mov	x0, x8
100004634: c5 b3 00 94 	bl	0x100031548 <__ZN4core5slice5index24slice_end_index_len_fail17ha148152571519510E>
100004638: 05 00 00 14 	b	0x10000464c <__ZN4core5slice4sort7recurse17h06c1754ae91d4411E+0x9dc>
10000463c: 62 f2 19 10 	adr	x2, #212556
100004640: 1f 20 03 d5 	nop
100004644: e1 03 08 aa 	mov	x1, x8
100004648: c3 b3 00 94 	bl	0x100031554 <__ZN4core5slice5index22slice_index_order_fail17h5452274d427e5b12E>
10000464c: 20 00 20 d4 	brk	#0x1
100004650: c0 4f 17 30 	adr	x0, #190969
100004654: 1f 20 03 d5 	nop
100004658: c2 ed 19 10 	adr	x2, #212408
10000465c: 1f 20 03 d5 	nop
100004660: 61 04 80 52 	mov	w1, #35
100004664: 59 b3 00 94 	bl	0x1000313c8 <__ZN4core9panicking5panic17h89917039f65f3f80E>
100004668: f3 03 00 aa 	mov	x19, x0
10000466c: e0 c3 00 91 	add	x0, sp, #48
100004670: 7f fb ff 97 	bl	0x10000346c <__ZN4core3ptr88drop_in_place$LT$core..slice..sort..CopyOnDrop$LT$$LP$$RF$$u5b$u8$u5d$$C$u64$RP$$GT$$GT$17h02f7ba8a7b487027E>
100004674: e0 03 13 aa 	mov	x0, x19
100004678: ea b3 00 94 	bl	0x100031620 <_writev+0x100031620>

000000010000467c <__ZN4core5slice4sort7recurse17h2ae6b05b2cb1a1c5E>:
10000467c: ff 83 07 d1 	sub	sp, sp, #480
100004680: fc 6f 18 a9 	stp	x28, x27, [sp, #384]
100004684: fa 67 19 a9 	stp	x26, x25, [sp, #400]
100004688: f8 5f 1a a9 	stp	x24, x23, [sp, #416]
10000468c: f6 57 1b a9 	stp	x22, x21, [sp, #432]
100004690: f4 4f 1c a9 	stp	x20, x19, [sp, #448]
100004694: fd 7b 1d a9 	stp	x29, x30, [sp, #464]
100004698: fd 43 07 91 	add	x29, sp, #464
10000469c: e2 07 00 f9 	str	x2, [sp, #8]
1000046a0: f7 03 01 aa 	mov	x23, x1
1000046a4: f3 03 00 aa 	mov	x19, x0
1000046a8: 3f 54 00 f1 	cmp	x1, #21
1000046ac: 62 00 00 54 	b.hs	0x1000046b8 <__ZN4core5slice4sort7recurse17h2ae6b05b2cb1a1c5E+0x3c>
1000046b0: fa 03 17 aa 	mov	x26, x23
1000046b4: 19 02 00 14 	b	0x100004f18 <__ZN4core5slice4sort7recurse17h2ae6b05b2cb1a1c5E+0x89c>
1000046b8: f5 03 04 aa 	mov	x21, x4
1000046bc: f6 03 03 aa 	mov	x22, x3
1000046c0: 21 00 80 52 	mov	w1, #1
1000046c4: 1c 05 80 52 	mov	w28, #40
1000046c8: 3b 00 80 52 	mov	w27, #1
1000046cc: 34 00 80 52 	mov	w20, #1
1000046d0: 74 03 14 0a 	and	w20, w27, w20
1000046d4: f8 03 13 aa 	mov	x24, x19
1000046d8: f9 03 17 aa 	mov	x25, x23
1000046dc: 75 48 00 34 	cbz	w21, 0x100004fe8 <__ZN4core5slice4sort7recurse17h2ae6b05b2cb1a1c5E+0x96c>
1000046e0: 7b 08 00 36 	tbz	w27, #0, 0x1000047ec <__ZN4core5slice4sort7recurse17h2ae6b05b2cb1a1c5E+0x170>
1000046e4: 29 ff 42 d3 	lsr	x9, x25, #2
1000046e8: 2a f9 7f d3 	lsl	x10, x9, #1
1000046ec: 48 01 09 8b 	add	x8, x10, x9
1000046f0: 3f c7 00 f1 	cmp	x25, #49
1000046f4: 09 09 00 54 	b.ls	0x100004814 <__ZN4core5slice4sort7recurse17h2ae6b05b2cb1a1c5E+0x198>
1000046f8: 2b 05 00 d1 	sub	x11, x9, #1
1000046fc: 2c 05 00 91 	add	x12, x9, #1
100004700: 2d 61 1c 9b 	madd	x13, x9, x28, x24
100004704: ae 01 40 f9 	ldr	x14, [x13]
100004708: ad 81 5d f8 	ldur	x13, [x13, #-40]
10000470c: df 01 0d eb 	cmp	x14, x13
100004710: af 21 8e 9a 	csel	x15, x13, x14, hs
100004714: f0 23 81 9a 	csel	x16, xzr, x1, hs
100004718: 31 21 8b 9a 	csel	x17, x9, x11, hs
10000471c: 69 21 89 9a 	csel	x9, x11, x9, hs
100004720: cb 21 8d 9a 	csel	x11, x14, x13, hs
100004724: 8d 7d 1c 9b 	mul	x13, x12, x28
100004728: 0d 6b 6d f8 	ldr	x13, [x24, x13]
10000472c: bf 01 0b eb 	cmp	x13, x11
100004730: 8c 31 91 9a 	csel	x12, x12, x17, lo
100004734: 0e 26 90 9a 	cinc	x14, x16, lo
100004738: ab 31 8b 9a 	csel	x11, x13, x11, lo
10000473c: 7f 01 0f eb 	cmp	x11, x15
100004740: 29 31 8c 9a 	csel	x9, x9, x12, lo
100004744: cb 25 8e 9a 	cinc	x11, x14, lo
100004748: 4c 05 00 d1 	sub	x12, x10, #1
10000474c: 4d 01 40 b2 	orr	x13, x10, #0x1
100004750: 4e 61 1c 9b 	madd	x14, x10, x28, x24
100004754: cf 01 40 f9 	ldr	x15, [x14]
100004758: ce 81 5d f8 	ldur	x14, [x14, #-40]
10000475c: ff 01 0e eb 	cmp	x15, x14
100004760: d0 21 8f 9a 	csel	x16, x14, x15, hs
100004764: 6b 25 8b 9a 	cinc	x11, x11, lo
100004768: 51 21 8c 9a 	csel	x17, x10, x12, hs
10000476c: 8a 21 8a 9a 	csel	x10, x12, x10, hs
100004770: ec 21 8e 9a 	csel	x12, x15, x14, hs
100004774: ae 7d 1c 9b 	mul	x14, x13, x28
100004778: 0e 6b 6e f8 	ldr	x14, [x24, x14]
10000477c: df 01 0c eb 	cmp	x14, x12
100004780: ad 31 91 9a 	csel	x13, x13, x17, lo
100004784: 6b 25 8b 9a 	cinc	x11, x11, lo
100004788: cc 31 8c 9a 	csel	x12, x14, x12, lo
10000478c: 9f 01 10 eb 	cmp	x12, x16
100004790: 4a 31 8d 9a 	csel	x10, x10, x13, lo
100004794: 6b 25 8b 9a 	cinc	x11, x11, lo
100004798: 0c 05 00 d1 	sub	x12, x8, #1
10000479c: 0d 05 00 91 	add	x13, x8, #1
1000047a0: 0e 61 1c 9b 	madd	x14, x8, x28, x24
1000047a4: cf 01 40 f9 	ldr	x15, [x14]
1000047a8: ce 81 5d f8 	ldur	x14, [x14, #-40]
1000047ac: ff 01 0e eb 	cmp	x15, x14
1000047b0: d0 21 8f 9a 	csel	x16, x14, x15, hs
1000047b4: 6b 25 8b 9a 	cinc	x11, x11, lo
1000047b8: 11 21 8c 9a 	csel	x17, x8, x12, hs
1000047bc: 88 21 88 9a 	csel	x8, x12, x8, hs
1000047c0: ec 21 8e 9a 	csel	x12, x15, x14, hs
1000047c4: ae 7d 1c 9b 	mul	x14, x13, x28
1000047c8: 0e 6b 6e f8 	ldr	x14, [x24, x14]
1000047cc: df 01 0c eb 	cmp	x14, x12
1000047d0: ad 31 91 9a 	csel	x13, x13, x17, lo
1000047d4: 6b 25 8b 9a 	cinc	x11, x11, lo
1000047d8: cc 31 8c 9a 	csel	x12, x14, x12, lo
1000047dc: 9f 01 10 eb 	cmp	x12, x16
1000047e0: 08 31 8d 9a 	csel	x8, x8, x13, lo
1000047e4: 6b 25 8b 9a 	cinc	x11, x11, lo
1000047e8: 0c 00 00 14 	b	0x100004818 <__ZN4core5slice4sort7recurse17h2ae6b05b2cb1a1c5E+0x19c>
1000047ec: e0 03 18 aa 	mov	x0, x24
1000047f0: e1 03 19 aa 	mov	x1, x25
1000047f4: 16 ac 00 94 	bl	0x10002f84c <__ZN4core5slice4sort14break_patterns17hfc57c7a99d8f5a00E>
1000047f8: 21 00 80 52 	mov	w1, #1
1000047fc: b5 06 00 51 	sub	w21, w21, #1
100004800: 29 ff 42 d3 	lsr	x9, x25, #2
100004804: 2a f9 7f d3 	lsl	x10, x9, #1
100004808: 48 01 09 8b 	add	x8, x10, x9
10000480c: 3f c7 00 f1 	cmp	x25, #49
100004810: 48 f7 ff 54 	b.hi	0x1000046f8 <__ZN4core5slice4sort7recurse17h2ae6b05b2cb1a1c5E+0x7c>
100004814: 0b 00 80 d2 	mov	x11, #0
100004818: 4c 7d 1c 9b 	mul	x12, x10, x28
10000481c: 0c 6b 6c f8 	ldr	x12, [x24, x12]
100004820: 2d 7d 1c 9b 	mul	x13, x9, x28
100004824: 0d 6b 6d f8 	ldr	x13, [x24, x13]
100004828: 9f 01 0d eb 	cmp	x12, x13
10000482c: ae 21 8c 9a 	csel	x14, x13, x12, hs
100004830: 6b 25 8b 9a 	cinc	x11, x11, lo
100004834: 4f 21 89 9a 	csel	x15, x10, x9, hs
100004838: 3a 21 8a 9a 	csel	x26, x9, x10, hs
10000483c: 09 7d 1c 9b 	mul	x9, x8, x28
100004840: 0a 6b 69 f8 	ldr	x10, [x24, x9]
100004844: 8c 21 8d 9a 	csel	x12, x12, x13, hs
100004848: 5f 01 0c eb 	cmp	x10, x12
10000484c: 09 31 8f 9a 	csel	x9, x8, x15, lo
100004850: 68 25 8b 9a 	cinc	x8, x11, lo
100004854: 4a 31 8c 9a 	csel	x10, x10, x12, lo
100004858: 5f 01 0e eb 	cmp	x10, x14
10000485c: 22 01 00 54 	b.hs	0x100004880 <__ZN4core5slice4sort7recurse17h2ae6b05b2cb1a1c5E+0x204>
100004860: 1f 2d 00 f1 	cmp	x8, #11
100004864: a2 01 00 54 	b.hs	0x100004898 <__ZN4core5slice4sort7recurse17h2ae6b05b2cb1a1c5E+0x21c>
100004868: 08 05 00 91 	add	x8, x8, #1
10000486c: 1f 01 00 f1 	cmp	x8, #0
100004870: e8 17 9f 1a 	cset	w8, eq
100004874: 88 02 08 0a 	and	w8, w20, w8
100004878: 68 04 00 36 	tbz	w8, #0, 0x100004904 <__ZN4core5slice4sort7recurse17h2ae6b05b2cb1a1c5E+0x288>
10000487c: 70 00 00 14 	b	0x100004a3c <__ZN4core5slice4sort7recurse17h2ae6b05b2cb1a1c5E+0x3c0>
100004880: fa 03 09 aa 	mov	x26, x9
100004884: 1f 01 00 f1 	cmp	x8, #0
100004888: e8 17 9f 1a 	cset	w8, eq
10000488c: 88 02 08 0a 	and	w8, w20, w8
100004890: a8 03 00 36 	tbz	w8, #0, 0x100004904 <__ZN4core5slice4sort7recurse17h2ae6b05b2cb1a1c5E+0x288>
100004894: 6a 00 00 14 	b	0x100004a3c <__ZN4core5slice4sort7recurse17h2ae6b05b2cb1a1c5E+0x3c0>
100004898: 08 00 80 d2 	mov	x8, #0
10000489c: 29 ff 41 d3 	lsr	x9, x25, #1
1000048a0: 2a 0b 19 8b 	add	x10, x25, x25, lsl #2
1000048a4: 4a f1 7d d3 	lsl	x10, x10, #3
1000048a8: 0b 03 08 8b 	add	x11, x24, x8
1000048ac: 0c 03 0a 8b 	add	x12, x24, x10
1000048b0: 8d 81 5d f8 	ldur	x13, [x12, #-40]
1000048b4: 60 01 c0 3d 	ldr	q0, [x11]
1000048b8: 6d 01 00 f9 	str	x13, [x11]
1000048bc: 81 01 de 3c 	ldur	q1, [x12, #-32]
1000048c0: 80 81 9d 3c 	stur	q0, [x12, #-40]
1000048c4: 60 05 c0 3d 	ldr	q0, [x11, #16]
1000048c8: 61 81 80 3c 	stur	q1, [x11, #8]
1000048cc: 81 01 df 3c 	ldur	q1, [x12, #-16]
1000048d0: 80 81 9e 3c 	stur	q0, [x12, #-24]
1000048d4: 6d 11 40 f9 	ldr	x13, [x11, #32]
1000048d8: 61 81 81 3c 	stur	q1, [x11, #24]
1000048dc: 8d 81 1f f8 	stur	x13, [x12, #-8]
1000048e0: 08 a1 00 91 	add	x8, x8, #40
1000048e4: 4a a1 00 d1 	sub	x10, x10, #40
1000048e8: 29 05 00 f1 	subs	x9, x9, #1
1000048ec: e1 fd ff 54 	b.ne	0x1000048a8 <__ZN4core5slice4sort7recurse17h2ae6b05b2cb1a1c5E+0x22c>
1000048f0: e8 03 3a aa 	mvn	x8, x26
1000048f4: 3a 03 08 8b 	add	x26, x25, x8
1000048f8: 28 00 80 52 	mov	w8, #1
1000048fc: 88 02 08 0a 	and	w8, w20, w8
100004900: e8 09 00 37 	tbnz	w8, #0, 0x100004a3c <__ZN4core5slice4sort7recurse17h2ae6b05b2cb1a1c5E+0x3c0>
100004904: d6 0a 00 b4 	cbz	x22, 0x100004a5c <__ZN4core5slice4sort7recurse17h2ae6b05b2cb1a1c5E+0x3e0>
100004908: 5f 03 19 eb 	cmp	x26, x25
10000490c: 62 38 00 54 	b.hs	0x100005018 <__ZN4core5slice4sort7recurse17h2ae6b05b2cb1a1c5E+0x99c>
100004910: 49 63 1c 9b 	madd	x9, x26, x28, x24
100004914: c8 02 40 f9 	ldr	x8, [x22]
100004918: 2a 01 40 f9 	ldr	x10, [x9]
10000491c: 1f 01 0a eb 	cmp	x8, x10
100004920: a3 09 00 54 	b.lo	0x100004a54 <__ZN4core5slice4sort7recurse17h2ae6b05b2cb1a1c5E+0x3d8>
100004924: 08 00 80 d2 	mov	x8, #0
100004928: 00 07 40 ad 	ldp	q0, q1, [x24]
10000492c: 0a 13 40 f9 	ldr	x10, [x24, #32]
100004930: ea 7b 00 f9 	str	x10, [sp, #240]
100004934: e0 87 06 ad 	stp	q0, q1, [sp, #208]
100004938: 2a 11 40 f9 	ldr	x10, [x9, #32]
10000493c: 20 05 40 ad 	ldp	q0, q1, [x9]
100004940: 0a 13 00 f9 	str	x10, [x24, #32]
100004944: 00 07 00 ad 	stp	q0, q1, [x24]
100004948: e0 87 46 ad 	ldp	q0, q1, [sp, #208]
10000494c: ea 7b 40 f9 	ldr	x10, [sp, #240]
100004950: 2a 11 00 f9 	str	x10, [x9, #32]
100004954: 20 05 00 ad 	stp	q0, q1, [x9]
100004958: 0b a3 00 91 	add	x11, x24, #40
10000495c: 0a 03 40 f9 	ldr	x10, [x24]
100004960: 09 23 00 91 	add	x9, x24, #8
100004964: 00 83 c0 3c 	ldur	q0, [x24, #8]
100004968: 01 83 c1 3c 	ldur	q1, [x24, #24]
10000496c: e0 87 02 ad 	stp	q0, q1, [sp, #80]
100004970: ec 03 19 aa 	mov	x12, x25
100004974: 8d 05 00 d1 	sub	x13, x12, #1
100004978: 1f 01 0d eb 	cmp	x8, x13
10000497c: 42 01 00 54 	b.hs	0x1000049a4 <__ZN4core5slice4sort7recurse17h2ae6b05b2cb1a1c5E+0x328>
100004980: 0e 2d 1c 9b 	madd	x14, x8, x28, x11
100004984: cf 01 40 f9 	ldr	x15, [x14]
100004988: 5f 01 0f eb 	cmp	x10, x15
10000498c: c3 00 00 54 	b.lo	0x1000049a4 <__ZN4core5slice4sort7recurse17h2ae6b05b2cb1a1c5E+0x328>
100004990: 08 05 00 91 	add	x8, x8, #1
100004994: ce a1 00 91 	add	x14, x14, #40
100004998: bf 01 08 eb 	cmp	x13, x8
10000499c: 41 ff ff 54 	b.ne	0x100004984 <__ZN4core5slice4sort7recurse17h2ae6b05b2cb1a1c5E+0x308>
1000049a0: e8 03 0d aa 	mov	x8, x13
1000049a4: 8e 61 1c 9b 	madd	x14, x12, x28, x24
1000049a8: 8c 05 00 d1 	sub	x12, x12, #1
1000049ac: 1f 01 0c eb 	cmp	x8, x12
1000049b0: 02 03 00 54 	b.hs	0x100004a10 <__ZN4core5slice4sort7recurse17h2ae6b05b2cb1a1c5E+0x394>
1000049b4: cd a1 00 d1 	sub	x13, x14, #40
1000049b8: cf 81 5d f8 	ldur	x15, [x14, #-40]
1000049bc: ee 03 0d aa 	mov	x14, x13
1000049c0: 5f 01 0f eb 	cmp	x10, x15
1000049c4: 23 ff ff 54 	b.lo	0x1000049a8 <__ZN4core5slice4sort7recurse17h2ae6b05b2cb1a1c5E+0x32c>
1000049c8: 0e 2d 1c 9b 	madd	x14, x8, x28, x11
1000049cc: c0 05 40 ad 	ldp	q0, q1, [x14]
1000049d0: cf 11 40 f9 	ldr	x15, [x14, #32]
1000049d4: ef 7b 00 f9 	str	x15, [sp, #240]
1000049d8: e0 87 06 ad 	stp	q0, q1, [sp, #208]
1000049dc: af 11 40 f9 	ldr	x15, [x13, #32]
1000049e0: a0 05 40 ad 	ldp	q0, q1, [x13]
1000049e4: cf 11 00 f9 	str	x15, [x14, #32]
1000049e8: c0 05 00 ad 	stp	q0, q1, [x14]
1000049ec: e0 87 46 ad 	ldp	q0, q1, [sp, #208]
1000049f0: ee 7b 40 f9 	ldr	x14, [sp, #240]
1000049f4: ae 11 00 f9 	str	x14, [x13, #32]
1000049f8: a0 05 00 ad 	stp	q0, q1, [x13]
1000049fc: 08 05 00 91 	add	x8, x8, #1
100004a00: 8d 05 00 d1 	sub	x13, x12, #1
100004a04: 1f 01 0d eb 	cmp	x8, x13
100004a08: c3 fb ff 54 	b.lo	0x100004980 <__ZN4core5slice4sort7recurse17h2ae6b05b2cb1a1c5E+0x304>
100004a0c: e6 ff ff 17 	b	0x1000049a4 <__ZN4core5slice4sort7recurse17h2ae6b05b2cb1a1c5E+0x328>
100004a10: 00 05 00 91 	add	x0, x8, #1
100004a14: 0a 03 00 f9 	str	x10, [x24]
100004a18: e0 87 42 ad 	ldp	q0, q1, [sp, #80]
100004a1c: 20 05 00 ad 	stp	q0, q1, [x9]
100004a20: 3a 03 00 eb 	subs	x26, x25, x0
100004a24: 43 31 00 54 	b.lo	0x10000504c <__ZN4core5slice4sort7recurse17h2ae6b05b2cb1a1c5E+0x9d0>
100004a28: 18 60 1c 9b 	madd	x24, x0, x28, x24
100004a2c: f9 03 1a aa 	mov	x25, x26
100004a30: 5f 57 00 f1 	cmp	x26, #21
100004a34: 42 e5 ff 54 	b.hs	0x1000046dc <__ZN4core5slice4sort7recurse17h2ae6b05b2cb1a1c5E+0x60>
100004a38: 37 01 00 14 	b	0x100004f14 <__ZN4core5slice4sort7recurse17h2ae6b05b2cb1a1c5E+0x898>
100004a3c: e0 03 18 aa 	mov	x0, x24
100004a40: e1 03 19 aa 	mov	x1, x25
100004a44: 95 ac 00 94 	bl	0x10002fc98 <__ZN4core5slice4sort22partial_insertion_sort17h869c3bee580e90f7E>
100004a48: 21 00 80 52 	mov	w1, #1
100004a4c: c0 f5 07 36 	tbz	w0, #0, 0x100004904 <__ZN4core5slice4sort7recurse17h2ae6b05b2cb1a1c5E+0x288>
100004a50: 6a 01 00 14 	b	0x100004ff8 <__ZN4core5slice4sort7recurse17h2ae6b05b2cb1a1c5E+0x97c>
100004a54: f3 03 18 aa 	mov	x19, x24
100004a58: f7 03 19 aa 	mov	x23, x25
100004a5c: 5f 03 17 eb 	cmp	x26, x23
100004a60: 62 2e 00 54 	b.hs	0x10000502c <__ZN4core5slice4sort7recurse17h2ae6b05b2cb1a1c5E+0x9b0>
100004a64: 48 4f 1c 9b 	madd	x8, x26, x28, x19
100004a68: 60 06 40 ad 	ldp	q0, q1, [x19]
100004a6c: 69 12 40 f9 	ldr	x9, [x19, #32]
100004a70: e9 7b 00 f9 	str	x9, [sp, #240]
100004a74: e0 87 06 ad 	stp	q0, q1, [sp, #208]
100004a78: 09 11 40 f9 	ldr	x9, [x8, #32]
100004a7c: 00 05 40 ad 	ldp	q0, q1, [x8]
100004a80: 69 12 00 f9 	str	x9, [x19, #32]
100004a84: 60 06 00 ad 	stp	q0, q1, [x19]
100004a88: e0 87 46 ad 	ldp	q0, q1, [sp, #208]
100004a8c: e9 7b 40 f9 	ldr	x9, [sp, #240]
100004a90: 09 11 00 f9 	str	x9, [x8, #32]
100004a94: 00 05 00 ad 	stp	q0, q1, [x8]
100004a98: 6a a2 00 91 	add	x10, x19, #40
100004a9c: 60 06 40 ad 	ldp	q0, q1, [x19]
100004aa0: 68 12 40 f9 	ldr	x8, [x19, #32]
100004aa4: e8 1b 00 f9 	str	x8, [sp, #48]
100004aa8: e0 87 00 ad 	stp	q0, q1, [sp, #16]
100004aac: e8 43 00 91 	add	x8, sp, #16
100004ab0: e8 4f 04 a9 	stp	x8, x19, [sp, #64]
100004ab4: eb 0b 40 f9 	ldr	x11, [sp, #16]
100004ab8: 00 00 80 d2 	mov	x0, #0
100004abc: e1 06 00 f1 	subs	x1, x23, #1
100004ac0: a0 01 00 54 	b.eq	0x100004af4 <__ZN4core5slice4sort7recurse17h2ae6b05b2cb1a1c5E+0x478>
100004ac4: e8 03 0a aa 	mov	x8, x10
100004ac8: f4 e7 02 b2 	mov	x20, #-3689348814741910324
100004acc: b4 99 99 f2 	movk	x20, #52429
100004ad0: 09 01 40 f9 	ldr	x9, [x8]
100004ad4: 3f 01 0b eb 	cmp	x9, x11
100004ad8: 22 01 00 54 	b.hs	0x100004afc <__ZN4core5slice4sort7recurse17h2ae6b05b2cb1a1c5E+0x480>
100004adc: 00 04 00 91 	add	x0, x0, #1
100004ae0: 08 a1 00 91 	add	x8, x8, #40
100004ae4: 3f 00 00 eb 	cmp	x1, x0
100004ae8: 41 ff ff 54 	b.ne	0x100004ad0 <__ZN4core5slice4sort7recurse17h2ae6b05b2cb1a1c5E+0x454>
100004aec: e0 03 01 aa 	mov	x0, x1
100004af0: 03 00 00 14 	b	0x100004afc <__ZN4core5slice4sort7recurse17h2ae6b05b2cb1a1c5E+0x480>
100004af4: f4 e7 02 b2 	mov	x20, #-3689348814741910324
100004af8: b4 99 99 f2 	movk	x20, #52429
100004afc: 1f 00 01 eb 	cmp	x0, x1
100004b00: 09 30 81 9a 	csel	x9, x0, x1, lo
100004b04: e8 7e 1c 9b 	mul	x8, x23, x28
100004b08: 0c a1 00 d1 	sub	x12, x8, #40
100004b0c: e8 03 17 aa 	mov	x8, x23
100004b10: 08 05 00 d1 	sub	x8, x8, #1
100004b14: 1f 01 00 eb 	cmp	x8, x0
100004b18: c9 00 00 54 	b.ls	0x100004b30 <__ZN4core5slice4sort7recurse17h2ae6b05b2cb1a1c5E+0x4b4>
100004b1c: 6d 6a 6c f8 	ldr	x13, [x19, x12]
100004b20: 8c a1 00 d1 	sub	x12, x12, #40
100004b24: bf 01 0b eb 	cmp	x13, x11
100004b28: 42 ff ff 54 	b.hs	0x100004b10 <__ZN4core5slice4sort7recurse17h2ae6b05b2cb1a1c5E+0x494>
100004b2c: 02 00 00 14 	b	0x100004b34 <__ZN4core5slice4sort7recurse17h2ae6b05b2cb1a1c5E+0x4b8>
100004b30: e8 03 09 aa 	mov	x8, x9
100004b34: 1f 01 00 eb 	cmp	x8, x0
100004b38: c3 29 00 54 	b.lo	0x100005070 <__ZN4core5slice4sort7recurse17h2ae6b05b2cb1a1c5E+0x9f4>
100004b3c: 1f 01 01 eb 	cmp	x8, x1
100004b40: e8 28 00 54 	b.hi	0x10000505c <__ZN4core5slice4sort7recurse17h2ae6b05b2cb1a1c5E+0x9e0>
100004b44: 0c 00 80 d2 	mov	x12, #0
100004b48: 0f 00 80 d2 	mov	x15, #0
100004b4c: 0d 00 80 d2 	mov	x13, #0
100004b50: 10 00 80 d2 	mov	x16, #0
100004b54: 09 28 1c 9b 	madd	x9, x0, x28, x10
100004b58: 0a 29 1c 9b 	madd	x10, x8, x28, x10
100004b5c: 11 10 80 52 	mov	w17, #128
100004b60: 01 10 80 52 	mov	w1, #128
100004b64: ee 03 09 aa 	mov	x14, x9
100004b68: 0f 00 00 14 	b	0x100004ba4 <__ZN4core5slice4sort7recurse17h2ae6b05b2cb1a1c5E+0x528>
100004b6c: a0 07 7c ad 	ldp	q0, q1, [x29, #-128]
100004b70: a3 03 5a f8 	ldur	x3, [x29, #-96]
100004b74: 83 10 00 f9 	str	x3, [x4, #32]
100004b78: 80 04 00 ad 	stp	q0, q1, [x4]
100004b7c: 10 06 00 91 	add	x16, x16, #1
100004b80: ef 05 00 91 	add	x15, x15, #1
100004b84: 1f 02 0d eb 	cmp	x16, x13
100004b88: 23 00 9f 9a 	csel	x3, x1, xzr, eq
100004b8c: 6e 38 1c 9b 	madd	x14, x3, x28, x14
100004b90: ff 01 0c eb 	cmp	x15, x12
100004b94: e3 17 91 da 	csneg	x3, xzr, x17, ne
100004b98: 6a 28 1c 9b 	madd	x10, x3, x28, x10
100004b9c: 5f 14 14 f1 	cmp	x2, #1285
100004ba0: e3 0e 00 54 	b.lo	0x100004d7c <__ZN4core5slice4sort7recurse17h2ae6b05b2cb1a1c5E+0x700>
100004ba4: 43 01 0e cb 	sub	x3, x10, x14
100004ba8: 62 fc 43 d3 	lsr	x2, x3, #3
100004bac: 5f 14 14 f1 	cmp	x2, #1285
100004bb0: c3 05 00 54 	b.lo	0x100004c68 <__ZN4core5slice4sort7recurse17h2ae6b05b2cb1a1c5E+0x5ec>
100004bb4: 1f 02 0d eb 	cmp	x16, x13
100004bb8: 00 08 00 54 	b.eq	0x100004cb8 <__ZN4core5slice4sort7recurse17h2ae6b05b2cb1a1c5E+0x63c>
100004bbc: ff 01 0c eb 	cmp	x15, x12
100004bc0: 60 0a 00 54 	b.eq	0x100004d0c <__ZN4core5slice4sort7recurse17h2ae6b05b2cb1a1c5E+0x690>
100004bc4: a3 01 10 cb 	sub	x3, x13, x16
100004bc8: 84 01 0f cb 	sub	x4, x12, x15
100004bcc: 7f 00 04 eb 	cmp	x3, x4
100004bd0: 83 80 83 9a 	csel	x3, x4, x3, hi
100004bd4: 83 fd ff b4 	cbz	x3, 0x100004b84 <__ZN4core5slice4sort7recurse17h2ae6b05b2cb1a1c5E+0x508>
100004bd8: 04 02 40 39 	ldrb	w4, [x16]
100004bdc: 84 38 1c 9b 	madd	x4, x4, x28, x14
100004be0: 80 04 40 ad 	ldp	q0, q1, [x4]
100004be4: 84 10 40 f9 	ldr	x4, [x4, #32]
100004be8: a4 03 1a f8 	stur	x4, [x29, #-96]
100004bec: a0 07 3c ad 	stp	q0, q1, [x29, #-128]
100004bf0: e5 01 40 39 	ldrb	w5, [x15]
100004bf4: e4 03 25 aa 	mvn	x4, x5
100004bf8: 84 28 1c 9b 	madd	x4, x4, x28, x10
100004bfc: 06 02 40 39 	ldrb	w6, [x16]
100004c00: c6 38 1c 9b 	madd	x6, x6, x28, x14
100004c04: 87 10 40 f9 	ldr	x7, [x4, #32]
100004c08: 81 00 40 ad 	ldp	q1, q0, [x4]
100004c0c: c1 00 00 ad 	stp	q1, q0, [x6]
100004c10: c7 10 00 f9 	str	x7, [x6, #32]
100004c14: 63 04 00 f1 	subs	x3, x3, #1
100004c18: a0 fa ff 54 	b.eq	0x100004b6c <__ZN4core5slice4sort7recurse17h2ae6b05b2cb1a1c5E+0x4f0>
100004c1c: 04 1e 40 38 	ldrb	w4, [x16, #1]!
100004c20: 86 38 1c 9b 	madd	x6, x4, x28, x14
100004c24: e4 03 25 2a 	mvn	w4, w5
100004c28: 84 dc 78 b2 	orr	x4, x4, #0xffffffffffffff00
100004c2c: 84 28 1c 9b 	madd	x4, x4, x28, x10
100004c30: c5 10 40 f9 	ldr	x5, [x6, #32]
100004c34: c1 00 40 ad 	ldp	q1, q0, [x6]
100004c38: 81 00 00 ad 	stp	q1, q0, [x4]
100004c3c: 85 10 00 f9 	str	x5, [x4, #32]
100004c40: e5 1d 40 38 	ldrb	w5, [x15, #1]!
100004c44: e4 03 25 aa 	mvn	x4, x5
100004c48: 84 28 1c 9b 	madd	x4, x4, x28, x10
100004c4c: 80 04 40 ad 	ldp	q0, q1, [x4]
100004c50: 87 10 40 f9 	ldr	x7, [x4, #32]
100004c54: c7 10 00 f9 	str	x7, [x6, #32]
100004c58: c0 04 00 ad 	stp	q0, q1, [x6]
100004c5c: 63 04 00 f1 	subs	x3, x3, #1
100004c60: e1 fd ff 54 	b.ne	0x100004c1c <__ZN4core5slice4sort7recurse17h2ae6b05b2cb1a1c5E+0x5a0>
100004c64: c2 ff ff 17 	b	0x100004b6c <__ZN4core5slice4sort7recurse17h2ae6b05b2cb1a1c5E+0x4f0>
100004c68: 63 7c d4 9b 	umulh	x3, x3, x20
100004c6c: 63 fc 45 d3 	lsr	x3, x3, #5
100004c70: 1f 02 0d eb 	cmp	x16, x13
100004c74: e4 27 9f 1a 	cset	w4, lo
100004c78: ff 01 0c eb 	cmp	x15, x12
100004c7c: e5 27 9f 1a 	cset	w5, lo
100004c80: 84 00 05 2a 	orr	w4, w4, w5
100004c84: 65 00 02 d1 	sub	x5, x3, #128
100004c88: 9f 00 00 71 	cmp	w4, #0
100004c8c: a3 10 83 9a 	csel	x3, x5, x3, ne
100004c90: 1f 02 0d eb 	cmp	x16, x13
100004c94: 71 30 91 9a 	csel	x17, x3, x17, lo
100004c98: 21 30 83 9a 	csel	x1, x1, x3, lo
100004c9c: 65 fc 41 d3 	lsr	x5, x3, #1
100004ca0: 63 00 05 cb 	sub	x3, x3, x5
100004ca4: 9f 00 00 72 	tst	w4, #0x1
100004ca8: 31 12 83 9a 	csel	x17, x17, x3, ne
100004cac: 21 10 85 9a 	csel	x1, x1, x5, ne
100004cb0: 1f 02 0d eb 	cmp	x16, x13
100004cb4: 41 f8 ff 54 	b.ne	0x100004bbc <__ZN4core5slice4sort7recurse17h2ae6b05b2cb1a1c5E+0x540>
100004cb8: 21 02 00 b4 	cbz	x1, 0x100004cfc <__ZN4core5slice4sort7recurse17h2ae6b05b2cb1a1c5E+0x680>
100004cbc: 03 00 80 d2 	mov	x3, #0
100004cc0: ed 43 01 91 	add	x13, sp, #80
100004cc4: f0 03 0e aa 	mov	x16, x14
100004cc8: e4 03 0d aa 	mov	x4, x13
100004ccc: 83 14 00 38 	strb	w3, [x4], #1
100004cd0: 65 04 00 91 	add	x5, x3, #1
100004cd4: 03 86 42 f8 	ldr	x3, [x16], #40
100004cd8: 7f 00 0b eb 	cmp	x3, x11
100004cdc: ad 31 84 9a 	csel	x13, x13, x4, lo
100004ce0: e3 03 05 aa 	mov	x3, x5
100004ce4: 3f 00 05 eb 	cmp	x1, x5
100004ce8: 01 ff ff 54 	b.ne	0x100004cc8 <__ZN4core5slice4sort7recurse17h2ae6b05b2cb1a1c5E+0x64c>
100004cec: f0 43 01 91 	add	x16, sp, #80
100004cf0: ff 01 0c eb 	cmp	x15, x12
100004cf4: 81 f6 ff 54 	b.ne	0x100004bc4 <__ZN4core5slice4sort7recurse17h2ae6b05b2cb1a1c5E+0x548>
100004cf8: 05 00 00 14 	b	0x100004d0c <__ZN4core5slice4sort7recurse17h2ae6b05b2cb1a1c5E+0x690>
100004cfc: ed 43 01 91 	add	x13, sp, #80
100004d00: f0 43 01 91 	add	x16, sp, #80
100004d04: ff 01 0c eb 	cmp	x15, x12
100004d08: e1 f5 ff 54 	b.ne	0x100004bc4 <__ZN4core5slice4sort7recurse17h2ae6b05b2cb1a1c5E+0x548>
100004d0c: 91 02 00 b4 	cbz	x17, 0x100004d5c <__ZN4core5slice4sort7recurse17h2ae6b05b2cb1a1c5E+0x6e0>
100004d10: 03 00 80 d2 	mov	x3, #0
100004d14: ec 43 03 91 	add	x12, sp, #208
100004d18: 4f a1 00 d1 	sub	x15, x10, #40
100004d1c: e4 03 0c aa 	mov	x4, x12
100004d20: 83 14 00 38 	strb	w3, [x4], #1
100004d24: 65 04 00 91 	add	x5, x3, #1
100004d28: e3 85 5d f8 	ldr	x3, [x15], #-40
100004d2c: 7f 00 0b eb 	cmp	x3, x11
100004d30: 8c 21 84 9a 	csel	x12, x12, x4, hs
100004d34: e3 03 05 aa 	mov	x3, x5
100004d38: 3f 02 05 eb 	cmp	x17, x5
100004d3c: 01 ff ff 54 	b.ne	0x100004d1c <__ZN4core5slice4sort7recurse17h2ae6b05b2cb1a1c5E+0x6a0>
100004d40: ef 43 03 91 	add	x15, sp, #208
100004d44: a3 01 10 cb 	sub	x3, x13, x16
100004d48: 84 01 0f cb 	sub	x4, x12, x15
100004d4c: 7f 00 04 eb 	cmp	x3, x4
100004d50: 83 80 83 9a 	csel	x3, x4, x3, hi
100004d54: 23 f4 ff b5 	cbnz	x3, 0x100004bd8 <__ZN4core5slice4sort7recurse17h2ae6b05b2cb1a1c5E+0x55c>
100004d58: 8b ff ff 17 	b	0x100004b84 <__ZN4core5slice4sort7recurse17h2ae6b05b2cb1a1c5E+0x508>
100004d5c: ec 43 03 91 	add	x12, sp, #208
100004d60: ef 43 03 91 	add	x15, sp, #208
100004d64: a3 01 10 cb 	sub	x3, x13, x16
100004d68: 84 01 0f cb 	sub	x4, x12, x15
100004d6c: 7f 00 04 eb 	cmp	x3, x4
100004d70: 83 80 83 9a 	csel	x3, x4, x3, hi
100004d74: 23 f3 ff b5 	cbnz	x3, 0x100004bd8 <__ZN4core5slice4sort7recurse17h2ae6b05b2cb1a1c5E+0x55c>
100004d78: 83 ff ff 17 	b	0x100004b84 <__ZN4core5slice4sort7recurse17h2ae6b05b2cb1a1c5E+0x508>
100004d7c: 1f 02 0d eb 	cmp	x16, x13
100004d80: 82 08 00 54 	b.hs	0x100004e90 <__ZN4core5slice4sort7recurse17h2ae6b05b2cb1a1c5E+0x814>
100004d84: ab fd 5f 38 	ldrb	w11, [x13, #-1]!
100004d88: 6c 39 1c 9b 	madd	x12, x11, x28, x14
100004d8c: 4b a1 00 d1 	sub	x11, x10, #40
100004d90: 80 05 40 ad 	ldp	q0, q1, [x12]
100004d94: 8f 11 40 f9 	ldr	x15, [x12, #32]
100004d98: af 03 1a f8 	stur	x15, [x29, #-96]
100004d9c: a0 07 3c ad 	stp	q0, q1, [x29, #-128]
100004da0: 40 81 dd 3c 	ldur	q0, [x10, #-40]
100004da4: 4f 81 5f f8 	ldur	x15, [x10, #-8]
100004da8: 41 81 de 3c 	ldur	q1, [x10, #-24]
100004dac: 8f 11 00 f9 	str	x15, [x12, #32]
100004db0: 80 05 00 ad 	stp	q0, q1, [x12]
100004db4: a0 07 7c ad 	ldp	q0, q1, [x29, #-128]
100004db8: ac 03 5a f8 	ldur	x12, [x29, #-96]
100004dbc: 4c 81 1f f8 	stur	x12, [x10, #-8]
100004dc0: 41 81 9e 3c 	stur	q1, [x10, #-24]
100004dc4: 40 81 9d 3c 	stur	q0, [x10, #-40]
100004dc8: ea 03 0b aa 	mov	x10, x11
100004dcc: 1f 02 0d eb 	cmp	x16, x13
100004dd0: a3 fd ff 54 	b.lo	0x100004d84 <__ZN4core5slice4sort7recurse17h2ae6b05b2cb1a1c5E+0x708>
100004dd4: 69 01 09 cb 	sub	x9, x11, x9
100004dd8: 29 7d d4 9b 	umulh	x9, x9, x20
100004ddc: 1a 14 49 8b 	add	x26, x0, x9, lsr #5
100004de0: e0 87 40 ad 	ldp	q0, q1, [sp, #16]
100004de4: e9 1b 40 f9 	ldr	x9, [sp, #48]
100004de8: 69 12 00 f9 	str	x9, [x19, #32]
100004dec: 60 06 00 ad 	stp	q0, q1, [x19]
100004df0: e9 02 1a eb 	subs	x9, x23, x26
100004df4: 29 12 00 54 	b.ls	0x100005038 <__ZN4core5slice4sort7recurse17h2ae6b05b2cb1a1c5E+0x9bc>
100004df8: 1f 00 08 eb 	cmp	x0, x8
100004dfc: f4 37 9f 1a 	cset	w20, hs
100004e00: 58 4f 1c 9b 	madd	x24, x26, x28, x19
100004e04: 60 06 40 ad 	ldp	q0, q1, [x19]
100004e08: 68 12 40 f9 	ldr	x8, [x19, #32]
100004e0c: e8 7b 00 f9 	str	x8, [sp, #240]
100004e10: e0 87 06 ad 	stp	q0, q1, [sp, #208]
100004e14: 08 13 40 f9 	ldr	x8, [x24, #32]
100004e18: 00 07 40 ad 	ldp	q0, q1, [x24]
100004e1c: 68 12 00 f9 	str	x8, [x19, #32]
100004e20: 60 06 00 ad 	stp	q0, q1, [x19]
100004e24: e0 87 46 ad 	ldp	q0, q1, [sp, #208]
100004e28: e8 7b 40 f9 	ldr	x8, [sp, #240]
100004e2c: 08 13 00 f9 	str	x8, [x24, #32]
100004e30: 00 07 00 ad 	stp	q0, q1, [x24]
100004e34: 5f 03 09 eb 	cmp	x26, x9
100004e38: 28 81 9a 9a 	csel	x8, x9, x26, hi
100004e3c: 1f 0d 57 eb 	cmp	x8, x23, lsr #3
100004e40: fb 37 9f 1a 	cset	w27, hs
100004e44: 09 12 00 b4 	cbz	x9, 0x100005084 <__ZN4core5slice4sort7recurse17h2ae6b05b2cb1a1c5E+0xa08>
100004e48: 17 a3 00 91 	add	x23, x24, #40
100004e4c: 39 05 00 d1 	sub	x25, x9, #1
100004e50: 5f 03 19 eb 	cmp	x26, x25
100004e54: a2 04 00 54 	b.hs	0x100004ee8 <__ZN4core5slice4sort7recurse17h2ae6b05b2cb1a1c5E+0x86c>
100004e58: e0 03 13 aa 	mov	x0, x19
100004e5c: e1 03 1a aa 	mov	x1, x26
100004e60: e2 07 40 f9 	ldr	x2, [sp, #8]
100004e64: e3 03 16 aa 	mov	x3, x22
100004e68: e4 03 15 aa 	mov	x4, x21
100004e6c: 04 fe ff 97 	bl	0x10000467c <__ZN4core5slice4sort7recurse17h2ae6b05b2cb1a1c5E>
100004e70: f6 03 18 aa 	mov	x22, x24
100004e74: fa 03 19 aa 	mov	x26, x25
100004e78: f3 03 17 aa 	mov	x19, x23
100004e7c: f7 03 1a aa 	mov	x23, x26
100004e80: 5f 57 00 f1 	cmp	x26, #21
100004e84: 21 00 80 52 	mov	w1, #1
100004e88: 42 c2 ff 54 	b.hs	0x1000046d0 <__ZN4core5slice4sort7recurse17h2ae6b05b2cb1a1c5E+0x54>
100004e8c: 23 00 00 14 	b	0x100004f18 <__ZN4core5slice4sort7recurse17h2ae6b05b2cb1a1c5E+0x89c>
100004e90: eb 03 0e aa 	mov	x11, x14
100004e94: ff 01 0c eb 	cmp	x15, x12
100004e98: e2 f9 ff 54 	b.hs	0x100004dd4 <__ZN4core5slice4sort7recurse17h2ae6b05b2cb1a1c5E+0x758>
100004e9c: 8d fd 5f 38 	ldrb	w13, [x12, #-1]!
100004ea0: ed 03 2d aa 	mvn	x13, x13
100004ea4: ad 29 1c 9b 	madd	x13, x13, x28, x10
100004ea8: 60 05 40 ad 	ldp	q0, q1, [x11]
100004eac: 6e 11 40 f9 	ldr	x14, [x11, #32]
100004eb0: ae 03 1a f8 	stur	x14, [x29, #-96]
100004eb4: a0 07 3c ad 	stp	q0, q1, [x29, #-128]
100004eb8: ae 11 40 f9 	ldr	x14, [x13, #32]
100004ebc: a0 05 40 ad 	ldp	q0, q1, [x13]
100004ec0: 6e 11 00 f9 	str	x14, [x11, #32]
100004ec4: 60 05 00 ad 	stp	q0, q1, [x11]
100004ec8: a0 07 7c ad 	ldp	q0, q1, [x29, #-128]
100004ecc: ae 03 5a f8 	ldur	x14, [x29, #-96]
100004ed0: ae 11 00 f9 	str	x14, [x13, #32]
100004ed4: a0 05 00 ad 	stp	q0, q1, [x13]
100004ed8: 6b a1 00 91 	add	x11, x11, #40
100004edc: ff 01 0c eb 	cmp	x15, x12
100004ee0: e3 fd ff 54 	b.lo	0x100004e9c <__ZN4core5slice4sort7recurse17h2ae6b05b2cb1a1c5E+0x820>
100004ee4: bc ff ff 17 	b	0x100004dd4 <__ZN4core5slice4sort7recurse17h2ae6b05b2cb1a1c5E+0x758>
100004ee8: e0 03 17 aa 	mov	x0, x23
100004eec: e1 03 19 aa 	mov	x1, x25
100004ef0: e2 07 40 f9 	ldr	x2, [sp, #8]
100004ef4: e3 03 18 aa 	mov	x3, x24
100004ef8: e4 03 15 aa 	mov	x4, x21
100004efc: e0 fd ff 97 	bl	0x10000467c <__ZN4core5slice4sort7recurse17h2ae6b05b2cb1a1c5E>
100004f00: f7 03 1a aa 	mov	x23, x26
100004f04: 5f 57 00 f1 	cmp	x26, #21
100004f08: 21 00 80 52 	mov	w1, #1
100004f0c: 22 be ff 54 	b.hs	0x1000046d0 <__ZN4core5slice4sort7recurse17h2ae6b05b2cb1a1c5E+0x54>
100004f10: 02 00 00 14 	b	0x100004f18 <__ZN4core5slice4sort7recurse17h2ae6b05b2cb1a1c5E+0x89c>
100004f14: f3 03 18 aa 	mov	x19, x24
100004f18: 5f 0b 00 f1 	cmp	x26, #2
100004f1c: e3 06 00 54 	b.lo	0x100004ff8 <__ZN4core5slice4sort7recurse17h2ae6b05b2cb1a1c5E+0x97c>
100004f20: 08 00 80 d2 	mov	x8, #0
100004f24: 29 00 80 52 	mov	w9, #1
100004f28: 0a 05 80 52 	mov	w10, #40
100004f2c: eb 03 13 aa 	mov	x11, x19
100004f30: 0b 00 00 14 	b	0x100004f5c <__ZN4core5slice4sort7recurse17h2ae6b05b2cb1a1c5E+0x8e0>
100004f34: ed 03 13 aa 	mov	x13, x19
100004f38: ac 01 00 f9 	str	x12, [x13]
100004f3c: e0 87 46 ad 	ldp	q0, q1, [sp, #208]
100004f40: a1 81 81 3c 	stur	q1, [x13, #24]
100004f44: a0 81 80 3c 	stur	q0, [x13, #8]
100004f48: 29 05 00 91 	add	x9, x9, #1
100004f4c: 6b a1 00 91 	add	x11, x11, #40
100004f50: 08 05 00 d1 	sub	x8, x8, #1
100004f54: 3f 01 1a eb 	cmp	x9, x26
100004f58: 00 05 00 54 	b.eq	0x100004ff8 <__ZN4core5slice4sort7recurse17h2ae6b05b2cb1a1c5E+0x97c>
100004f5c: 2e 4d 0a 9b 	madd	x14, x9, x10, x19
100004f60: cc 01 40 f9 	ldr	x12, [x14]
100004f64: cd 81 5d f8 	ldur	x13, [x14, #-40]
100004f68: 9f 01 0d eb 	cmp	x12, x13
100004f6c: e2 fe ff 54 	b.hs	0x100004f48 <__ZN4core5slice4sort7recurse17h2ae6b05b2cb1a1c5E+0x8cc>
100004f70: 2d 4d 0a 9b 	madd	x13, x9, x10, x19
100004f74: a0 81 c0 3c 	ldur	q0, [x13, #8]
100004f78: a1 81 c1 3c 	ldur	q1, [x13, #24]
100004f7c: e0 87 06 ad 	stp	q0, q1, [sp, #208]
100004f80: 2f 05 00 d1 	sub	x15, x9, #1
100004f84: ed 4d 0a 9b 	madd	x13, x15, x10, x19
100004f88: a0 05 40 ad 	ldp	q0, q1, [x13]
100004f8c: c0 05 00 ad 	stp	q0, q1, [x14]
100004f90: b0 11 40 f9 	ldr	x16, [x13, #32]
100004f94: d0 11 00 f9 	str	x16, [x14, #32]
100004f98: 0f fd ff b4 	cbz	x15, 0x100004f38 <__ZN4core5slice4sort7recurse17h2ae6b05b2cb1a1c5E+0x8bc>
100004f9c: 2e 4d 0a 9b 	madd	x14, x9, x10, x19
100004fa0: d0 01 5b f8 	ldur	x16, [x14, #-80]
100004fa4: ee 03 08 aa 	mov	x14, x8
100004fa8: ef 03 0b aa 	mov	x15, x11
100004fac: 9f 01 10 eb 	cmp	x12, x16
100004fb0: 42 fc ff 54 	b.hs	0x100004f38 <__ZN4core5slice4sort7recurse17h2ae6b05b2cb1a1c5E+0x8bc>
100004fb4: e0 81 dd 3c 	ldur	q0, [x15, #-40]
100004fb8: e1 81 de 3c 	ldur	q1, [x15, #-24]
100004fbc: e0 05 00 ad 	stp	q0, q1, [x15]
100004fc0: ed 81 5f f8 	ldur	x13, [x15, #-8]
100004fc4: ed 11 00 f9 	str	x13, [x15, #32]
100004fc8: ce 05 00 b1 	adds	x14, x14, #1
100004fcc: 42 fb ff 54 	b.hs	0x100004f34 <__ZN4core5slice4sort7recurse17h2ae6b05b2cb1a1c5E+0x8b8>
100004fd0: ed a1 00 d1 	sub	x13, x15, #40
100004fd4: f0 01 5b f8 	ldur	x16, [x15, #-80]
100004fd8: ef 03 0d aa 	mov	x15, x13
100004fdc: 9f 01 10 eb 	cmp	x12, x16
100004fe0: a3 fe ff 54 	b.lo	0x100004fb4 <__ZN4core5slice4sort7recurse17h2ae6b05b2cb1a1c5E+0x938>
100004fe4: d5 ff ff 17 	b	0x100004f38 <__ZN4core5slice4sort7recurse17h2ae6b05b2cb1a1c5E+0x8bc>
100004fe8: e0 03 18 aa 	mov	x0, x24
100004fec: e1 03 19 aa 	mov	x1, x25
100004ff0: e2 07 40 f9 	ldr	x2, [sp, #8]
100004ff4: ab ac 00 94 	bl	0x1000302a0 <__ZN4core5slice4sort8heapsort17h0f9745a891a8099fE>
100004ff8: fd 7b 5d a9 	ldp	x29, x30, [sp, #464]
100004ffc: f4 4f 5c a9 	ldp	x20, x19, [sp, #448]
100005000: f6 57 5b a9 	ldp	x22, x21, [sp, #432]
100005004: f8 5f 5a a9 	ldp	x24, x23, [sp, #416]
100005008: fa 67 59 a9 	ldp	x26, x25, [sp, #400]
10000500c: fc 6f 58 a9 	ldp	x28, x27, [sp, #384]
100005010: ff 83 07 91 	add	sp, sp, #480
100005014: c0 03 5f d6 	ret
100005018: 42 9e 19 10 	adr	x2, #209864
10000501c: 1f 20 03 d5 	nop
100005020: e0 03 1a aa 	mov	x0, x26
100005024: e1 03 19 aa 	mov	x1, x25
100005028: f6 b0 00 94 	bl	0x100031400 <__ZN4core9panicking18panic_bounds_check17h54a3444ed599ccd1E>
10000502c: 22 a2 19 10 	adr	x2, #209988
100005030: 1f 20 03 d5 	nop
100005034: 03 00 00 14 	b	0x100005040 <__ZN4core5slice4sort7recurse17h2ae6b05b2cb1a1c5E+0x9c4>
100005038: 42 a3 19 10 	adr	x2, #210024
10000503c: 1f 20 03 d5 	nop
100005040: e0 03 1a aa 	mov	x0, x26
100005044: e1 03 17 aa 	mov	x1, x23
100005048: ee b0 00 94 	bl	0x100031400 <__ZN4core9panicking18panic_bounds_check17h54a3444ed599ccd1E>
10000504c: 62 9d 19 10 	adr	x2, #209836
100005050: 1f 20 03 d5 	nop
100005054: e1 03 19 aa 	mov	x1, x25
100005058: 39 b1 00 94 	bl	0x10003153c <__ZN4core5slice5index26slice_start_index_len_fail17h7d2eb9b98c2d25e4E>
10000505c: 62 a1 19 10 	adr	x2, #209964
100005060: 1f 20 03 d5 	nop
100005064: e0 03 08 aa 	mov	x0, x8
100005068: 38 b1 00 94 	bl	0x100031548 <__ZN4core5slice5index24slice_end_index_len_fail17ha148152571519510E>
10000506c: 05 00 00 14 	b	0x100005080 <__ZN4core5slice4sort7recurse17h2ae6b05b2cb1a1c5E+0xa04>
100005070: c2 a0 19 10 	adr	x2, #209944
100005074: 1f 20 03 d5 	nop
100005078: e1 03 08 aa 	mov	x1, x8
10000507c: 36 b1 00 94 	bl	0x100031554 <__ZN4core5slice5index22slice_index_order_fail17h5452274d427e5b12E>
100005080: 20 00 20 d4 	brk	#0x1
100005084: 20 fe 16 30 	adr	x0, #188357
100005088: 1f 20 03 d5 	nop
10000508c: 22 9c 19 10 	adr	x2, #209796
100005090: 1f 20 03 d5 	nop
100005094: 61 04 80 52 	mov	w1, #35
100005098: cc b0 00 94 	bl	0x1000313c8 <__ZN4core9panicking5panic17h89917039f65f3f80E>
10000509c: f3 03 00 aa 	mov	x19, x0
1000050a0: e0 03 01 91 	add	x0, sp, #64
1000050a4: bc f8 ff 97 	bl	0x100003394 <__ZN4core3ptr86drop_in_place$LT$core..slice..sort..CopyOnDrop$LT$object..read..ObjectMapEntry$GT$$GT$17h7b43cb51212c1ef2E>
1000050a8: e0 03 13 aa 	mov	x0, x19
1000050ac: 5d b1 00 94 	bl	0x100031620 <_writev+0x100031620>

00000001000050b0 <__ZN4core5slice4sort7recurse17h87446c0a60ad25aeE>:
1000050b0: fc 6f ba a9 	stp	x28, x27, [sp, #-96]!
1000050b4: fa 67 01 a9 	stp	x26, x25, [sp, #16]
1000050b8: f8 5f 02 a9 	stp	x24, x23, [sp, #32]
1000050bc: f6 57 03 a9 	stp	x22, x21, [sp, #48]
1000050c0: f4 4f 04 a9 	stp	x20, x19, [sp, #64]
1000050c4: fd 7b 05 a9 	stp	x29, x30, [sp, #80]
1000050c8: fd 43 01 91 	add	x29, sp, #80
1000050cc: ff 83 07 d1 	sub	sp, sp, #480
1000050d0: e4 47 00 b9 	str	w4, [sp, #68]
1000050d4: e2 1b 00 f9 	str	x2, [sp, #48]
1000050d8: f9 03 01 aa 	mov	x25, x1
1000050dc: fc 03 00 aa 	mov	x28, x0
1000050e0: 3f 54 00 f1 	cmp	x1, #21
1000050e4: 62 00 00 54 	b.hs	0x1000050f0 <__ZN4core5slice4sort7recurse17h87446c0a60ad25aeE+0x40>
1000050e8: fa 03 19 aa 	mov	x26, x25
1000050ec: 38 02 00 14 	b	0x1000059cc <__ZN4core5slice4sort7recurse17h87446c0a60ad25aeE+0x91c>
1000050f0: f6 03 03 aa 	mov	x22, x3
1000050f4: b7 03 04 d1 	sub	x23, x29, #256
1000050f8: 3b 00 80 52 	mov	w27, #1
1000050fc: 33 00 80 52 	mov	w19, #1
100005100: 68 03 13 0a 	and	w8, w27, w19
100005104: e8 2b 00 b9 	str	w8, [sp, #40]
100005108: f8 03 1c aa 	mov	x24, x28
10000510c: f9 0b 00 f9 	str	x25, [sp, #16]
100005110: fc 1f 00 f9 	str	x28, [sp, #56]
100005114: f6 13 00 f9 	str	x22, [sp, #32]
100005118: fb 1b 00 b9 	str	w27, [sp, #24]
10000511c: e8 47 40 b9 	ldr	w8, [sp, #68]
100005120: 88 47 00 34 	cbz	w8, 0x100005a10 <__ZN4core5slice4sort7recurse17h87446c0a60ad25aeE+0x960>
100005124: 9b 17 00 36 	tbz	w27, #0, 0x100005414 <__ZN4core5slice4sort7recurse17h87446c0a60ad25aeE+0x364>
100005128: 28 ff 42 d3 	lsr	x8, x25, #2
10000512c: 13 f9 7f d3 	lsl	x19, x8, #1
100005130: e8 cf 06 a9 	stp	x8, x19, [sp, #104]
100005134: 74 02 08 8b 	add	x20, x19, x8
100005138: f4 df 07 a9 	stp	x20, x23, [sp, #120]
10000513c: ff 53 00 f9 	str	xzr, [sp, #160]
100005140: e9 1b 40 f9 	ldr	x9, [sp, #48]
100005144: a9 63 30 a9 	stp	x9, x24, [x29, #-256]
100005148: e9 83 02 91 	add	x9, sp, #160
10000514c: b9 27 31 a9 	stp	x25, x9, [x29, #-240]
100005150: 3f c7 00 f1 	cmp	x25, #49
100005154: 89 03 00 54 	b.ls	0x1000051c4 <__ZN4core5slice4sort7recurse17h87446c0a60ad25aeE+0x114>
100005158: 09 05 00 d1 	sub	x9, x8, #1
10000515c: a9 03 18 f8 	stur	x9, [x29, #-128]
100005160: 08 05 00 91 	add	x8, x8, #1
100005164: e8 5b 00 f9 	str	x8, [sp, #176]
100005168: e0 03 02 91 	add	x0, sp, #128
10000516c: a1 03 02 d1 	sub	x1, x29, #128
100005170: e2 a3 01 91 	add	x2, sp, #104
100005174: e3 c3 02 91 	add	x3, sp, #176
100005178: 62 fa ff 97 	bl	0x100003b00 <__ZN4core5slice4sort12choose_pivot28_$u7b$$u7b$closure$u7d$$u7d$17h019b65396bce466eE>
10000517c: 68 06 00 d1 	sub	x8, x19, #1
100005180: a8 03 18 f8 	stur	x8, [x29, #-128]
100005184: 68 02 40 b2 	orr	x8, x19, #0x1
100005188: e8 5b 00 f9 	str	x8, [sp, #176]
10000518c: e0 03 02 91 	add	x0, sp, #128
100005190: a1 03 02 d1 	sub	x1, x29, #128
100005194: e2 c3 01 91 	add	x2, sp, #112
100005198: e3 c3 02 91 	add	x3, sp, #176
10000519c: 59 fa ff 97 	bl	0x100003b00 <__ZN4core5slice4sort12choose_pivot28_$u7b$$u7b$closure$u7d$$u7d$17h019b65396bce466eE>
1000051a0: 88 06 00 d1 	sub	x8, x20, #1
1000051a4: a8 03 18 f8 	stur	x8, [x29, #-128]
1000051a8: 88 06 00 91 	add	x8, x20, #1
1000051ac: e8 5b 00 f9 	str	x8, [sp, #176]
1000051b0: e0 03 02 91 	add	x0, sp, #128
1000051b4: a1 03 02 d1 	sub	x1, x29, #128
1000051b8: e2 e3 01 91 	add	x2, sp, #120
1000051bc: e3 c3 02 91 	add	x3, sp, #176
1000051c0: 50 fa ff 97 	bl	0x100003b00 <__ZN4core5slice4sort12choose_pivot28_$u7b$$u7b$closure$u7d$$u7d$17h019b65396bce466eE>
1000051c4: e0 03 02 91 	add	x0, sp, #128
1000051c8: e1 a3 01 91 	add	x1, sp, #104
1000051cc: e2 c3 01 91 	add	x2, sp, #112
1000051d0: e3 e3 01 91 	add	x3, sp, #120
1000051d4: 4b fa ff 97 	bl	0x100003b00 <__ZN4core5slice4sort12choose_pivot28_$u7b$$u7b$closure$u7d$$u7d$17h019b65396bce466eE>
1000051d8: e8 53 40 f9 	ldr	x8, [sp, #160]
1000051dc: 1f 31 00 f1 	cmp	x8, #12
1000051e0: 22 01 00 54 	b.hs	0x100005204 <__ZN4core5slice4sort7recurse17h87446c0a60ad25aeE+0x154>
1000051e4: fa 3b 40 f9 	ldr	x26, [sp, #112]
1000051e8: 1f 01 00 f1 	cmp	x8, #0
1000051ec: e8 17 9f 1a 	cset	w8, eq
1000051f0: 14 03 80 52 	mov	w20, #24
1000051f4: e9 2b 40 b9 	ldr	w9, [sp, #40]
1000051f8: 28 01 08 0a 	and	w8, w9, w8
1000051fc: 88 03 00 36 	tbz	w8, #0, 0x10000526c <__ZN4core5slice4sort7recurse17h87446c0a60ad25aeE+0x1bc>
100005200: 8c 00 00 14 	b	0x100005430 <__ZN4core5slice4sort7recurse17h87446c0a60ad25aeE+0x380>
100005204: 28 ff 41 d3 	lsr	x8, x25, #1
100005208: 14 03 80 52 	mov	w20, #24
10000520c: 29 63 14 9b 	madd	x9, x25, x20, x24
100005210: 29 61 00 d1 	sub	x9, x9, #24
100005214: ea 03 18 aa 	mov	x10, x24
100005218: 40 01 c0 3d 	ldr	q0, [x10]
10000521c: 4b 09 40 f9 	ldr	x11, [x10, #16]
100005220: ab 03 11 f8 	stur	x11, [x29, #-240]
100005224: e0 02 80 3d 	str	q0, [x23]
100005228: 20 01 c0 3d 	ldr	q0, [x9]
10000522c: 2b 09 40 f9 	ldr	x11, [x9, #16]
100005230: 4b 09 00 f9 	str	x11, [x10, #16]
100005234: 40 85 81 3c 	str	q0, [x10], #24
100005238: e0 02 c0 3d 	ldr	q0, [x23]
10000523c: ab 03 51 f8 	ldur	x11, [x29, #-240]
100005240: 2b 09 00 f9 	str	x11, [x9, #16]
100005244: 20 85 9e 3c 	str	q0, [x9], #-24
100005248: 08 05 00 d1 	sub	x8, x8, #1
10000524c: 68 fe ff b5 	cbnz	x8, 0x100005218 <__ZN4core5slice4sort7recurse17h87446c0a60ad25aeE+0x168>
100005250: e8 3b 40 f9 	ldr	x8, [sp, #112]
100005254: e8 03 28 aa 	mvn	x8, x8
100005258: 3a 03 08 8b 	add	x26, x25, x8
10000525c: 28 00 80 52 	mov	w8, #1
100005260: e9 2b 40 b9 	ldr	w9, [sp, #40]
100005264: 28 01 08 0a 	and	w8, w9, w8
100005268: 48 0e 00 37 	tbnz	w8, #0, 0x100005430 <__ZN4core5slice4sort7recurse17h87446c0a60ad25aeE+0x380>
10000526c: d6 0e 00 b4 	cbz	x22, 0x100005444 <__ZN4core5slice4sort7recurse17h87446c0a60ad25aeE+0x394>
100005270: 5f 03 19 eb 	cmp	x26, x25
100005274: 82 3d 00 54 	b.hs	0x100005a24 <__ZN4core5slice4sort7recurse17h87446c0a60ad25aeE+0x974>
100005278: 55 63 14 9b 	madd	x21, x26, x20, x24
10000527c: c0 22 40 a9 	ldp	x0, x8, [x22]
100005280: a1 26 40 a9 	ldp	x1, x9, [x21]
100005284: 13 01 09 eb 	subs	x19, x8, x9
100005288: 02 31 89 9a 	csel	x2, x8, x9, lo
10000528c: 1e b1 00 94 	bl	0x100031704 <_writev+0x100031704>
100005290: 08 7c 40 93 	sxtw	x8, w0
100005294: 1f 00 00 71 	cmp	w0, #0
100005298: 68 02 88 9a 	csel	x8, x19, x8, eq
10000529c: a8 0d f8 b7 	tbnz	x8, #63, 0x100005450 <__ZN4core5slice4sort7recurse17h87446c0a60ad25aeE+0x3a0>
1000052a0: 14 00 80 d2 	mov	x20, #0
1000052a4: 00 03 c0 3d 	ldr	q0, [x24]
1000052a8: 08 0b 40 f9 	ldr	x8, [x24, #16]
1000052ac: a8 03 11 f8 	stur	x8, [x29, #-240]
1000052b0: e0 02 80 3d 	str	q0, [x23]
1000052b4: a0 02 c0 3d 	ldr	q0, [x21]
1000052b8: a8 0a 40 f9 	ldr	x8, [x21, #16]
1000052bc: 08 0b 00 f9 	str	x8, [x24, #16]
1000052c0: 00 03 80 3d 	str	q0, [x24]
1000052c4: e0 02 c0 3d 	ldr	q0, [x23]
1000052c8: a8 03 51 f8 	ldur	x8, [x29, #-240]
1000052cc: a8 0a 00 f9 	str	x8, [x21, #16]
1000052d0: a0 02 80 3d 	str	q0, [x21]
1000052d4: 17 63 00 91 	add	x23, x24, #24
1000052d8: 1a 03 40 f9 	ldr	x26, [x24]
1000052dc: 00 83 c0 3c 	ldur	q0, [x24, #8]
1000052e0: e0 17 80 3d 	str	q0, [sp, #80]
1000052e4: 16 00 66 9e 	fmov	x22, d0
1000052e8: 08 83 00 91 	add	x8, x24, #32
1000052ec: e8 27 00 f9 	str	x8, [sp, #72]
1000052f0: fc 03 19 aa 	mov	x28, x25
1000052f4: 9b 07 00 d1 	sub	x27, x28, #1
1000052f8: 9f 02 1b eb 	cmp	x20, x27
1000052fc: 42 02 00 54 	b.hs	0x100005344 <__ZN4core5slice4sort7recurse17h87446c0a60ad25aeE+0x294>
100005300: 08 03 80 52 	mov	w8, #24
100005304: e9 27 40 f9 	ldr	x9, [sp, #72]
100005308: 93 26 08 9b 	madd	x19, x20, x8, x9
10000530c: 61 a2 7f a9 	ldp	x1, x8, [x19, #-8]
100005310: d5 02 08 eb 	subs	x21, x22, x8
100005314: c2 32 88 9a 	csel	x2, x22, x8, lo
100005318: e0 03 1a aa 	mov	x0, x26
10000531c: fa b0 00 94 	bl	0x100031704 <_writev+0x100031704>
100005320: 08 7c 40 93 	sxtw	x8, w0
100005324: 1f 00 00 71 	cmp	w0, #0
100005328: a8 02 88 9a 	csel	x8, x21, x8, eq
10000532c: c8 00 f8 b7 	tbnz	x8, #63, 0x100005344 <__ZN4core5slice4sort7recurse17h87446c0a60ad25aeE+0x294>
100005330: 94 06 00 91 	add	x20, x20, #1
100005334: 73 62 00 91 	add	x19, x19, #24
100005338: 7f 03 14 eb 	cmp	x27, x20
10000533c: 81 fe ff 54 	b.ne	0x10000530c <__ZN4core5slice4sort7recurse17h87446c0a60ad25aeE+0x25c>
100005340: f4 03 1b aa 	mov	x20, x27
100005344: 08 03 80 52 	mov	w8, #24
100005348: 88 63 08 9b 	madd	x8, x28, x8, x24
10000534c: 9c 07 00 d1 	sub	x28, x28, #1
100005350: 9f 02 1c eb 	cmp	x20, x28
100005354: 02 04 00 54 	b.hs	0x1000053d4 <__ZN4core5slice4sort7recurse17h87446c0a60ad25aeE+0x324>
100005358: 1b 61 00 d1 	sub	x27, x8, #24
10000535c: 01 a1 7e a9 	ldp	x1, x8, [x8, #-24]
100005360: d3 02 08 eb 	subs	x19, x22, x8
100005364: c2 32 88 9a 	csel	x2, x22, x8, lo
100005368: e0 03 1a aa 	mov	x0, x26
10000536c: e6 b0 00 94 	bl	0x100031704 <_writev+0x100031704>
100005370: 08 7c 40 93 	sxtw	x8, w0
100005374: 1f 00 00 71 	cmp	w0, #0
100005378: 69 02 88 9a 	csel	x9, x19, x8, eq
10000537c: e8 03 1b aa 	mov	x8, x27
100005380: 69 fe ff b7 	tbnz	x9, #63, 0x10000534c <__ZN4core5slice4sort7recurse17h87446c0a60ad25aeE+0x29c>
100005384: 08 03 80 52 	mov	w8, #24
100005388: 88 5e 08 9b 	madd	x8, x20, x8, x23
10000538c: 00 01 c0 3d 	ldr	q0, [x8]
100005390: 09 09 40 f9 	ldr	x9, [x8, #16]
100005394: a9 03 11 f8 	stur	x9, [x29, #-240]
100005398: aa 03 04 d1 	sub	x10, x29, #256
10000539c: 40 01 80 3d 	str	q0, [x10]
1000053a0: 60 03 c0 3d 	ldr	q0, [x27]
1000053a4: 69 0b 40 f9 	ldr	x9, [x27, #16]
1000053a8: 09 09 00 f9 	str	x9, [x8, #16]
1000053ac: 00 01 80 3d 	str	q0, [x8]
1000053b0: 40 01 c0 3d 	ldr	q0, [x10]
1000053b4: a8 03 51 f8 	ldur	x8, [x29, #-240]
1000053b8: 68 0b 00 f9 	str	x8, [x27, #16]
1000053bc: 60 03 80 3d 	str	q0, [x27]
1000053c0: 94 06 00 91 	add	x20, x20, #1
1000053c4: 9b 07 00 d1 	sub	x27, x28, #1
1000053c8: 9f 02 1b eb 	cmp	x20, x27
1000053cc: a3 f9 ff 54 	b.lo	0x100005300 <__ZN4core5slice4sort7recurse17h87446c0a60ad25aeE+0x250>
1000053d0: dd ff ff 17 	b	0x100005344 <__ZN4core5slice4sort7recurse17h87446c0a60ad25aeE+0x294>
1000053d4: 80 06 00 91 	add	x0, x20, #1
1000053d8: 1a 03 00 f9 	str	x26, [x24]
1000053dc: e0 17 c0 3d 	ldr	q0, [sp, #80]
1000053e0: 00 83 80 3c 	stur	q0, [x24, #8]
1000053e4: 3a 03 00 eb 	subs	x26, x25, x0
1000053e8: 43 34 00 54 	b.lo	0x100005a70 <__ZN4core5slice4sort7recurse17h87446c0a60ad25aeE+0x9c0>
1000053ec: 08 03 80 52 	mov	w8, #24
1000053f0: 18 60 08 9b 	madd	x24, x0, x8, x24
1000053f4: f9 03 1a aa 	mov	x25, x26
1000053f8: 5f 57 00 f1 	cmp	x26, #21
1000053fc: fc 1f 40 f9 	ldr	x28, [sp, #56]
100005400: f6 13 40 f9 	ldr	x22, [sp, #32]
100005404: b7 03 04 d1 	sub	x23, x29, #256
100005408: fb 1b 40 b9 	ldr	w27, [sp, #24]
10000540c: 82 e8 ff 54 	b.hs	0x10000511c <__ZN4core5slice4sort7recurse17h87446c0a60ad25aeE+0x6c>
100005410: 6e 01 00 14 	b	0x1000059c8 <__ZN4core5slice4sort7recurse17h87446c0a60ad25aeE+0x918>
100005414: e0 03 18 aa 	mov	x0, x24
100005418: e1 03 19 aa 	mov	x1, x25
10000541c: a5 a8 00 94 	bl	0x10002f6b0 <__ZN4core5slice4sort14break_patterns17h05c084840c207480E>
100005420: e8 47 40 b9 	ldr	w8, [sp, #68]
100005424: 08 05 00 51 	sub	w8, w8, #1
100005428: e8 47 00 b9 	str	w8, [sp, #68]
10000542c: 3f ff ff 17 	b	0x100005128 <__ZN4core5slice4sort7recurse17h87446c0a60ad25aeE+0x78>
100005430: e0 03 18 aa 	mov	x0, x24
100005434: e1 03 19 aa 	mov	x1, x25
100005438: 6c a9 00 94 	bl	0x10002f9e8 <__ZN4core5slice4sort22partial_insertion_sort17h3a73e73c2eaa32dcE>
10000543c: 80 f1 07 36 	tbz	w0, #0, 0x10000526c <__ZN4core5slice4sort7recurse17h87446c0a60ad25aeE+0x1bc>
100005440: 6c 01 00 14 	b	0x1000059f0 <__ZN4core5slice4sort7recurse17h87446c0a60ad25aeE+0x940>
100005444: f9 0b 40 f9 	ldr	x25, [sp, #16]
100005448: 79 00 00 b5 	cbnz	x25, 0x100005454 <__ZN4core5slice4sort7recurse17h87446c0a60ad25aeE+0x3a4>
10000544c: 84 01 00 14 	b	0x100005a5c <__ZN4core5slice4sort7recurse17h87446c0a60ad25aeE+0x9ac>
100005450: fc 03 18 aa 	mov	x28, x24
100005454: 5f 03 19 eb 	cmp	x26, x25
100005458: 02 2f 00 54 	b.hs	0x100005a38 <__ZN4core5slice4sort7recurse17h87446c0a60ad25aeE+0x988>
10000545c: 15 03 80 52 	mov	w21, #24
100005460: 48 73 14 9b 	madd	x8, x26, x20, x28
100005464: 80 03 c0 3d 	ldr	q0, [x28]
100005468: 89 0b 40 f9 	ldr	x9, [x28, #16]
10000546c: a9 03 11 f8 	stur	x9, [x29, #-240]
100005470: e0 02 80 3d 	str	q0, [x23]
100005474: 00 01 c0 3d 	ldr	q0, [x8]
100005478: 09 09 40 f9 	ldr	x9, [x8, #16]
10000547c: 89 0b 00 f9 	str	x9, [x28, #16]
100005480: 80 03 80 3d 	str	q0, [x28]
100005484: e0 02 c0 3d 	ldr	q0, [x23]
100005488: a9 03 51 f8 	ldur	x9, [x29, #-240]
10000548c: 09 09 00 f9 	str	x9, [x8, #16]
100005490: 00 01 80 3d 	str	q0, [x8]
100005494: 80 03 c0 3d 	ldr	q0, [x28]
100005498: 88 0b 40 f9 	ldr	x8, [x28, #16]
10000549c: e8 4b 00 f9 	str	x8, [sp, #144]
1000054a0: e0 23 80 3d 	str	q0, [sp, #128]
1000054a4: e8 03 02 91 	add	x8, sp, #128
1000054a8: e8 73 0a a9 	stp	x8, x28, [sp, #160]
1000054ac: fa 5f 48 a9 	ldp	x26, x23, [sp, #128]
1000054b0: 18 00 80 d2 	mov	x24, #0
1000054b4: 3b 07 00 f1 	subs	x27, x25, #1
1000054b8: 00 02 00 54 	b.eq	0x1000054f8 <__ZN4core5slice4sort7recurse17h87446c0a60ad25aeE+0x448>
1000054bc: 93 83 00 91 	add	x19, x28, #32
1000054c0: 60 a2 7f a9 	ldp	x0, x8, [x19, #-8]
1000054c4: 14 01 17 eb 	subs	x20, x8, x23
1000054c8: 02 31 97 9a 	csel	x2, x8, x23, lo
1000054cc: e1 03 1a aa 	mov	x1, x26
1000054d0: 8d b0 00 94 	bl	0x100031704 <_writev+0x100031704>
1000054d4: 08 7c 40 93 	sxtw	x8, w0
1000054d8: 1f 00 00 71 	cmp	w0, #0
1000054dc: 88 02 88 9a 	csel	x8, x20, x8, eq
1000054e0: c8 00 f8 b6 	tbz	x8, #63, 0x1000054f8 <__ZN4core5slice4sort7recurse17h87446c0a60ad25aeE+0x448>
1000054e4: 18 07 00 91 	add	x24, x24, #1
1000054e8: 73 62 00 91 	add	x19, x19, #24
1000054ec: 7f 03 18 eb 	cmp	x27, x24
1000054f0: 81 fe ff 54 	b.ne	0x1000054c0 <__ZN4core5slice4sort7recurse17h87446c0a60ad25aeE+0x410>
1000054f4: f8 03 1b aa 	mov	x24, x27
1000054f8: 94 63 00 91 	add	x20, x28, #24
1000054fc: 1f 03 1b eb 	cmp	x24, x27
100005500: 08 33 9b 9a 	csel	x8, x24, x27, lo
100005504: e8 2b 00 f9 	str	x8, [sp, #80]
100005508: 28 73 15 9b 	madd	x8, x25, x21, x28
10000550c: 15 61 00 d1 	sub	x21, x8, #24
100005510: ea 03 19 aa 	mov	x10, x25
100005514: 4a 05 00 d1 	sub	x10, x10, #1
100005518: 5f 01 18 eb 	cmp	x10, x24
10000551c: a9 01 00 54 	b.ls	0x100005550 <__ZN4core5slice4sort7recurse17h87446c0a60ad25aeE+0x4a0>
100005520: a0 a2 fe a8 	ldp	x0, x8, [x21], #-24
100005524: 16 01 17 eb 	subs	x22, x8, x23
100005528: 02 31 97 9a 	csel	x2, x8, x23, lo
10000552c: e1 03 1a aa 	mov	x1, x26
100005530: f3 03 0a aa 	mov	x19, x10
100005534: 74 b0 00 94 	bl	0x100031704 <_writev+0x100031704>
100005538: ea 03 13 aa 	mov	x10, x19
10000553c: 08 7c 40 93 	sxtw	x8, w0
100005540: 1f 00 00 71 	cmp	w0, #0
100005544: c8 02 88 9a 	csel	x8, x22, x8, eq
100005548: 68 fe ff b6 	tbz	x8, #63, 0x100005514 <__ZN4core5slice4sort7recurse17h87446c0a60ad25aeE+0x464>
10000554c: 02 00 00 14 	b	0x100005554 <__ZN4core5slice4sort7recurse17h87446c0a60ad25aeE+0x4a4>
100005550: ea 2b 40 f9 	ldr	x10, [sp, #80]
100005554: 5f 01 18 eb 	cmp	x10, x24
100005558: 03 2a 00 54 	b.lo	0x100005a98 <__ZN4core5slice4sort7recurse17h87446c0a60ad25aeE+0x9e8>
10000555c: f9 63 01 a9 	stp	x25, x24, [sp, #16]
100005560: fc 1f 00 f9 	str	x28, [sp, #56]
100005564: 5f 01 1b eb 	cmp	x10, x27
100005568: c8 28 00 54 	b.hi	0x100005a80 <__ZN4core5slice4sort7recurse17h87446c0a60ad25aeE+0x9d0>
10000556c: 15 00 80 d2 	mov	x21, #0
100005570: 18 00 80 d2 	mov	x24, #0
100005574: 13 00 80 d2 	mov	x19, #0
100005578: 1c 00 80 d2 	mov	x28, #0
10000557c: 08 03 80 52 	mov	w8, #24
100005580: e9 0f 40 f9 	ldr	x9, [sp, #24]
100005584: 36 51 08 9b 	madd	x22, x9, x8, x20
100005588: ea 5b 00 a9 	stp	x10, x22, [sp]
10000558c: 5b 51 08 9b 	madd	x27, x10, x8, x20
100005590: 0d 03 80 52 	mov	w13, #24
100005594: 0e 10 80 52 	mov	w14, #128
100005598: 0f 10 80 52 	mov	w15, #128
10000559c: 10 00 00 14 	b	0x1000055dc <__ZN4core5slice4sort7recurse17h87446c0a60ad25aeE+0x52c>
1000055a0: a8 03 04 d1 	sub	x8, x29, #256
1000055a4: 00 21 c0 3d 	ldr	q0, [x8, #128]
1000055a8: a8 03 59 f8 	ldur	x8, [x29, #-112]
1000055ac: 28 09 00 f9 	str	x8, [x9, #16]
1000055b0: 20 01 80 3d 	str	q0, [x9]
1000055b4: 9c 07 00 91 	add	x28, x28, #1
1000055b8: 18 07 00 91 	add	x24, x24, #1
1000055bc: 9f 03 13 eb 	cmp	x28, x19
1000055c0: e8 01 9f 9a 	csel	x8, x15, xzr, eq
1000055c4: 16 59 0d 9b 	madd	x22, x8, x13, x22
1000055c8: 1f 03 15 eb 	cmp	x24, x21
1000055cc: e8 17 8e da 	csneg	x8, xzr, x14, ne
1000055d0: 1b 6d 0d 9b 	madd	x27, x8, x13, x27
1000055d4: 1f 0e 0c f1 	cmp	x16, #771
1000055d8: 23 12 00 54 	b.lo	0x10000581c <__ZN4core5slice4sort7recurse17h87446c0a60ad25aeE+0x76c>
1000055dc: 68 03 16 cb 	sub	x8, x27, x22
1000055e0: 10 fd 43 d3 	lsr	x16, x8, #3
1000055e4: 1f 0e 0c f1 	cmp	x16, #771
1000055e8: 62 02 00 54 	b.hs	0x100005634 <__ZN4core5slice4sort7recurse17h87446c0a60ad25aeE+0x584>
1000055ec: e9 f3 01 b2 	mov	x9, #-6148914691236517206
1000055f0: 69 55 95 f2 	movk	x9, #43691
1000055f4: 08 7d c9 9b 	umulh	x8, x8, x9
1000055f8: 08 fd 44 d3 	lsr	x8, x8, #4
1000055fc: 9f 03 13 eb 	cmp	x28, x19
100005600: e9 27 9f 1a 	cset	w9, lo
100005604: 1f 03 15 eb 	cmp	x24, x21
100005608: ea 27 9f 1a 	cset	w10, lo
10000560c: 29 01 0a 2a 	orr	w9, w9, w10
100005610: 0a 01 02 d1 	sub	x10, x8, #128
100005614: 3f 01 00 71 	cmp	w9, #0
100005618: 48 11 88 9a 	csel	x8, x10, x8, ne
10000561c: 9f 03 13 eb 	cmp	x28, x19
100005620: 0e 31 8e 9a 	csel	x14, x8, x14, lo
100005624: ef 31 88 9a 	csel	x15, x15, x8, lo
100005628: 69 00 00 37 	tbnz	w9, #0, 0x100005634 <__ZN4core5slice4sort7recurse17h87446c0a60ad25aeE+0x584>
10000562c: 0f fd 41 d3 	lsr	x15, x8, #1
100005630: 0e 01 0f cb 	sub	x14, x8, x15
100005634: 9f 03 13 eb 	cmp	x28, x19
100005638: a0 05 00 54 	b.eq	0x1000056ec <__ZN4core5slice4sort7recurse17h87446c0a60ad25aeE+0x63c>
10000563c: 1f 03 15 eb 	cmp	x24, x21
100005640: a0 09 00 54 	b.eq	0x100005774 <__ZN4core5slice4sort7recurse17h87446c0a60ad25aeE+0x6c4>
100005644: 68 02 1c cb 	sub	x8, x19, x28
100005648: a9 02 18 cb 	sub	x9, x21, x24
10000564c: 1f 01 09 eb 	cmp	x8, x9
100005650: 28 81 88 9a 	csel	x8, x9, x8, hi
100005654: 48 fb ff b4 	cbz	x8, 0x1000055bc <__ZN4core5slice4sort7recurse17h87446c0a60ad25aeE+0x50c>
100005658: 89 03 40 39 	ldrb	w9, [x28]
10000565c: 29 59 0d 9b 	madd	x9, x9, x13, x22
100005660: 20 01 c0 3d 	ldr	q0, [x9]
100005664: 29 09 40 f9 	ldr	x9, [x9, #16]
100005668: a9 03 19 f8 	stur	x9, [x29, #-112]
10000566c: a9 03 04 d1 	sub	x9, x29, #256
100005670: 20 21 80 3d 	str	q0, [x9, #128]
100005674: 0a 03 40 39 	ldrb	w10, [x24]
100005678: e9 03 2a aa 	mvn	x9, x10
10000567c: 29 6d 0d 9b 	madd	x9, x9, x13, x27
100005680: 8b 03 40 39 	ldrb	w11, [x28]
100005684: 6b 59 0d 9b 	madd	x11, x11, x13, x22
100005688: 2c 09 40 f9 	ldr	x12, [x9, #16]
10000568c: 20 01 c0 3d 	ldr	q0, [x9]
100005690: 60 01 80 3d 	str	q0, [x11]
100005694: 6c 09 00 f9 	str	x12, [x11, #16]
100005698: 08 05 00 f1 	subs	x8, x8, #1
10000569c: 20 f8 ff 54 	b.eq	0x1000055a0 <__ZN4core5slice4sort7recurse17h87446c0a60ad25aeE+0x4f0>
1000056a0: 89 1f 40 38 	ldrb	w9, [x28, #1]!
1000056a4: 2b 59 0d 9b 	madd	x11, x9, x13, x22
1000056a8: e9 03 2a 2a 	mvn	w9, w10
1000056ac: 29 dd 78 b2 	orr	x9, x9, #0xffffffffffffff00
1000056b0: 29 6d 0d 9b 	madd	x9, x9, x13, x27
1000056b4: 6a 09 40 f9 	ldr	x10, [x11, #16]
1000056b8: 60 01 c0 3d 	ldr	q0, [x11]
1000056bc: 20 01 80 3d 	str	q0, [x9]
1000056c0: 2a 09 00 f9 	str	x10, [x9, #16]
1000056c4: 0a 1f 40 38 	ldrb	w10, [x24, #1]!
1000056c8: e9 03 2a aa 	mvn	x9, x10
1000056cc: 29 6d 0d 9b 	madd	x9, x9, x13, x27
1000056d0: 2c 09 40 f9 	ldr	x12, [x9, #16]
1000056d4: 20 01 c0 3d 	ldr	q0, [x9]
1000056d8: 60 01 80 3d 	str	q0, [x11]
1000056dc: 6c 09 00 f9 	str	x12, [x11, #16]
1000056e0: 08 05 00 f1 	subs	x8, x8, #1
1000056e4: e1 fd ff 54 	b.ne	0x1000056a0 <__ZN4core5slice4sort7recurse17h87446c0a60ad25aeE+0x5f0>
1000056e8: ae ff ff 17 	b	0x1000055a0 <__ZN4core5slice4sort7recurse17h87446c0a60ad25aeE+0x4f0>
1000056ec: cf 03 00 b4 	cbz	x15, 0x100005764 <__ZN4core5slice4sort7recurse17h87446c0a60ad25aeE+0x6b4>
1000056f0: f0 db 04 a9 	stp	x16, x22, [sp, #72]
1000056f4: ee 17 00 f9 	str	x14, [sp, #40]
1000056f8: 08 00 80 d2 	mov	x8, #0
1000056fc: f3 c3 02 91 	add	x19, sp, #176
100005700: fc 03 16 aa 	mov	x28, x22
100005704: 19 05 00 91 	add	x25, x8, #1
100005708: 68 02 00 39 	strb	w8, [x19]
10000570c: 80 a3 c1 a8 	ldp	x0, x8, [x28], #24
100005710: 14 01 17 eb 	subs	x20, x8, x23
100005714: 02 31 97 9a 	csel	x2, x8, x23, lo
100005718: e1 03 1a aa 	mov	x1, x26
10000571c: f6 03 0f aa 	mov	x22, x15
100005720: f9 af 00 94 	bl	0x100031704 <_writev+0x100031704>
100005724: ef 03 16 aa 	mov	x15, x22
100005728: 08 7c 40 93 	sxtw	x8, w0
10000572c: 1f 00 00 71 	cmp	w0, #0
100005730: 88 02 88 9a 	csel	x8, x20, x8, eq
100005734: e8 03 28 aa 	mvn	x8, x8
100005738: 73 fe 48 8b 	add	x19, x19, x8, lsr #63
10000573c: e8 03 19 aa 	mov	x8, x25
100005740: df 02 19 eb 	cmp	x22, x25
100005744: 01 fe ff 54 	b.ne	0x100005704 <__ZN4core5slice4sort7recurse17h87446c0a60ad25aeE+0x654>
100005748: fc c3 02 91 	add	x28, sp, #176
10000574c: 0d 03 80 52 	mov	w13, #24
100005750: ee 17 40 f9 	ldr	x14, [sp, #40]
100005754: f0 db 44 a9 	ldp	x16, x22, [sp, #72]
100005758: 1f 03 15 eb 	cmp	x24, x21
10000575c: 41 f7 ff 54 	b.ne	0x100005644 <__ZN4core5slice4sort7recurse17h87446c0a60ad25aeE+0x594>
100005760: 05 00 00 14 	b	0x100005774 <__ZN4core5slice4sort7recurse17h87446c0a60ad25aeE+0x6c4>
100005764: f3 c3 02 91 	add	x19, sp, #176
100005768: fc c3 02 91 	add	x28, sp, #176
10000576c: 1f 03 15 eb 	cmp	x24, x21
100005770: a1 f6 ff 54 	b.ne	0x100005644 <__ZN4core5slice4sort7recurse17h87446c0a60ad25aeE+0x594>
100005774: 4e 04 00 b4 	cbz	x14, 0x1000057fc <__ZN4core5slice4sort7recurse17h87446c0a60ad25aeE+0x74c>
100005778: f0 db 04 a9 	stp	x16, x22, [sp, #72]
10000577c: ef 17 00 f9 	str	x15, [sp, #40]
100005780: 08 00 80 d2 	mov	x8, #0
100005784: b5 03 04 d1 	sub	x21, x29, #256
100005788: 78 63 00 d1 	sub	x24, x27, #24
10000578c: 14 05 00 91 	add	x20, x8, #1
100005790: a8 02 00 39 	strb	w8, [x21]
100005794: 00 a3 fe a8 	ldp	x0, x8, [x24], #-24
100005798: 19 01 17 eb 	subs	x25, x8, x23
10000579c: 02 31 97 9a 	csel	x2, x8, x23, lo
1000057a0: e1 03 1a aa 	mov	x1, x26
1000057a4: f6 03 1a aa 	mov	x22, x26
1000057a8: fa 03 0e aa 	mov	x26, x14
1000057ac: d6 af 00 94 	bl	0x100031704 <_writev+0x100031704>
1000057b0: ee 03 1a aa 	mov	x14, x26
1000057b4: fa 03 16 aa 	mov	x26, x22
1000057b8: 08 7c 40 93 	sxtw	x8, w0
1000057bc: 1f 00 00 71 	cmp	w0, #0
1000057c0: 28 03 88 9a 	csel	x8, x25, x8, eq
1000057c4: b5 fe 48 8b 	add	x21, x21, x8, lsr #63
1000057c8: e8 03 14 aa 	mov	x8, x20
1000057cc: df 01 14 eb 	cmp	x14, x20
1000057d0: e1 fd ff 54 	b.ne	0x10000578c <__ZN4core5slice4sort7recurse17h87446c0a60ad25aeE+0x6dc>
1000057d4: b8 03 04 d1 	sub	x24, x29, #256
1000057d8: 0d 03 80 52 	mov	w13, #24
1000057dc: f0 db 44 a9 	ldp	x16, x22, [sp, #72]
1000057e0: ef 17 40 f9 	ldr	x15, [sp, #40]
1000057e4: 68 02 1c cb 	sub	x8, x19, x28
1000057e8: a9 02 18 cb 	sub	x9, x21, x24
1000057ec: 1f 01 09 eb 	cmp	x8, x9
1000057f0: 28 81 88 9a 	csel	x8, x9, x8, hi
1000057f4: 28 f3 ff b5 	cbnz	x8, 0x100005658 <__ZN4core5slice4sort7recurse17h87446c0a60ad25aeE+0x5a8>
1000057f8: 71 ff ff 17 	b	0x1000055bc <__ZN4core5slice4sort7recurse17h87446c0a60ad25aeE+0x50c>
1000057fc: b5 03 04 d1 	sub	x21, x29, #256
100005800: b8 03 04 d1 	sub	x24, x29, #256
100005804: 68 02 1c cb 	sub	x8, x19, x28
100005808: a9 02 18 cb 	sub	x9, x21, x24
10000580c: 1f 01 09 eb 	cmp	x8, x9
100005810: 28 81 88 9a 	csel	x8, x9, x8, hi
100005814: 28 f2 ff b5 	cbnz	x8, 0x100005658 <__ZN4core5slice4sort7recurse17h87446c0a60ad25aeE+0x5a8>
100005818: 69 ff ff 17 	b	0x1000055bc <__ZN4core5slice4sort7recurse17h87446c0a60ad25aeE+0x50c>
10000581c: 9f 03 13 eb 	cmp	x28, x19
100005820: ab 03 04 d1 	sub	x11, x29, #256
100005824: 22 09 00 54 	b.hs	0x100005948 <__ZN4core5slice4sort7recurse17h87446c0a60ad25aeE+0x898>
100005828: 68 fe 5f 38 	ldrb	w8, [x19, #-1]!
10000582c: 09 59 0d 9b 	madd	x9, x8, x13, x22
100005830: 68 63 00 d1 	sub	x8, x27, #24
100005834: 20 01 c0 3d 	ldr	q0, [x9]
100005838: 2a 09 40 f9 	ldr	x10, [x9, #16]
10000583c: aa 03 19 f8 	stur	x10, [x29, #-112]
100005840: 60 21 80 3d 	str	q0, [x11, #128]
100005844: 60 83 de 3c 	ldur	q0, [x27, #-24]
100005848: 6a 83 5f f8 	ldur	x10, [x27, #-8]
10000584c: 2a 09 00 f9 	str	x10, [x9, #16]
100005850: 20 01 80 3d 	str	q0, [x9]
100005854: 60 21 c0 3d 	ldr	q0, [x11, #128]
100005858: a9 03 59 f8 	ldur	x9, [x29, #-112]
10000585c: 69 83 1f f8 	stur	x9, [x27, #-8]
100005860: 60 83 9e 3c 	stur	q0, [x27, #-24]
100005864: fb 03 08 aa 	mov	x27, x8
100005868: 9f 03 13 eb 	cmp	x28, x19
10000586c: e3 fd ff 54 	b.lo	0x100005828 <__ZN4core5slice4sort7recurse17h87446c0a60ad25aeE+0x778>
100005870: e9 87 40 a9 	ldp	x9, x1, [sp, #8]
100005874: 08 01 09 cb 	sub	x8, x8, x9
100005878: e9 f3 01 b2 	mov	x9, #-6148914691236517206
10000587c: 69 55 95 f2 	movk	x9, #43691
100005880: 08 7d c9 9b 	umulh	x8, x8, x9
100005884: e0 23 c0 3d 	ldr	q0, [sp, #128]
100005888: e9 4b 40 f9 	ldr	x9, [sp, #144]
10000588c: ea 0f 40 f9 	ldr	x10, [sp, #24]
100005890: 5a 11 48 8b 	add	x26, x10, x8, lsr #4
100005894: fc 1f 40 f9 	ldr	x28, [sp, #56]
100005898: 89 0b 00 f9 	str	x9, [x28, #16]
10000589c: 80 03 80 3d 	str	q0, [x28]
1000058a0: 28 00 1a eb 	subs	x8, x1, x26
1000058a4: 49 0d 00 54 	b.ls	0x100005a4c <__ZN4core5slice4sort7recurse17h87446c0a60ad25aeE+0x99c>
1000058a8: e9 03 40 f9 	ldr	x9, [sp]
1000058ac: 5f 01 09 eb 	cmp	x10, x9
1000058b0: f3 37 9f 1a 	cset	w19, hs
1000058b4: 58 73 0d 9b 	madd	x24, x26, x13, x28
1000058b8: 80 03 c0 3d 	ldr	q0, [x28]
1000058bc: 89 0b 40 f9 	ldr	x9, [x28, #16]
1000058c0: a9 03 11 f8 	stur	x9, [x29, #-240]
1000058c4: 60 01 80 3d 	str	q0, [x11]
1000058c8: 00 03 c0 3d 	ldr	q0, [x24]
1000058cc: 09 0b 40 f9 	ldr	x9, [x24, #16]
1000058d0: 89 0b 00 f9 	str	x9, [x28, #16]
1000058d4: 80 03 80 3d 	str	q0, [x28]
1000058d8: 60 01 c0 3d 	ldr	q0, [x11]
1000058dc: a9 03 51 f8 	ldur	x9, [x29, #-240]
1000058e0: 09 0b 00 f9 	str	x9, [x24, #16]
1000058e4: 00 03 80 3d 	str	q0, [x24]
1000058e8: 5f 03 08 eb 	cmp	x26, x8
1000058ec: 09 81 9a 9a 	csel	x9, x8, x26, hi
1000058f0: 3f 0d 41 eb 	cmp	x9, x1, lsr #3
1000058f4: fb 37 9f 1a 	cset	w27, hs
1000058f8: c8 0d 00 b4 	cbz	x8, 0x100005ab0 <__ZN4core5slice4sort7recurse17h87446c0a60ad25aeE+0xa00>
1000058fc: 17 63 00 91 	add	x23, x24, #24
100005900: 19 05 00 d1 	sub	x25, x8, #1
100005904: 5f 03 19 eb 	cmp	x26, x25
100005908: f6 13 40 f9 	ldr	x22, [sp, #32]
10000590c: 82 04 00 54 	b.hs	0x10000599c <__ZN4core5slice4sort7recurse17h87446c0a60ad25aeE+0x8ec>
100005910: e0 03 1c aa 	mov	x0, x28
100005914: e1 03 1a aa 	mov	x1, x26
100005918: e2 1b 40 f9 	ldr	x2, [sp, #48]
10000591c: e3 03 16 aa 	mov	x3, x22
100005920: e4 47 40 b9 	ldr	w4, [sp, #68]
100005924: e3 fd ff 97 	bl	0x1000050b0 <__ZN4core5slice4sort7recurse17h87446c0a60ad25aeE>
100005928: f6 03 18 aa 	mov	x22, x24
10000592c: fa 03 19 aa 	mov	x26, x25
100005930: fc 03 17 aa 	mov	x28, x23
100005934: f9 03 1a aa 	mov	x25, x26
100005938: 5f 57 00 f1 	cmp	x26, #21
10000593c: b7 03 04 d1 	sub	x23, x29, #256
100005940: 02 be ff 54 	b.hs	0x100005100 <__ZN4core5slice4sort7recurse17h87446c0a60ad25aeE+0x50>
100005944: 22 00 00 14 	b	0x1000059cc <__ZN4core5slice4sort7recurse17h87446c0a60ad25aeE+0x91c>
100005948: e8 03 16 aa 	mov	x8, x22
10000594c: 1f 03 15 eb 	cmp	x24, x21
100005950: 02 f9 ff 54 	b.hs	0x100005870 <__ZN4core5slice4sort7recurse17h87446c0a60ad25aeE+0x7c0>
100005954: a9 fe 5f 38 	ldrb	w9, [x21, #-1]!
100005958: e9 03 29 aa 	mvn	x9, x9
10000595c: 29 6d 0d 9b 	madd	x9, x9, x13, x27
100005960: 00 01 c0 3d 	ldr	q0, [x8]
100005964: 0a 09 40 f9 	ldr	x10, [x8, #16]
100005968: aa 03 19 f8 	stur	x10, [x29, #-112]
10000596c: 60 21 80 3d 	str	q0, [x11, #128]
100005970: 20 01 c0 3d 	ldr	q0, [x9]
100005974: 2a 09 40 f9 	ldr	x10, [x9, #16]
100005978: 0a 09 00 f9 	str	x10, [x8, #16]
10000597c: 00 85 81 3c 	str	q0, [x8], #24
100005980: 60 21 c0 3d 	ldr	q0, [x11, #128]
100005984: aa 03 59 f8 	ldur	x10, [x29, #-112]
100005988: 2a 09 00 f9 	str	x10, [x9, #16]
10000598c: 20 01 80 3d 	str	q0, [x9]
100005990: 1f 03 15 eb 	cmp	x24, x21
100005994: 03 fe ff 54 	b.lo	0x100005954 <__ZN4core5slice4sort7recurse17h87446c0a60ad25aeE+0x8a4>
100005998: b6 ff ff 17 	b	0x100005870 <__ZN4core5slice4sort7recurse17h87446c0a60ad25aeE+0x7c0>
10000599c: e0 03 17 aa 	mov	x0, x23
1000059a0: e1 03 19 aa 	mov	x1, x25
1000059a4: e2 1b 40 f9 	ldr	x2, [sp, #48]
1000059a8: e3 03 18 aa 	mov	x3, x24
1000059ac: e4 47 40 b9 	ldr	w4, [sp, #68]
1000059b0: c0 fd ff 97 	bl	0x1000050b0 <__ZN4core5slice4sort7recurse17h87446c0a60ad25aeE>
1000059b4: f9 03 1a aa 	mov	x25, x26
1000059b8: 5f 57 00 f1 	cmp	x26, #21
1000059bc: b7 03 04 d1 	sub	x23, x29, #256
1000059c0: 02 ba ff 54 	b.hs	0x100005100 <__ZN4core5slice4sort7recurse17h87446c0a60ad25aeE+0x50>
1000059c4: 02 00 00 14 	b	0x1000059cc <__ZN4core5slice4sort7recurse17h87446c0a60ad25aeE+0x91c>
1000059c8: fc 03 18 aa 	mov	x28, x24
1000059cc: 5f 0b 00 f1 	cmp	x26, #2
1000059d0: 03 01 00 54 	b.lo	0x1000059f0 <__ZN4core5slice4sort7recurse17h87446c0a60ad25aeE+0x940>
1000059d4: 34 00 80 52 	mov	w20, #1
1000059d8: 94 06 00 91 	add	x20, x20, #1
1000059dc: e0 03 1c aa 	mov	x0, x28
1000059e0: e1 03 14 aa 	mov	x1, x20
1000059e4: 03 f8 ff 97 	bl	0x1000039f0 <__ZN4core5slice4sort10shift_tail17h715b357f8599b822E>
1000059e8: 5f 03 14 eb 	cmp	x26, x20
1000059ec: 61 ff ff 54 	b.ne	0x1000059d8 <__ZN4core5slice4sort7recurse17h87446c0a60ad25aeE+0x928>
1000059f0: ff 83 07 91 	add	sp, sp, #480
1000059f4: fd 7b 45 a9 	ldp	x29, x30, [sp, #80]
1000059f8: f4 4f 44 a9 	ldp	x20, x19, [sp, #64]
1000059fc: f6 57 43 a9 	ldp	x22, x21, [sp, #48]
100005a00: f8 5f 42 a9 	ldp	x24, x23, [sp, #32]
100005a04: fa 67 41 a9 	ldp	x26, x25, [sp, #16]
100005a08: fc 6f c6 a8 	ldp	x28, x27, [sp], #96
100005a0c: c0 03 5f d6 	ret
100005a10: e0 03 18 aa 	mov	x0, x24
100005a14: e1 03 19 aa 	mov	x1, x25
100005a18: e2 1b 40 f9 	ldr	x2, [sp, #48]
100005a1c: 3b ab 00 94 	bl	0x100030708 <__ZN4core5slice4sort8heapsort17ha0f003029ab41209E>
100005a20: f4 ff ff 17 	b	0x1000059f0 <__ZN4core5slice4sort7recurse17h87446c0a60ad25aeE+0x940>
100005a24: e2 4d 19 10 	adr	x2, #207292
100005a28: 1f 20 03 d5 	nop
100005a2c: e0 03 1a aa 	mov	x0, x26
100005a30: e1 03 19 aa 	mov	x1, x25
100005a34: 73 ae 00 94 	bl	0x100031400 <__ZN4core9panicking18panic_bounds_check17h54a3444ed599ccd1E>
100005a38: c2 51 19 10 	adr	x2, #207416
100005a3c: 1f 20 03 d5 	nop
100005a40: e0 03 1a aa 	mov	x0, x26
100005a44: e1 03 19 aa 	mov	x1, x25
100005a48: 6e ae 00 94 	bl	0x100031400 <__ZN4core9panicking18panic_bounds_check17h54a3444ed599ccd1E>
100005a4c: a2 52 19 10 	adr	x2, #207444
100005a50: 1f 20 03 d5 	nop
100005a54: e0 03 1a aa 	mov	x0, x26
100005a58: 6a ae 00 94 	bl	0x100031400 <__ZN4core9panicking18panic_bounds_check17h54a3444ed599ccd1E>
100005a5c: a2 50 19 10 	adr	x2, #207380
100005a60: 1f 20 03 d5 	nop
100005a64: 00 00 80 d2 	mov	x0, #0
100005a68: 01 00 80 d2 	mov	x1, #0
100005a6c: 65 ae 00 94 	bl	0x100031400 <__ZN4core9panicking18panic_bounds_check17h54a3444ed599ccd1E>
100005a70: 42 4c 19 10 	adr	x2, #207240
100005a74: 1f 20 03 d5 	nop
100005a78: e1 03 19 aa 	mov	x1, x25
100005a7c: b0 ae 00 94 	bl	0x10003153c <__ZN4core5slice5index26slice_start_index_len_fail17h7d2eb9b98c2d25e4E>
100005a80: 42 50 19 10 	adr	x2, #207368
100005a84: 1f 20 03 d5 	nop
100005a88: e0 03 0a aa 	mov	x0, x10
100005a8c: e1 03 1b aa 	mov	x1, x27
100005a90: ae ae 00 94 	bl	0x100031548 <__ZN4core5slice5index24slice_end_index_len_fail17ha148152571519510E>
100005a94: 06 00 00 14 	b	0x100005aac <__ZN4core5slice4sort7recurse17h87446c0a60ad25aeE+0x9fc>
100005a98: 82 4f 19 10 	adr	x2, #207344
100005a9c: 1f 20 03 d5 	nop
100005aa0: e0 03 18 aa 	mov	x0, x24
100005aa4: e1 03 0a aa 	mov	x1, x10
100005aa8: ab ae 00 94 	bl	0x100031554 <__ZN4core5slice5index22slice_index_order_fail17h5452274d427e5b12E>
100005aac: 20 00 20 d4 	brk	#0x1
100005ab0: c0 ac 16 30 	adr	x0, #185753
100005ab4: 1f 20 03 d5 	nop
100005ab8: c2 4a 19 10 	adr	x2, #207192
100005abc: 1f 20 03 d5 	nop
100005ac0: 61 04 80 52 	mov	w1, #35
100005ac4: 41 ae 00 94 	bl	0x1000313c8 <__ZN4core9panicking5panic17h89917039f65f3f80E>
100005ac8: f3 03 00 aa 	mov	x19, x0
100005acc: e0 83 02 91 	add	x0, sp, #160
100005ad0: 67 f6 ff 97 	bl	0x10000346c <__ZN4core3ptr88drop_in_place$LT$core..slice..sort..CopyOnDrop$LT$$LP$$RF$$u5b$u8$u5d$$C$u64$RP$$GT$$GT$17h02f7ba8a7b487027E>
100005ad4: e0 03 13 aa 	mov	x0, x19
100005ad8: d2 ae 00 94 	bl	0x100031620 <_writev+0x100031620>

0000000100005adc <__ZN4core5slice4sort8heapsort28_$u7b$$u7b$closure$u7d$$u7d$17h213455c474446df2E>:
100005adc: ff c3 01 d1 	sub	sp, sp, #112
100005ae0: fa 67 02 a9 	stp	x26, x25, [sp, #32]
100005ae4: f8 5f 03 a9 	stp	x24, x23, [sp, #48]
100005ae8: f6 57 04 a9 	stp	x22, x21, [sp, #64]
100005aec: f4 4f 05 a9 	stp	x20, x19, [sp, #80]
100005af0: fd 7b 06 a9 	stp	x29, x30, [sp, #96]
100005af4: fd 83 01 91 	add	x29, sp, #96
100005af8: 38 00 80 52 	mov	w24, #1
100005afc: 78 f8 7f b3 	bfi	x24, x3, #1, #63
100005b00: 1f 03 02 eb 	cmp	x24, x2
100005b04: 82 06 00 54 	b.hs	0x100005bd4 <__ZN4core5slice4sort8heapsort28_$u7b$$u7b$closure$u7d$$u7d$17h213455c474446df2E+0xf8>
100005b08: f5 03 03 aa 	mov	x21, x3
100005b0c: f3 03 02 aa 	mov	x19, x2
100005b10: f4 03 01 aa 	mov	x20, x1
100005b14: 68 f8 7f d3 	lsl	x8, x3, #1
100005b18: 17 03 80 52 	mov	w23, #24
100005b1c: 16 09 00 91 	add	x22, x8, #2
100005b20: df 02 13 eb 	cmp	x22, x19
100005b24: c2 01 00 54 	b.hs	0x100005b5c <__ZN4core5slice4sort8heapsort28_$u7b$$u7b$closure$u7d$$u7d$17h213455c474446df2E+0x80>
100005b28: 08 53 17 9b 	madd	x8, x24, x23, x20
100005b2c: 00 21 40 a9 	ldp	x0, x8, [x8]
100005b30: c9 52 17 9b 	madd	x9, x22, x23, x20
100005b34: 21 25 40 a9 	ldp	x1, x9, [x9]
100005b38: 19 01 09 eb 	subs	x25, x8, x9
100005b3c: 02 31 89 9a 	csel	x2, x8, x9, lo
100005b40: f1 ae 00 94 	bl	0x100031704 <_writev+0x100031704>
100005b44: 08 7c 40 93 	sxtw	x8, w0
100005b48: 1f 00 00 71 	cmp	w0, #0
100005b4c: 28 03 88 9a 	csel	x8, x25, x8, eq
100005b50: 1f 01 00 f1 	cmp	x8, #0
100005b54: d6 b2 98 9a 	csel	x22, x22, x24, lt
100005b58: 02 00 00 14 	b	0x100005b60 <__ZN4core5slice4sort8heapsort28_$u7b$$u7b$closure$u7d$$u7d$17h213455c474446df2E+0x84>
100005b5c: f6 03 18 aa 	mov	x22, x24
100005b60: bf 02 13 eb 	cmp	x21, x19
100005b64: 62 04 00 54 	b.hs	0x100005bf0 <__ZN4core5slice4sort8heapsort28_$u7b$$u7b$closure$u7d$$u7d$17h213455c474446df2E+0x114>
100005b68: df 02 13 eb 	cmp	x22, x19
100005b6c: c2 04 00 54 	b.hs	0x100005c04 <__ZN4core5slice4sort8heapsort28_$u7b$$u7b$closure$u7d$$u7d$17h213455c474446df2E+0x128>
100005b70: b8 52 17 9b 	madd	x24, x21, x23, x20
100005b74: d5 52 17 9b 	madd	x21, x22, x23, x20
100005b78: 00 23 40 a9 	ldp	x0, x8, [x24]
100005b7c: a1 26 40 a9 	ldp	x1, x9, [x21]
100005b80: 19 01 09 eb 	subs	x25, x8, x9
100005b84: 02 31 89 9a 	csel	x2, x8, x9, lo
100005b88: df ae 00 94 	bl	0x100031704 <_writev+0x100031704>
100005b8c: 08 7c 40 93 	sxtw	x8, w0
100005b90: 1f 00 00 71 	cmp	w0, #0
100005b94: 28 03 88 9a 	csel	x8, x25, x8, eq
100005b98: e8 01 f8 b6 	tbz	x8, #63, 0x100005bd4 <__ZN4core5slice4sort8heapsort28_$u7b$$u7b$closure$u7d$$u7d$17h213455c474446df2E+0xf8>
100005b9c: 08 0b 40 f9 	ldr	x8, [x24, #16]
100005ba0: 00 03 c0 3d 	ldr	q0, [x24]
100005ba4: a9 0a 40 f9 	ldr	x9, [x21, #16]
100005ba8: a1 02 c0 3d 	ldr	q1, [x21]
100005bac: 01 03 80 3d 	str	q1, [x24]
100005bb0: 09 0b 00 f9 	str	x9, [x24, #16]
100005bb4: a0 02 80 3d 	str	q0, [x21]
100005bb8: a8 0a 00 f9 	str	x8, [x21, #16]
100005bbc: c8 fa 7f d3 	lsl	x8, x22, #1
100005bc0: 38 00 80 52 	mov	w24, #1
100005bc4: d8 fa 7f b3 	bfi	x24, x22, #1, #63
100005bc8: f5 03 16 aa 	mov	x21, x22
100005bcc: 1f 03 13 eb 	cmp	x24, x19
100005bd0: 63 fa ff 54 	b.lo	0x100005b1c <__ZN4core5slice4sort8heapsort28_$u7b$$u7b$closure$u7d$$u7d$17h213455c474446df2E+0x40>
100005bd4: fd 7b 46 a9 	ldp	x29, x30, [sp, #96]
100005bd8: f4 4f 45 a9 	ldp	x20, x19, [sp, #80]
100005bdc: f6 57 44 a9 	ldp	x22, x21, [sp, #64]
100005be0: f8 5f 43 a9 	ldp	x24, x23, [sp, #48]
100005be4: fa 67 42 a9 	ldp	x26, x25, [sp, #32]
100005be8: ff c3 01 91 	add	sp, sp, #112
100005bec: c0 03 5f d6 	ret
100005bf0: 82 42 19 10 	adr	x2, #206928
100005bf4: 1f 20 03 d5 	nop
100005bf8: e0 03 15 aa 	mov	x0, x21
100005bfc: e1 03 13 aa 	mov	x1, x19
100005c00: 00 ae 00 94 	bl	0x100031400 <__ZN4core9panicking18panic_bounds_check17h54a3444ed599ccd1E>
100005c04: a2 42 19 10 	adr	x2, #206932
100005c08: 1f 20 03 d5 	nop
100005c0c: e0 03 16 aa 	mov	x0, x22
100005c10: e1 03 13 aa 	mov	x1, x19
100005c14: fb ad 00 94 	bl	0x100031400 <__ZN4core9panicking18panic_bounds_check17h54a3444ed599ccd1E>

0000000100005c18 <__ZN4core6option15Option$LT$T$GT$6unwrap17h72e6b5482fb25369E>:
100005c18: 40 00 00 b4 	cbz	x0, 0x100005c20 <__ZN4core6option15Option$LT$T$GT$6unwrap17h72e6b5482fb25369E+0x8>
100005c1c: c0 03 5f d6 	ret
100005c20: fd 7b bf a9 	stp	x29, x30, [sp, #-16]!
100005c24: fd 03 00 91 	mov	x29, sp
100005c28: 00 a7 16 50 	adr	x0, #185570
100005c2c: 1f 20 03 d5 	nop
100005c30: 82 a0 19 10 	adr	x2, #209936
100005c34: 1f 20 03 d5 	nop
100005c38: 61 05 80 52 	mov	w1, #43
100005c3c: e3 ad 00 94 	bl	0x1000313c8 <__ZN4core9panicking5panic17h89917039f65f3f80E>

0000000100005c40 <__ZN4core6option15Option$LT$T$GT$6unwrap17hb2c0d78e1a5ff183E>:
100005c40: 40 00 00 b4 	cbz	x0, 0x100005c48 <__ZN4core6option15Option$LT$T$GT$6unwrap17hb2c0d78e1a5ff183E+0x8>
100005c44: c0 03 5f d6 	ret
100005c48: fd 7b bf a9 	stp	x29, x30, [sp, #-16]!
100005c4c: fd 03 00 91 	mov	x29, sp
100005c50: e2 03 01 aa 	mov	x2, x1
100005c54: a0 a5 16 50 	adr	x0, #185526
100005c58: 1f 20 03 d5 	nop
100005c5c: 61 05 80 52 	mov	w1, #43
100005c60: da ad 00 94 	bl	0x1000313c8 <__ZN4core9panicking5panic17h89917039f65f3f80E>

0000000100005c64 <__ZN50_$LT$$BP$mut$u20$T$u20$as$u20$core..fmt..Debug$GT$3fmt17h7542a1fe8705c3ffE>:
100005c64: 00 00 40 f9 	ldr	x0, [x0]
100005c68: 25 9b 00 14 	b	0x10002c8fc <__ZN4core3fmt17pointer_fmt_inner17hde7a97c2cc87755fE>

0000000100005c6c <__ZN50_$LT$$RF$mut$u20$W$u20$as$u20$core..fmt..Write$GT$10write_char17h4d10f4fe2ec714f7E>:
100005c6c: fd 7b bf a9 	stp	x29, x30, [sp, #-16]!
100005c70: fd 03 00 91 	mov	x29, sp
100005c74: 00 00 40 f9 	ldr	x0, [x0]
100005c78: de ee ff 97 	bl	0x1000017f0 <__ZN4core3fmt5Write10write_char17h83589bd6cccc2436E>
100005c7c: 00 00 80 52 	mov	w0, #0
100005c80: fd 7b c1 a8 	ldp	x29, x30, [sp], #16
100005c84: c0 03 5f d6 	ret

0000000100005c88 <__ZN50_$LT$$RF$mut$u20$W$u20$as$u20$core..fmt..Write$GT$10write_char17h75f06ac6ee46341dE>:
100005c88: fd 7b bf a9 	stp	x29, x30, [sp, #-16]!
100005c8c: fd 03 00 91 	mov	x29, sp
100005c90: 00 00 40 f9 	ldr	x0, [x0]
100005c94: b4 00 00 94 	bl	0x100005f64 <__ZN58_$LT$alloc..string..String$u20$as$u20$core..fmt..Write$GT$10write_char17h926dd0696c326600E>
100005c98: 00 00 80 52 	mov	w0, #0
100005c9c: fd 7b c1 a8 	ldp	x29, x30, [sp], #16
100005ca0: c0 03 5f d6 	ret

0000000100005ca4 <__ZN50_$LT$$RF$mut$u20$W$u20$as$u20$core..fmt..Write$GT$10write_char17ha309d8048cb3f3bdE>:
100005ca4: 00 00 40 f9 	ldr	x0, [x0]
100005ca8: 7d ee ff 17 	b	0x10000169c <__ZN4core3fmt5Write10write_char17h52f9fc92fde17b02E>

0000000100005cac <__ZN50_$LT$$RF$mut$u20$W$u20$as$u20$core..fmt..Write$GT$10write_char17hc01a370b10d8a22dE>:
100005cac: 00 00 40 f9 	ldr	x0, [x0]
100005cb0: 17 ef ff 17 	b	0x10000190c <__ZN4core3fmt5Write10write_char17h873b5142538f8f45E>

0000000100005cb4 <__ZN50_$LT$$RF$mut$u20$W$u20$as$u20$core..fmt..Write$GT$9write_fmt17h01783706b80a2db5E>:
100005cb4: ff 43 01 d1 	sub	sp, sp, #80
100005cb8: fd 7b 04 a9 	stp	x29, x30, [sp, #64]
100005cbc: fd 03 01 91 	add	x29, sp, #64
100005cc0: 08 00 40 f9 	ldr	x8, [x0]
100005cc4: e8 07 00 f9 	str	x8, [sp, #8]
100005cc8: 20 04 40 ad 	ldp	q0, q1, [x1]
100005ccc: e0 87 00 ad 	stp	q0, q1, [sp, #16]
100005cd0: 20 08 c0 3d 	ldr	q0, [x1, #32]
100005cd4: e0 0f 80 3d 	str	q0, [sp, #48]
100005cd8: c1 2c 19 10 	adr	x1, #206232
100005cdc: 1f 20 03 d5 	nop
100005ce0: e0 23 00 91 	add	x0, sp, #8
100005ce4: e2 43 00 91 	add	x2, sp, #16
100005ce8: ad 95 00 94 	bl	0x10002b39c <__ZN4core3fmt5write17hda8e8eb84b49cbfcE>
100005cec: fd 7b 44 a9 	ldp	x29, x30, [sp, #64]
100005cf0: ff 43 01 91 	add	sp, sp, #80
100005cf4: c0 03 5f d6 	ret

0000000100005cf8 <__ZN50_$LT$$RF$mut$u20$W$u20$as$u20$core..fmt..Write$GT$9write_fmt17ha74f530ef4cf0105E>:
100005cf8: ff 43 01 d1 	sub	sp, sp, #80
100005cfc: fd 7b 04 a9 	stp	x29, x30, [sp, #64]
100005d00: fd 03 01 91 	add	x29, sp, #64
100005d04: 08 00 40 f9 	ldr	x8, [x0]
100005d08: e8 07 00 f9 	str	x8, [sp, #8]
100005d0c: 20 04 40 ad 	ldp	q0, q1, [x1]
100005d10: e0 87 00 ad 	stp	q0, q1, [sp, #16]
100005d14: 20 08 c0 3d 	ldr	q0, [x1, #32]
100005d18: e0 0f 80 3d 	str	q0, [sp, #48]
100005d1c: a1 2d 19 10 	adr	x1, #206260
100005d20: 1f 20 03 d5 	nop
100005d24: e0 23 00 91 	add	x0, sp, #8
100005d28: e2 43 00 91 	add	x2, sp, #16
100005d2c: 9c 95 00 94 	bl	0x10002b39c <__ZN4core3fmt5write17hda8e8eb84b49cbfcE>
100005d30: fd 7b 44 a9 	ldp	x29, x30, [sp, #64]
100005d34: ff 43 01 91 	add	sp, sp, #80
100005d38: c0 03 5f d6 	ret

0000000100005d3c <__ZN50_$LT$$RF$mut$u20$W$u20$as$u20$core..fmt..Write$GT$9write_fmt17hd162502c173e511bE>:
100005d3c: ff 43 01 d1 	sub	sp, sp, #80
100005d40: fd 7b 04 a9 	stp	x29, x30, [sp, #64]
100005d44: fd 03 01 91 	add	x29, sp, #64
100005d48: 08 00 40 f9 	ldr	x8, [x0]
100005d4c: e8 07 00 f9 	str	x8, [sp, #8]
100005d50: 20 04 40 ad 	ldp	q0, q1, [x1]
100005d54: e0 87 00 ad 	stp	q0, q1, [sp, #16]
100005d58: 20 08 c0 3d 	ldr	q0, [x1, #32]
100005d5c: e0 0f 80 3d 	str	q0, [sp, #48]
100005d60: 01 2a 19 10 	adr	x1, #206144
100005d64: 1f 20 03 d5 	nop
100005d68: e0 23 00 91 	add	x0, sp, #8
100005d6c: e2 43 00 91 	add	x2, sp, #16
100005d70: 8b 95 00 94 	bl	0x10002b39c <__ZN4core3fmt5write17hda8e8eb84b49cbfcE>
100005d74: fd 7b 44 a9 	ldp	x29, x30, [sp, #64]
100005d78: ff 43 01 91 	add	sp, sp, #80
100005d7c: c0 03 5f d6 	ret

0000000100005d80 <__ZN50_$LT$$RF$mut$u20$W$u20$as$u20$core..fmt..Write$GT$9write_fmt17hdcbff1c687589c2fE>:
100005d80: ff 43 01 d1 	sub	sp, sp, #80
100005d84: fd 7b 04 a9 	stp	x29, x30, [sp, #64]
100005d88: fd 03 01 91 	add	x29, sp, #64
100005d8c: 08 00 40 f9 	ldr	x8, [x0]
100005d90: e8 07 00 f9 	str	x8, [sp, #8]
100005d94: 20 04 40 ad 	ldp	q0, q1, [x1]
100005d98: e0 87 00 ad 	stp	q0, q1, [sp, #16]
100005d9c: 20 08 c0 3d 	ldr	q0, [x1, #32]
100005da0: e0 0f 80 3d 	str	q0, [sp, #48]
100005da4: e1 2a 19 10 	adr	x1, #206172
100005da8: 1f 20 03 d5 	nop
100005dac: e0 23 00 91 	add	x0, sp, #8
100005db0: e2 43 00 91 	add	x2, sp, #16
100005db4: 7a 95 00 94 	bl	0x10002b39c <__ZN4core3fmt5write17hda8e8eb84b49cbfcE>
100005db8: fd 7b 44 a9 	ldp	x29, x30, [sp, #64]
100005dbc: ff 43 01 91 	add	sp, sp, #80
100005dc0: c0 03 5f d6 	ret

0000000100005dc4 <__ZN50_$LT$$RF$mut$u20$W$u20$as$u20$core..fmt..Write$GT$9write_str17h0121f76aadd94424E>:
100005dc4: f4 4f be a9 	stp	x20, x19, [sp, #-32]!
100005dc8: fd 7b 01 a9 	stp	x29, x30, [sp, #16]
100005dcc: fd 43 00 91 	add	x29, sp, #16
100005dd0: 13 00 40 f9 	ldr	x19, [x0]
100005dd4: 60 02 40 f9 	ldr	x0, [x19]
100005dd8: e8 41 00 94 	bl	0x100016578 <__ZN3std2io5Write9write_all17h59e6f50311e59191E>
100005ddc: f4 03 00 aa 	mov	x20, x0
100005de0: c0 00 00 b4 	cbz	x0, 0x100005df8 <__ZN50_$LT$$RF$mut$u20$W$u20$as$u20$core..fmt..Write$GT$9write_str17h0121f76aadd94424E+0x34>
100005de4: 68 8e 40 f8 	ldr	x8, [x19, #8]!
100005de8: 68 00 00 b4 	cbz	x8, 0x100005df4 <__ZN50_$LT$$RF$mut$u20$W$u20$as$u20$core..fmt..Write$GT$9write_str17h0121f76aadd94424E+0x30>
100005dec: e0 03 13 aa 	mov	x0, x19
100005df0: c0 f2 ff 97 	bl	0x1000028f0 <__ZN4core3ptr42drop_in_place$LT$std..io..error..Error$GT$17h779b7ab2fb8f1a5eE>
100005df4: 74 02 00 f9 	str	x20, [x19]
100005df8: 9f 02 00 f1 	cmp	x20, #0
100005dfc: e0 07 9f 1a 	cset	w0, ne
100005e00: fd 7b 41 a9 	ldp	x29, x30, [sp, #16]
100005e04: f4 4f c2 a8 	ldp	x20, x19, [sp], #32
100005e08: c0 03 5f d6 	ret
100005e0c: 74 02 00 f9 	str	x20, [x19]
100005e10: 04 ae 00 94 	bl	0x100031620 <_writev+0x100031620>

0000000100005e14 <__ZN50_$LT$$RF$mut$u20$W$u20$as$u20$core..fmt..Write$GT$9write_str17h25b32ba60a28f75fE>:
100005e14: f6 57 bd a9 	stp	x22, x21, [sp, #-48]!
100005e18: f4 4f 01 a9 	stp	x20, x19, [sp, #16]
100005e1c: fd 7b 02 a9 	stp	x29, x30, [sp, #32]
100005e20: fd 83 00 91 	add	x29, sp, #32
100005e24: f3 03 02 aa 	mov	x19, x2
100005e28: f5 03 01 aa 	mov	x21, x1
100005e2c: 08 00 40 f9 	ldr	x8, [x0]
100005e30: 14 01 40 f9 	ldr	x20, [x8]
100005e34: 88 da 40 a9 	ldp	x8, x22, [x20, #8]
100005e38: 08 01 16 cb 	sub	x8, x8, x22
100005e3c: 1f 01 02 eb 	cmp	x8, x2
100005e40: a3 01 00 54 	b.lo	0x100005e74 <__ZN50_$LT$$RF$mut$u20$W$u20$as$u20$core..fmt..Write$GT$9write_str17h25b32ba60a28f75fE+0x60>
100005e44: 88 02 40 f9 	ldr	x8, [x20]
100005e48: 00 01 16 8b 	add	x0, x8, x22
100005e4c: e1 03 15 aa 	mov	x1, x21
100005e50: e2 03 13 aa 	mov	x2, x19
100005e54: 2f ae 00 94 	bl	0x100031710 <_writev+0x100031710>
100005e58: c8 02 13 8b 	add	x8, x22, x19
100005e5c: 88 0a 00 f9 	str	x8, [x20, #16]
100005e60: 00 00 80 52 	mov	w0, #0
100005e64: fd 7b 42 a9 	ldp	x29, x30, [sp, #32]
100005e68: f4 4f 41 a9 	ldp	x20, x19, [sp, #16]
100005e6c: f6 57 c3 a8 	ldp	x22, x21, [sp], #48
100005e70: c0 03 5f d6 	ret
100005e74: e0 03 14 aa 	mov	x0, x20
100005e78: e1 03 16 aa 	mov	x1, x22
100005e7c: e2 03 13 aa 	mov	x2, x19
100005e80: 15 ab 00 94 	bl	0x100030ad4 <__ZN5alloc7raw_vec19RawVec$LT$T$C$A$GT$7reserve21do_reserve_and_handle17ha753c5d16ef56b6eE>
100005e84: 96 0a 40 f9 	ldr	x22, [x20, #16]
100005e88: ef ff ff 17 	b	0x100005e44 <__ZN50_$LT$$RF$mut$u20$W$u20$as$u20$core..fmt..Write$GT$9write_str17h25b32ba60a28f75fE+0x30>

0000000100005e8c <__ZN50_$LT$$RF$mut$u20$W$u20$as$u20$core..fmt..Write$GT$9write_str17h6a19329e54246a68E>:
100005e8c: f4 4f be a9 	stp	x20, x19, [sp, #-32]!
100005e90: fd 7b 01 a9 	stp	x29, x30, [sp, #16]
100005e94: fd 43 00 91 	add	x29, sp, #16
100005e98: 13 00 40 f9 	ldr	x19, [x0]
100005e9c: 60 02 40 f9 	ldr	x0, [x19]
100005ea0: 6d 40 00 94 	bl	0x100016054 <__ZN61_$LT$std..io..stdio..StdoutLock$u20$as$u20$std..io..Write$GT$9write_all17hd69ae4041a249c5aE>
100005ea4: f4 03 00 aa 	mov	x20, x0
100005ea8: c0 00 00 b4 	cbz	x0, 0x100005ec0 <__ZN50_$LT$$RF$mut$u20$W$u20$as$u20$core..fmt..Write$GT$9write_str17h6a19329e54246a68E+0x34>
100005eac: 68 8e 40 f8 	ldr	x8, [x19, #8]!
100005eb0: 68 00 00 b4 	cbz	x8, 0x100005ebc <__ZN50_$LT$$RF$mut$u20$W$u20$as$u20$core..fmt..Write$GT$9write_str17h6a19329e54246a68E+0x30>
100005eb4: e0 03 13 aa 	mov	x0, x19
100005eb8: 8e f2 ff 97 	bl	0x1000028f0 <__ZN4core3ptr42drop_in_place$LT$std..io..error..Error$GT$17h779b7ab2fb8f1a5eE>
100005ebc: 74 02 00 f9 	str	x20, [x19]
100005ec0: 9f 02 00 f1 	cmp	x20, #0
100005ec4: e0 07 9f 1a 	cset	w0, ne
100005ec8: fd 7b 41 a9 	ldp	x29, x30, [sp, #16]
100005ecc: f4 4f c2 a8 	ldp	x20, x19, [sp], #32
100005ed0: c0 03 5f d6 	ret
100005ed4: 74 02 00 f9 	str	x20, [x19]
100005ed8: d2 ad 00 94 	bl	0x100031620 <_writev+0x100031620>

0000000100005edc <__ZN50_$LT$$RF$mut$u20$W$u20$as$u20$core..fmt..Write$GT$9write_str17h9297a30f183e7997E>:
100005edc: f6 57 bd a9 	stp	x22, x21, [sp, #-48]!
100005ee0: f4 4f 01 a9 	stp	x20, x19, [sp, #16]
100005ee4: fd 7b 02 a9 	stp	x29, x30, [sp, #32]
100005ee8: fd 83 00 91 	add	x29, sp, #32
100005eec: f3 03 02 aa 	mov	x19, x2
100005ef0: f5 03 01 aa 	mov	x21, x1
100005ef4: 14 00 40 f9 	ldr	x20, [x0]
100005ef8: 88 da 40 a9 	ldp	x8, x22, [x20, #8]
100005efc: 08 01 16 cb 	sub	x8, x8, x22
100005f00: 1f 01 02 eb 	cmp	x8, x2
100005f04: a3 01 00 54 	b.lo	0x100005f38 <__ZN50_$LT$$RF$mut$u20$W$u20$as$u20$core..fmt..Write$GT$9write_str17h9297a30f183e7997E+0x5c>
100005f08: 88 02 40 f9 	ldr	x8, [x20]
100005f0c: 00 01 16 8b 	add	x0, x8, x22
100005f10: e1 03 15 aa 	mov	x1, x21
100005f14: e2 03 13 aa 	mov	x2, x19
100005f18: fe ad 00 94 	bl	0x100031710 <_writev+0x100031710>
100005f1c: c8 02 13 8b 	add	x8, x22, x19
100005f20: 88 0a 00 f9 	str	x8, [x20, #16]
100005f24: 00 00 80 52 	mov	w0, #0
100005f28: fd 7b 42 a9 	ldp	x29, x30, [sp, #32]
100005f2c: f4 4f 41 a9 	ldp	x20, x19, [sp, #16]
100005f30: f6 57 c3 a8 	ldp	x22, x21, [sp], #48
100005f34: c0 03 5f d6 	ret
100005f38: e0 03 14 aa 	mov	x0, x20
100005f3c: e1 03 16 aa 	mov	x1, x22
100005f40: e2 03 13 aa 	mov	x2, x19
100005f44: e4 aa 00 94 	bl	0x100030ad4 <__ZN5alloc7raw_vec19RawVec$LT$T$C$A$GT$7reserve21do_reserve_and_handle17ha753c5d16ef56b6eE>
100005f48: 96 0a 40 f9 	ldr	x22, [x20, #16]
100005f4c: ef ff ff 17 	b	0x100005f08 <__ZN50_$LT$$RF$mut$u20$W$u20$as$u20$core..fmt..Write$GT$9write_str17h9297a30f183e7997E+0x2c>

0000000100005f50 <__ZN58_$LT$alloc..string..String$u20$as$u20$core..fmt..Debug$GT$3fmt17h23984c732abdd625E>:
100005f50: e2 03 01 aa 	mov	x2, x1
100005f54: 08 00 40 f9 	ldr	x8, [x0]
100005f58: 01 08 40 f9 	ldr	x1, [x0, #16]
100005f5c: e0 03 08 aa 	mov	x0, x8
100005f60: 82 98 00 14 	b	0x10002c168 <__ZN40_$LT$str$u20$as$u20$core..fmt..Debug$GT$3fmt17h6a2178a946c36754E>

0000000100005f64 <__ZN58_$LT$alloc..string..String$u20$as$u20$core..fmt..Write$GT$10write_char17h926dd0696c326600E>:
100005f64: ff 03 01 d1 	sub	sp, sp, #64
100005f68: f6 57 01 a9 	stp	x22, x21, [sp, #16]
100005f6c: f4 4f 02 a9 	stp	x20, x19, [sp, #32]
100005f70: fd 7b 03 a9 	stp	x29, x30, [sp, #48]
100005f74: fd c3 00 91 	add	x29, sp, #48
100005f78: f4 03 01 aa 	mov	x20, x1
100005f7c: f3 03 00 aa 	mov	x19, x0
100005f80: 3f 00 02 71 	cmp	w1, #128
100005f84: 62 01 00 54 	b.hs	0x100005fb0 <__ZN58_$LT$alloc..string..String$u20$as$u20$core..fmt..Write$GT$10write_char17h926dd0696c326600E+0x4c>
100005f88: 68 86 40 a9 	ldp	x8, x1, [x19, #8]
100005f8c: 3f 00 08 eb 	cmp	x1, x8
100005f90: 81 00 00 54 	b.ne	0x100005fa0 <__ZN58_$LT$alloc..string..String$u20$as$u20$core..fmt..Write$GT$10write_char17h926dd0696c326600E+0x3c>
100005f94: e0 03 13 aa 	mov	x0, x19
100005f98: f9 02 00 94 	bl	0x100006b7c <__ZN5alloc7raw_vec19RawVec$LT$T$C$A$GT$16reserve_for_push17h8a7e83ef9144a8c5E>
100005f9c: 61 0a 40 f9 	ldr	x1, [x19, #16]
100005fa0: 68 02 40 f9 	ldr	x8, [x19]
100005fa4: 14 69 21 38 	strb	w20, [x8, x1]
100005fa8: 28 04 00 91 	add	x8, x1, #1
100005fac: 30 00 00 14 	b	0x10000606c <__ZN58_$LT$alloc..string..String$u20$as$u20$core..fmt..Write$GT$10write_char17h926dd0696c326600E+0x108>
100005fb0: ff 0f 00 b9 	str	wzr, [sp, #12]
100005fb4: 9f 02 20 71 	cmp	w20, #2048
100005fb8: 22 01 00 54 	b.hs	0x100005fdc <__ZN58_$LT$alloc..string..String$u20$as$u20$core..fmt..Write$GT$10write_char17h926dd0696c326600E+0x78>
100005fbc: 88 7e 06 53 	lsr	w8, w20, #6
100005fc0: 08 05 1a 32 	orr	w8, w8, #0xc0
100005fc4: e8 33 00 39 	strb	w8, [sp, #12]
100005fc8: 08 10 80 52 	mov	w8, #128
100005fcc: 88 16 00 33 	bfxil	w8, w20, #0, #6
100005fd0: e8 37 00 39 	strb	w8, [sp, #13]
100005fd4: 54 00 80 52 	mov	w20, #2
100005fd8: 1b 00 00 14 	b	0x100006044 <__ZN58_$LT$alloc..string..String$u20$as$u20$core..fmt..Write$GT$10write_char17h926dd0696c326600E+0xe0>
100005fdc: 9f 42 40 71 	cmp	w20, #16, lsl #12       ; =65536
100005fe0: 82 01 00 54 	b.hs	0x100006010 <__ZN58_$LT$alloc..string..String$u20$as$u20$core..fmt..Write$GT$10write_char17h926dd0696c326600E+0xac>
100005fe4: 88 7e 0c 53 	lsr	w8, w20, #12
100005fe8: 08 09 1b 32 	orr	w8, w8, #0xe0
100005fec: e8 33 00 39 	strb	w8, [sp, #12]
100005ff0: 08 10 80 52 	mov	w8, #128
100005ff4: 09 10 80 52 	mov	w9, #128
100005ff8: 89 2e 06 33 	bfxil	w9, w20, #6, #6
100005ffc: e9 37 00 39 	strb	w9, [sp, #13]
100006000: 88 16 00 33 	bfxil	w8, w20, #0, #6
100006004: e8 3b 00 39 	strb	w8, [sp, #14]
100006008: 74 00 80 52 	mov	w20, #3
10000600c: 0e 00 00 14 	b	0x100006044 <__ZN58_$LT$alloc..string..String$u20$as$u20$core..fmt..Write$GT$10write_char17h926dd0696c326600E+0xe0>
100006010: 08 1e 80 52 	mov	w8, #240
100006014: 88 52 12 33 	bfxil	w8, w20, #18, #3
100006018: e8 33 00 39 	strb	w8, [sp, #12]
10000601c: 08 10 80 52 	mov	w8, #128
100006020: 09 10 80 52 	mov	w9, #128
100006024: 89 46 0c 33 	bfxil	w9, w20, #12, #6
100006028: e9 37 00 39 	strb	w9, [sp, #13]
10000602c: 09 10 80 52 	mov	w9, #128
100006030: 89 2e 06 33 	bfxil	w9, w20, #6, #6
100006034: e9 3b 00 39 	strb	w9, [sp, #14]
100006038: 88 16 00 33 	bfxil	w8, w20, #0, #6
10000603c: e8 3f 00 39 	strb	w8, [sp, #15]
100006040: 94 00 80 52 	mov	w20, #4
100006044: 68 d6 40 a9 	ldp	x8, x21, [x19, #8]
100006048: 08 01 15 cb 	sub	x8, x8, x21
10000604c: 1f 01 14 eb 	cmp	x8, x20
100006050: c3 01 00 54 	b.lo	0x100006088 <__ZN58_$LT$alloc..string..String$u20$as$u20$core..fmt..Write$GT$10write_char17h926dd0696c326600E+0x124>
100006054: 68 02 40 f9 	ldr	x8, [x19]
100006058: 00 01 15 8b 	add	x0, x8, x21
10000605c: e1 33 00 91 	add	x1, sp, #12
100006060: e2 03 14 aa 	mov	x2, x20
100006064: ab ad 00 94 	bl	0x100031710 <_writev+0x100031710>
100006068: a8 02 14 8b 	add	x8, x21, x20
10000606c: 68 0a 00 f9 	str	x8, [x19, #16]
100006070: 00 00 80 52 	mov	w0, #0
100006074: fd 7b 43 a9 	ldp	x29, x30, [sp, #48]
100006078: f4 4f 42 a9 	ldp	x20, x19, [sp, #32]
10000607c: f6 57 41 a9 	ldp	x22, x21, [sp, #16]
100006080: ff 03 01 91 	add	sp, sp, #64
100006084: c0 03 5f d6 	ret
100006088: e0 03 13 aa 	mov	x0, x19
10000608c: e1 03 15 aa 	mov	x1, x21
100006090: e2 03 14 aa 	mov	x2, x20
100006094: 90 aa 00 94 	bl	0x100030ad4 <__ZN5alloc7raw_vec19RawVec$LT$T$C$A$GT$7reserve21do_reserve_and_handle17ha753c5d16ef56b6eE>
100006098: 75 0a 40 f9 	ldr	x21, [x19, #16]
10000609c: ee ff ff 17 	b	0x100006054 <__ZN58_$LT$alloc..string..String$u20$as$u20$core..fmt..Write$GT$10write_char17h926dd0696c326600E+0xf0>

00000001000060a0 <__ZN5alloc11collections5btree3map25IntoIter$LT$K$C$V$C$A$GT$10dying_next17h7f143ac5a2cd5862E>:
1000060a0: ff 83 01 d1 	sub	sp, sp, #96
1000060a4: fa 67 01 a9 	stp	x26, x25, [sp, #16]
1000060a8: f8 5f 02 a9 	stp	x24, x23, [sp, #32]
1000060ac: f6 57 03 a9 	stp	x22, x21, [sp, #48]
1000060b0: f4 4f 04 a9 	stp	x20, x19, [sp, #64]
1000060b4: fd 7b 05 a9 	stp	x29, x30, [sp, #80]
1000060b8: fd 43 01 91 	add	x29, sp, #80
1000060bc: f4 03 01 aa 	mov	x20, x1
1000060c0: f3 03 00 aa 	mov	x19, x0
1000060c4: 28 20 40 f9 	ldr	x8, [x1, #64]
1000060c8: 88 04 00 b4 	cbz	x8, 0x100006158 <__ZN5alloc11collections5btree3map25IntoIter$LT$K$C$V$C$A$GT$10dying_next17h7f143ac5a2cd5862E+0xb8>
1000060cc: 08 05 00 d1 	sub	x8, x8, #1
1000060d0: 88 22 00 f9 	str	x8, [x20, #64]
1000060d4: 88 02 40 f9 	ldr	x8, [x20]
1000060d8: a8 05 00 b4 	cbz	x8, 0x10000618c <__ZN5alloc11collections5btree3map25IntoIter$LT$K$C$V$C$A$GT$10dying_next17h7f143ac5a2cd5862E+0xec>
1000060dc: 1f 09 00 f1 	cmp	x8, #2
1000060e0: 60 0d 00 54 	b.eq	0x10000628c <__ZN5alloc11collections5btree3map25IntoIter$LT$K$C$V$C$A$GT$10dying_next17h7f143ac5a2cd5862E+0x1ec>
1000060e4: 88 82 40 a9 	ldp	x8, x0, [x20, #8]
1000060e8: 95 0e 40 f9 	ldr	x21, [x20, #24]
1000060ec: 09 64 4a 79 	ldrh	w9, [x0, #1330]
1000060f0: bf 02 09 eb 	cmp	x21, x9
1000060f4: 83 06 00 54 	b.lo	0x1000061c4 <__ZN5alloc11collections5btree3map25IntoIter$LT$K$C$V$C$A$GT$10dying_next17h7f143ac5a2cd5862E+0x124>
1000060f8: 17 b3 80 52 	mov	w23, #1432
1000060fc: 18 a7 80 52 	mov	w24, #1336
100006100: 19 00 40 f9 	ldr	x25, [x0]
100006104: f9 01 00 b4 	cbz	x25, 0x100006140 <__ZN5alloc11collections5btree3map25IntoIter$LT$K$C$V$C$A$GT$10dying_next17h7f143ac5a2cd5862E+0xa0>
100006108: 15 60 4a 79 	ldrh	w21, [x0, #1328]
10000610c: 16 05 00 91 	add	x22, x8, #1
100006110: 1f 01 00 f1 	cmp	x8, #0
100006114: 01 03 97 9a 	csel	x1, x24, x23, eq
100006118: 61 00 00 b4 	cbz	x1, 0x100006124 <__ZN5alloc11collections5btree3map25IntoIter$LT$K$C$V$C$A$GT$10dying_next17h7f143ac5a2cd5862E+0x84>
10000611c: 02 01 80 52 	mov	w2, #8
100006120: e7 ec ff 97 	bl	0x1000014bc <___rust_dealloc>
100006124: 79 0a 00 b4 	cbz	x25, 0x100006270 <__ZN5alloc11collections5btree3map25IntoIter$LT$K$C$V$C$A$GT$10dying_next17h7f143ac5a2cd5862E+0x1d0>
100006128: 29 67 4a 79 	ldrh	w9, [x25, #1330]
10000612c: e8 03 16 aa 	mov	x8, x22
100006130: e0 03 19 aa 	mov	x0, x25
100006134: bf 02 09 eb 	cmp	x21, x9
100006138: 42 fe ff 54 	b.hs	0x100006100 <__ZN5alloc11collections5btree3map25IntoIter$LT$K$C$V$C$A$GT$10dying_next17h7f143ac5a2cd5862E+0x60>
10000613c: 2d 00 00 14 	b	0x1000061f0 <__ZN5alloc11collections5btree3map25IntoIter$LT$K$C$V$C$A$GT$10dying_next17h7f143ac5a2cd5862E+0x150>
100006140: 15 00 80 d2 	mov	x21, #0
100006144: 16 00 80 d2 	mov	x22, #0
100006148: 1f 01 00 f1 	cmp	x8, #0
10000614c: 01 03 97 9a 	csel	x1, x24, x23, eq
100006150: 61 fe ff b5 	cbnz	x1, 0x10000611c <__ZN5alloc11collections5btree3map25IntoIter$LT$K$C$V$C$A$GT$10dying_next17h7f143ac5a2cd5862E+0x7c>
100006154: f4 ff ff 17 	b	0x100006124 <__ZN5alloc11collections5btree3map25IntoIter$LT$K$C$V$C$A$GT$10dying_next17h7f143ac5a2cd5862E+0x84>
100006158: 88 56 40 a9 	ldp	x8, x21, [x20]
10000615c: 80 0a 40 f9 	ldr	x0, [x20, #16]
100006160: 49 00 80 52 	mov	w9, #2
100006164: 89 7e 00 a9 	stp	x9, xzr, [x20]
100006168: 9f 7e 01 a9 	stp	xzr, xzr, [x20, #16]
10000616c: 1f 09 00 f1 	cmp	x8, #2
100006170: e0 06 00 54 	b.eq	0x10000624c <__ZN5alloc11collections5btree3map25IntoIter$LT$K$C$V$C$A$GT$10dying_next17h7f143ac5a2cd5862E+0x1ac>
100006174: 08 05 00 b5 	cbnz	x8, 0x100006214 <__ZN5alloc11collections5btree3map25IntoIter$LT$K$C$V$C$A$GT$10dying_next17h7f143ac5a2cd5862E+0x174>
100006178: 15 05 00 b4 	cbz	x21, 0x100006218 <__ZN5alloc11collections5btree3map25IntoIter$LT$K$C$V$C$A$GT$10dying_next17h7f143ac5a2cd5862E+0x178>
10000617c: 00 9c 42 f9 	ldr	x0, [x0, #1336]
100006180: b5 06 00 f1 	subs	x21, x21, #1
100006184: c1 ff ff 54 	b.ne	0x10000617c <__ZN5alloc11collections5btree3map25IntoIter$LT$K$C$V$C$A$GT$10dying_next17h7f143ac5a2cd5862E+0xdc>
100006188: 24 00 00 14 	b	0x100006218 <__ZN5alloc11collections5btree3map25IntoIter$LT$K$C$V$C$A$GT$10dying_next17h7f143ac5a2cd5862E+0x178>
10000618c: 88 82 40 a9 	ldp	x8, x0, [x20, #8]
100006190: 88 00 00 b4 	cbz	x8, 0x1000061a0 <__ZN5alloc11collections5btree3map25IntoIter$LT$K$C$V$C$A$GT$10dying_next17h7f143ac5a2cd5862E+0x100>
100006194: 00 9c 42 f9 	ldr	x0, [x0, #1336]
100006198: 08 05 00 f1 	subs	x8, x8, #1
10000619c: c1 ff ff 54 	b.ne	0x100006194 <__ZN5alloc11collections5btree3map25IntoIter$LT$K$C$V$C$A$GT$10dying_next17h7f143ac5a2cd5862E+0xf4>
1000061a0: 15 00 80 d2 	mov	x21, #0
1000061a4: 08 00 80 d2 	mov	x8, #0
1000061a8: 1f 20 03 d5 	nop
1000061ac: a0 33 16 9c 	ldr	q0, 0x100032820 <_writev+0x100032820>
1000061b0: 80 02 80 3d 	str	q0, [x20]
1000061b4: 80 7e 01 a9 	stp	x0, xzr, [x20, #16]
1000061b8: 09 64 4a 79 	ldrh	w9, [x0, #1330]
1000061bc: bf 02 09 eb 	cmp	x21, x9
1000061c0: c2 f9 ff 54 	b.hs	0x1000060f8 <__ZN5alloc11collections5btree3map25IntoIter$LT$K$C$V$C$A$GT$10dying_next17h7f143ac5a2cd5862E+0x58>
1000061c4: f6 03 08 aa 	mov	x22, x8
1000061c8: a9 06 00 91 	add	x9, x21, #1
1000061cc: 96 01 00 b4 	cbz	x22, 0x1000061fc <__ZN5alloc11collections5btree3map25IntoIter$LT$K$C$V$C$A$GT$10dying_next17h7f143ac5a2cd5862E+0x15c>
1000061d0: 08 0c 09 8b 	add	x8, x0, x9, lsl #3
1000061d4: 08 9d 42 f9 	ldr	x8, [x8, #1336]
1000061d8: c9 06 00 f1 	subs	x9, x22, #1
1000061dc: 20 01 00 54 	b.eq	0x100006200 <__ZN5alloc11collections5btree3map25IntoIter$LT$K$C$V$C$A$GT$10dying_next17h7f143ac5a2cd5862E+0x160>
1000061e0: 08 9d 42 f9 	ldr	x8, [x8, #1336]
1000061e4: 29 05 00 f1 	subs	x9, x9, #1
1000061e8: c1 ff ff 54 	b.ne	0x1000061e0 <__ZN5alloc11collections5btree3map25IntoIter$LT$K$C$V$C$A$GT$10dying_next17h7f143ac5a2cd5862E+0x140>
1000061ec: 05 00 00 14 	b	0x100006200 <__ZN5alloc11collections5btree3map25IntoIter$LT$K$C$V$C$A$GT$10dying_next17h7f143ac5a2cd5862E+0x160>
1000061f0: e0 03 19 aa 	mov	x0, x25
1000061f4: a9 06 00 91 	add	x9, x21, #1
1000061f8: d6 fe ff b5 	cbnz	x22, 0x1000061d0 <__ZN5alloc11collections5btree3map25IntoIter$LT$K$C$V$C$A$GT$10dying_next17h7f143ac5a2cd5862E+0x130>
1000061fc: e8 03 00 aa 	mov	x8, x0
100006200: 9f a2 00 a9 	stp	xzr, x8, [x20, #8]
100006204: 89 0e 00 f9 	str	x9, [x20, #24]
100006208: 76 02 00 a9 	stp	x22, x0, [x19]
10000620c: 75 0a 00 f9 	str	x21, [x19, #16]
100006210: 11 00 00 14 	b	0x100006254 <__ZN5alloc11collections5btree3map25IntoIter$LT$K$C$V$C$A$GT$10dying_next17h7f143ac5a2cd5862E+0x1b4>
100006214: c0 01 00 b4 	cbz	x0, 0x10000624c <__ZN5alloc11collections5btree3map25IntoIter$LT$K$C$V$C$A$GT$10dying_next17h7f143ac5a2cd5862E+0x1ac>
100006218: 14 b3 80 52 	mov	w20, #1432
10000621c: 16 a7 80 52 	mov	w22, #1336
100006220: 04 00 00 14 	b	0x100006230 <__ZN5alloc11collections5btree3map25IntoIter$LT$K$C$V$C$A$GT$10dying_next17h7f143ac5a2cd5862E+0x190>
100006224: b5 06 00 91 	add	x21, x21, #1
100006228: e0 03 17 aa 	mov	x0, x23
10000622c: 17 01 00 b4 	cbz	x23, 0x10000624c <__ZN5alloc11collections5btree3map25IntoIter$LT$K$C$V$C$A$GT$10dying_next17h7f143ac5a2cd5862E+0x1ac>
100006230: 17 00 40 f9 	ldr	x23, [x0]
100006234: bf 02 00 f1 	cmp	x21, #0
100006238: c1 02 94 9a 	csel	x1, x22, x20, eq
10000623c: 41 ff ff b4 	cbz	x1, 0x100006224 <__ZN5alloc11collections5btree3map25IntoIter$LT$K$C$V$C$A$GT$10dying_next17h7f143ac5a2cd5862E+0x184>
100006240: 02 01 80 52 	mov	w2, #8
100006244: 9e ec ff 97 	bl	0x1000014bc <___rust_dealloc>
100006248: f7 ff ff 17 	b	0x100006224 <__ZN5alloc11collections5btree3map25IntoIter$LT$K$C$V$C$A$GT$10dying_next17h7f143ac5a2cd5862E+0x184>
10000624c: 7f 7e 00 a9 	stp	xzr, xzr, [x19]
100006250: 7f 0a 00 f9 	str	xzr, [x19, #16]
100006254: fd 7b 45 a9 	ldp	x29, x30, [sp, #80]
100006258: f4 4f 44 a9 	ldp	x20, x19, [sp, #64]
10000625c: f6 57 43 a9 	ldp	x22, x21, [sp, #48]
100006260: f8 5f 42 a9 	ldp	x24, x23, [sp, #32]
100006264: fa 67 41 a9 	ldp	x26, x25, [sp, #16]
100006268: ff 83 01 91 	add	sp, sp, #96
10000626c: c0 03 5f d6 	ret
100006270: c0 74 16 50 	adr	x0, #183962
100006274: 1f 20 03 d5 	nop
100006278: 02 18 19 10 	adr	x2, #205568
10000627c: 1f 20 03 d5 	nop
100006280: 61 05 80 52 	mov	w1, #43
100006284: 51 ac 00 94 	bl	0x1000313c8 <__ZN4core9panicking5panic17h89917039f65f3f80E>
100006288: 20 00 20 d4 	brk	#0x1
10000628c: e0 73 16 50 	adr	x0, #183934
100006290: 1f 20 03 d5 	nop
100006294: e2 17 19 10 	adr	x2, #205564
100006298: 1f 20 03 d5 	nop
10000629c: 61 05 80 52 	mov	w1, #43
1000062a0: 4a ac 00 94 	bl	0x1000313c8 <__ZN4core9panicking5panic17h89917039f65f3f80E>
1000062a4: f3 03 00 aa 	mov	x19, x0
1000062a8: e0 23 00 91 	add	x0, sp, #8
1000062ac: 7f f3 ff 97 	bl	0x1000030a8 <__ZN4core3ptr72drop_in_place$LT$alloc..collections..btree..mem..replace..PanicGuard$GT$17hc80c079f9c830604E>
1000062b0: e0 03 13 aa 	mov	x0, x19
1000062b4: db ac 00 94 	bl	0x100031620 <_writev+0x100031620>
1000062b8: 66 ac 00 94 	bl	0x100031450 <__ZN4core9panicking15panic_no_unwind17ha22e330d9595cb93E>

00000001000062bc <__ZN5alloc4sync12Arc$LT$T$GT$9drop_slow17h1c676ae4c9b5fabcE>:
1000062bc: f4 4f be a9 	stp	x20, x19, [sp, #-32]!
1000062c0: fd 7b 01 a9 	stp	x29, x30, [sp, #16]
1000062c4: fd 43 00 91 	add	x29, sp, #16
1000062c8: f3 03 00 aa 	mov	x19, x0
1000062cc: 00 00 40 f9 	ldr	x0, [x0]
1000062d0: 08 0c 4e f8 	ldr	x8, [x0, #224]!
1000062d4: e8 00 00 b4 	cbz	x8, 0x1000062f0 <__ZN5alloc4sync12Arc$LT$T$GT$9drop_slow17h1c676ae4c9b5fabcE+0x34>
1000062d8: 09 00 80 92 	mov	x9, #-1
1000062dc: 08 01 69 f8 	<unknown>
1000062e0: 1f 05 00 f1 	cmp	x8, #1
1000062e4: 61 00 00 54 	b.ne	0x1000062f0 <__ZN5alloc4sync12Arc$LT$T$GT$9drop_slow17h1c676ae4c9b5fabcE+0x34>
1000062e8: bf 39 03 d5 	dmb	ishld
1000062ec: f4 ff ff 97 	bl	0x1000062bc <__ZN5alloc4sync12Arc$LT$T$GT$9drop_slow17h1c676ae4c9b5fabcE>
1000062f0: 60 02 40 f9 	ldr	x0, [x19]
1000062f4: 1f 04 00 b1 	cmn	x0, #1
1000062f8: 80 01 00 54 	b.eq	0x100006328 <__ZN5alloc4sync12Arc$LT$T$GT$9drop_slow17h1c676ae4c9b5fabcE+0x6c>
1000062fc: 08 20 00 91 	add	x8, x0, #8
100006300: 09 00 80 92 	mov	x9, #-1
100006304: 08 01 69 f8 	<unknown>
100006308: 1f 05 00 f1 	cmp	x8, #1
10000630c: e1 00 00 54 	b.ne	0x100006328 <__ZN5alloc4sync12Arc$LT$T$GT$9drop_slow17h1c676ae4c9b5fabcE+0x6c>
100006310: bf 39 03 d5 	dmb	ishld
100006314: 01 1e 80 52 	mov	w1, #240
100006318: 02 01 80 52 	mov	w2, #8
10000631c: fd 7b 41 a9 	ldp	x29, x30, [sp, #16]
100006320: f4 4f c2 a8 	ldp	x20, x19, [sp], #32
100006324: 66 ec ff 17 	b	0x1000014bc <___rust_dealloc>
100006328: fd 7b 41 a9 	ldp	x29, x30, [sp, #16]
10000632c: f4 4f c2 a8 	ldp	x20, x19, [sp], #32
100006330: c0 03 5f d6 	ret

0000000100006334 <__ZN5alloc4sync12Arc$LT$T$GT$9drop_slow17h3ece6a815e9c1d38E>:
100006334: f4 4f be a9 	stp	x20, x19, [sp, #-32]!
100006338: fd 7b 01 a9 	stp	x29, x30, [sp, #16]
10000633c: fd 43 00 91 	add	x29, sp, #16
100006340: f3 03 00 aa 	mov	x19, x0
100006344: 00 08 40 f9 	ldr	x0, [x0, #16]
100006348: da ac 00 94 	bl	0x1000316b0 <_writev+0x1000316b0>
10000634c: 61 12 40 f9 	ldr	x1, [x19, #32]
100006350: 81 00 00 b4 	cbz	x1, 0x100006360 <__ZN5alloc4sync12Arc$LT$T$GT$9drop_slow17h3ece6a815e9c1d38E+0x2c>
100006354: 60 0e 40 f9 	ldr	x0, [x19, #24]
100006358: 22 00 80 52 	mov	w2, #1
10000635c: 58 ec ff 97 	bl	0x1000014bc <___rust_dealloc>
100006360: 7f 06 00 b1 	cmn	x19, #1
100006364: a0 01 00 54 	b.eq	0x100006398 <__ZN5alloc4sync12Arc$LT$T$GT$9drop_slow17h3ece6a815e9c1d38E+0x64>
100006368: 68 22 00 91 	add	x8, x19, #8
10000636c: 09 00 80 92 	mov	x9, #-1
100006370: 08 01 69 f8 	<unknown>
100006374: 1f 05 00 f1 	cmp	x8, #1
100006378: 01 01 00 54 	b.ne	0x100006398 <__ZN5alloc4sync12Arc$LT$T$GT$9drop_slow17h3ece6a815e9c1d38E+0x64>
10000637c: bf 39 03 d5 	dmb	ishld
100006380: e0 03 13 aa 	mov	x0, x19
100006384: 01 06 80 52 	mov	w1, #48
100006388: 02 01 80 52 	mov	w2, #8
10000638c: fd 7b 41 a9 	ldp	x29, x30, [sp, #16]
100006390: f4 4f c2 a8 	ldp	x20, x19, [sp], #32
100006394: 4a ec ff 17 	b	0x1000014bc <___rust_dealloc>
100006398: fd 7b 41 a9 	ldp	x29, x30, [sp, #16]
10000639c: f4 4f c2 a8 	ldp	x20, x19, [sp], #32
1000063a0: c0 03 5f d6 	ret

00000001000063a4 <__ZN5alloc4sync12Arc$LT$T$GT$9drop_slow17h4a77a6fe5f318196E>:
1000063a4: f4 4f be a9 	stp	x20, x19, [sp, #-32]!
1000063a8: fd 7b 01 a9 	stp	x29, x30, [sp, #16]
1000063ac: fd 43 00 91 	add	x29, sp, #16
1000063b0: f3 03 00 aa 	mov	x19, x0
1000063b4: 08 08 40 f9 	ldr	x8, [x0, #16]
1000063b8: e8 00 00 b4 	cbz	x8, 0x1000063d4 <__ZN5alloc4sync12Arc$LT$T$GT$9drop_slow17h4a77a6fe5f318196E+0x30>
1000063bc: 1f 01 00 39 	strb	wzr, [x8]
1000063c0: 61 0e 40 f9 	ldr	x1, [x19, #24]
1000063c4: 81 00 00 b4 	cbz	x1, 0x1000063d4 <__ZN5alloc4sync12Arc$LT$T$GT$9drop_slow17h4a77a6fe5f318196E+0x30>
1000063c8: 60 0a 40 f9 	ldr	x0, [x19, #16]
1000063cc: 22 00 80 52 	mov	w2, #1
1000063d0: 3b ec ff 97 	bl	0x1000014bc <___rust_dealloc>
1000063d4: 60 c2 01 91 	add	x0, x19, #112
1000063d8: e6 ac 00 94 	bl	0x100031770 <_writev+0x100031770>
1000063dc: 60 c2 00 91 	add	x0, x19, #48
1000063e0: f3 ac 00 94 	bl	0x1000317ac <_writev+0x1000317ac>
1000063e4: 7f 06 00 b1 	cmn	x19, #1
1000063e8: a0 01 00 54 	b.eq	0x10000641c <__ZN5alloc4sync12Arc$LT$T$GT$9drop_slow17h4a77a6fe5f318196E+0x78>
1000063ec: 68 22 00 91 	add	x8, x19, #8
1000063f0: 09 00 80 92 	mov	x9, #-1
1000063f4: 08 01 69 f8 	<unknown>
1000063f8: 1f 05 00 f1 	cmp	x8, #1
1000063fc: 01 01 00 54 	b.ne	0x10000641c <__ZN5alloc4sync12Arc$LT$T$GT$9drop_slow17h4a77a6fe5f318196E+0x78>
100006400: bf 39 03 d5 	dmb	ishld
100006404: e0 03 13 aa 	mov	x0, x19
100006408: 01 14 80 52 	mov	w1, #160
10000640c: 02 01 80 52 	mov	w2, #8
100006410: fd 7b 41 a9 	ldp	x29, x30, [sp, #16]
100006414: f4 4f c2 a8 	ldp	x20, x19, [sp], #32
100006418: 29 ec ff 17 	b	0x1000014bc <___rust_dealloc>
10000641c: fd 7b 41 a9 	ldp	x29, x30, [sp, #16]
100006420: f4 4f c2 a8 	ldp	x20, x19, [sp], #32
100006424: c0 03 5f d6 	ret

0000000100006428 <__ZN5alloc4sync12Arc$LT$T$GT$9drop_slow17h88213df8f14a27faE>:
100006428: f4 4f be a9 	stp	x20, x19, [sp, #-32]!
10000642c: fd 7b 01 a9 	stp	x29, x30, [sp, #16]
100006430: fd 43 00 91 	add	x29, sp, #16
100006434: f3 03 00 aa 	mov	x19, x0
100006438: 14 08 40 f9 	ldr	x20, [x0, #16]
10000643c: 94 00 00 b4 	cbz	x20, 0x10000644c <__ZN5alloc4sync12Arc$LT$T$GT$9drop_slow17h88213df8f14a27faE+0x24>
100006440: e0 03 14 aa 	mov	x0, x20
100006444: e3 ac 00 94 	bl	0x1000317d0 <_writev+0x1000317d0>
100006448: e0 02 00 34 	cbz	w0, 0x1000064a4 <__ZN5alloc4sync12Arc$LT$T$GT$9drop_slow17h88213df8f14a27faE+0x7c>
10000644c: 61 16 40 f9 	ldr	x1, [x19, #40]
100006450: 81 00 00 b4 	cbz	x1, 0x100006460 <__ZN5alloc4sync12Arc$LT$T$GT$9drop_slow17h88213df8f14a27faE+0x38>
100006454: 60 12 40 f9 	ldr	x0, [x19, #32]
100006458: 22 00 80 52 	mov	w2, #1
10000645c: 18 ec ff 97 	bl	0x1000014bc <___rust_dealloc>
100006460: 7f 06 00 b1 	cmn	x19, #1
100006464: a0 01 00 54 	b.eq	0x100006498 <__ZN5alloc4sync12Arc$LT$T$GT$9drop_slow17h88213df8f14a27faE+0x70>
100006468: 68 22 00 91 	add	x8, x19, #8
10000646c: 09 00 80 92 	mov	x9, #-1
100006470: 08 01 69 f8 	<unknown>
100006474: 1f 05 00 f1 	cmp	x8, #1
100006478: 01 01 00 54 	b.ne	0x100006498 <__ZN5alloc4sync12Arc$LT$T$GT$9drop_slow17h88213df8f14a27faE+0x70>
10000647c: bf 39 03 d5 	dmb	ishld
100006480: e0 03 13 aa 	mov	x0, x19
100006484: 01 07 80 52 	mov	w1, #56
100006488: 02 01 80 52 	mov	w2, #8
10000648c: fd 7b 41 a9 	ldp	x29, x30, [sp, #16]
100006490: f4 4f c2 a8 	ldp	x20, x19, [sp], #32
100006494: 0a ec ff 17 	b	0x1000014bc <___rust_dealloc>
100006498: fd 7b 41 a9 	ldp	x29, x30, [sp, #16]
10000649c: f4 4f c2 a8 	ldp	x20, x19, [sp], #32
1000064a0: c0 03 5f d6 	ret
1000064a4: e0 03 14 aa 	mov	x0, x20
1000064a8: cd ac 00 94 	bl	0x1000317dc <_writev+0x1000317dc>
1000064ac: e0 03 14 aa 	mov	x0, x20
1000064b0: bf ac 00 94 	bl	0x1000317ac <_writev+0x1000317ac>
1000064b4: e0 03 14 aa 	mov	x0, x20
1000064b8: 01 08 80 52 	mov	w1, #64
1000064bc: 02 01 80 52 	mov	w2, #8
1000064c0: ff eb ff 97 	bl	0x1000014bc <___rust_dealloc>
1000064c4: 61 16 40 f9 	ldr	x1, [x19, #40]
1000064c8: 61 fc ff b5 	cbnz	x1, 0x100006454 <__ZN5alloc4sync12Arc$LT$T$GT$9drop_slow17h88213df8f14a27faE+0x2c>
1000064cc: e5 ff ff 17 	b	0x100006460 <__ZN5alloc4sync12Arc$LT$T$GT$9drop_slow17h88213df8f14a27faE+0x38>

00000001000064d0 <__ZN5alloc4sync12Arc$LT$T$GT$9drop_slow17ha85fe76f318f42c9E>:
1000064d0: 1f 04 00 b1 	cmn	x0, #1
1000064d4: 40 01 00 54 	b.eq	0x1000064fc <__ZN5alloc4sync12Arc$LT$T$GT$9drop_slow17ha85fe76f318f42c9E+0x2c>
1000064d8: 08 20 00 91 	add	x8, x0, #8
1000064dc: 09 00 80 92 	mov	x9, #-1
1000064e0: 08 01 69 f8 	<unknown>
1000064e4: 1f 05 00 f1 	cmp	x8, #1
1000064e8: a1 00 00 54 	b.ne	0x1000064fc <__ZN5alloc4sync12Arc$LT$T$GT$9drop_slow17ha85fe76f318f42c9E+0x2c>
1000064ec: bf 39 03 d5 	dmb	ishld
1000064f0: 01 14 80 52 	mov	w1, #160
1000064f4: 02 01 80 52 	mov	w2, #8
1000064f8: f1 eb ff 17 	b	0x1000014bc <___rust_dealloc>
1000064fc: c0 03 5f d6 	ret

0000000100006500 <__ZN5alloc5alloc8box_free17h06c6c347ce251224E>:
100006500: 81 00 00 b4 	cbz	x1, 0x100006510 <__ZN5alloc5alloc8box_free17h06c6c347ce251224E+0x10>
100006504: 21 dc 78 d3 	lsl	x1, x1, #8
100006508: 02 01 80 52 	mov	w2, #8
10000650c: ec eb ff 17 	b	0x1000014bc <___rust_dealloc>
100006510: c0 03 5f d6 	ret

0000000100006514 <__ZN5alloc5alloc8box_free17h16a1d4e9777890a4E>:
100006514: e8 03 01 aa 	mov	x8, x1
100006518: 21 04 40 f9 	ldr	x1, [x1, #8]
10000651c: 61 00 00 b4 	cbz	x1, 0x100006528 <__ZN5alloc5alloc8box_free17h16a1d4e9777890a4E+0x14>
100006520: 02 09 40 f9 	ldr	x2, [x8, #16]
100006524: e6 eb ff 17 	b	0x1000014bc <___rust_dealloc>
100006528: c0 03 5f d6 	ret

000000010000652c <__ZN5alloc5alloc8box_free17h2df778ef127c4147E>:
10000652c: 01 08 80 52 	mov	w1, #64
100006530: 02 01 80 52 	mov	w2, #8
100006534: e2 eb ff 17 	b	0x1000014bc <___rust_dealloc>

0000000100006538 <__ZN5alloc5alloc8box_free17ha605f80891c6c3a7E>:
100006538: 01 03 80 52 	mov	w1, #24
10000653c: 02 01 80 52 	mov	w2, #8
100006540: df eb ff 17 	b	0x1000014bc <___rust_dealloc>

0000000100006544 <__ZN5alloc7raw_vec11finish_grow17ha1a1a75e007cb083E>:
100006544: f6 57 bd a9 	stp	x22, x21, [sp, #-48]!
100006548: f4 4f 01 a9 	stp	x20, x19, [sp, #16]
10000654c: fd 7b 02 a9 	stp	x29, x30, [sp, #32]
100006550: fd 83 00 91 	add	x29, sp, #32
100006554: f3 03 00 aa 	mov	x19, x0
100006558: 5f 00 00 f1 	cmp	x2, #0
10000655c: f5 03 81 9a 	csel	x21, xzr, x1, eq
100006560: a2 02 00 b4 	cbz	x2, 0x1000065b4 <__ZN5alloc7raw_vec11finish_grow17ha1a1a75e007cb083E+0x70>
100006564: f4 03 02 aa 	mov	x20, x2
100006568: 68 08 40 f9 	ldr	x8, [x3, #16]
10000656c: 48 03 00 b4 	cbz	x8, 0x1000065d4 <__ZN5alloc7raw_vec11finish_grow17ha1a1a75e007cb083E+0x90>
100006570: 61 04 40 f9 	ldr	x1, [x3, #8]
100006574: 01 03 00 b4 	cbz	x1, 0x1000065d4 <__ZN5alloc7raw_vec11finish_grow17ha1a1a75e007cb083E+0x90>
100006578: 60 00 40 f9 	ldr	x0, [x3]
10000657c: e2 03 14 aa 	mov	x2, x20
100006580: e3 03 15 aa 	mov	x3, x21
100006584: cf eb ff 97 	bl	0x1000014c0 <___rust_realloc>
100006588: 1f 00 00 f1 	cmp	x0, #0
10000658c: e8 03 95 9a 	csel	x8, xzr, x21, eq
100006590: 00 03 00 b5 	cbnz	x0, 0x1000065f0 <__ZN5alloc7raw_vec11finish_grow17ha1a1a75e007cb083E+0xac>
100006594: 29 00 80 52 	mov	w9, #1
100006598: e8 03 14 aa 	mov	x8, x20
10000659c: 75 a2 00 a9 	stp	x21, x8, [x19, #8]
1000065a0: 69 02 00 f9 	str	x9, [x19]
1000065a4: fd 7b 42 a9 	ldp	x29, x30, [sp, #32]
1000065a8: f4 4f 41 a9 	ldp	x20, x19, [sp, #16]
1000065ac: f6 57 c3 a8 	ldp	x22, x21, [sp], #48
1000065b0: c0 03 5f d6 	ret
1000065b4: 08 00 80 d2 	mov	x8, #0
1000065b8: 75 a2 00 a9 	stp	x21, x8, [x19, #8]
1000065bc: 29 00 80 52 	mov	w9, #1
1000065c0: 69 02 00 f9 	str	x9, [x19]
1000065c4: fd 7b 42 a9 	ldp	x29, x30, [sp, #32]
1000065c8: f4 4f 41 a9 	ldp	x20, x19, [sp, #16]
1000065cc: f6 57 c3 a8 	ldp	x22, x21, [sp], #48
1000065d0: c0 03 5f d6 	ret
1000065d4: d5 01 00 b4 	cbz	x21, 0x10000660c <__ZN5alloc7raw_vec11finish_grow17ha1a1a75e007cb083E+0xc8>
1000065d8: e0 03 15 aa 	mov	x0, x21
1000065dc: e1 03 14 aa 	mov	x1, x20
1000065e0: b6 eb ff 97 	bl	0x1000014b8 <___rust_alloc>
1000065e4: 1f 00 00 f1 	cmp	x0, #0
1000065e8: e8 03 95 9a 	csel	x8, xzr, x21, eq
1000065ec: 40 fd ff b4 	cbz	x0, 0x100006594 <__ZN5alloc7raw_vec11finish_grow17ha1a1a75e007cb083E+0x50>
1000065f0: 09 00 80 d2 	mov	x9, #0
1000065f4: 60 a2 00 a9 	stp	x0, x8, [x19, #8]
1000065f8: 69 02 00 f9 	str	x9, [x19]
1000065fc: fd 7b 42 a9 	ldp	x29, x30, [sp, #32]
100006600: f4 4f 41 a9 	ldp	x20, x19, [sp, #16]
100006604: f6 57 c3 a8 	ldp	x22, x21, [sp], #48
100006608: c0 03 5f d6 	ret
10000660c: 08 00 80 d2 	mov	x8, #0
100006610: e0 03 14 aa 	mov	x0, x20
100006614: e0 fe ff b5 	cbnz	x0, 0x1000065f0 <__ZN5alloc7raw_vec11finish_grow17ha1a1a75e007cb083E+0xac>
100006618: df ff ff 17 	b	0x100006594 <__ZN5alloc7raw_vec11finish_grow17ha1a1a75e007cb083E+0x50>

000000010000661c <__ZN5alloc7raw_vec19RawVec$LT$T$C$A$GT$16reserve_for_push17h17dbcbc2a56af33eE>:
10000661c: ff 43 01 d1 	sub	sp, sp, #80
100006620: f4 4f 03 a9 	stp	x20, x19, [sp, #48]
100006624: fd 7b 04 a9 	stp	x29, x30, [sp, #64]
100006628: fd 03 01 91 	add	x29, sp, #64
10000662c: 29 04 00 b1 	adds	x9, x1, #1
100006630: 02 05 00 54 	b.hs	0x1000066d0 <__ZN5alloc7raw_vec19RawVec$LT$T$C$A$GT$16reserve_for_push17h17dbcbc2a56af33eE+0xb4>
100006634: f3 03 00 aa 	mov	x19, x0
100006638: 08 04 40 f9 	ldr	x8, [x0, #8]
10000663c: 0a f9 7f d3 	lsl	x10, x8, #1
100006640: 5f 01 09 eb 	cmp	x10, x9
100006644: 49 81 89 9a 	csel	x9, x10, x9, hi
100006648: 8a 00 80 52 	mov	w10, #4
10000664c: 3f 11 00 f1 	cmp	x9, #4
100006650: 34 81 8a 9a 	csel	x20, x9, x10, hi
100006654: 89 f6 7e d3 	lsl	x9, x20, #2
100006658: ff fb 54 eb 	cmp	xzr, x20, lsr #62
10000665c: 4a 00 80 52 	mov	w10, #2
100006660: e2 13 8a 9a 	csel	x2, xzr, x10, ne
100006664: e1 13 89 9a 	csel	x1, xzr, x9, ne
100006668: 28 02 00 b4 	cbz	x8, 0x1000066ac <__ZN5alloc7raw_vec19RawVec$LT$T$C$A$GT$16reserve_for_push17h17dbcbc2a56af33eE+0x90>
10000666c: 69 02 40 f9 	ldr	x9, [x19]
100006670: 08 f5 7e d3 	lsl	x8, x8, #2
100006674: e9 a3 01 a9 	stp	x9, x8, [sp, #24]
100006678: 48 00 80 52 	mov	w8, #2
10000667c: e8 17 00 f9 	str	x8, [sp, #40]
100006680: e0 03 00 91 	mov	x0, sp
100006684: e3 63 00 91 	add	x3, sp, #24
100006688: af ff ff 97 	bl	0x100006544 <__ZN5alloc7raw_vec11finish_grow17ha1a1a75e007cb083E>
10000668c: e8 03 40 f9 	ldr	x8, [sp]
100006690: c8 01 00 b5 	cbnz	x8, 0x1000066c8 <__ZN5alloc7raw_vec19RawVec$LT$T$C$A$GT$16reserve_for_push17h17dbcbc2a56af33eE+0xac>
100006694: e8 07 40 f9 	ldr	x8, [sp, #8]
100006698: 68 52 00 a9 	stp	x8, x20, [x19]
10000669c: fd 7b 44 a9 	ldp	x29, x30, [sp, #64]
1000066a0: f4 4f 43 a9 	ldp	x20, x19, [sp, #48]
1000066a4: ff 43 01 91 	add	sp, sp, #80
1000066a8: c0 03 5f d6 	ret
1000066ac: ff ff 01 a9 	stp	xzr, xzr, [sp, #24]
1000066b0: e8 17 00 f9 	str	x8, [sp, #40]
1000066b4: e0 03 00 91 	mov	x0, sp
1000066b8: e3 63 00 91 	add	x3, sp, #24
1000066bc: a2 ff ff 97 	bl	0x100006544 <__ZN5alloc7raw_vec11finish_grow17ha1a1a75e007cb083E>
1000066c0: e8 03 40 f9 	ldr	x8, [sp]
1000066c4: 88 fe ff b4 	cbz	x8, 0x100006694 <__ZN5alloc7raw_vec19RawVec$LT$T$C$A$GT$16reserve_for_push17h17dbcbc2a56af33eE+0x78>
1000066c8: e1 0b 40 f9 	ldr	x1, [sp, #16]
1000066cc: 41 00 00 b5 	cbnz	x1, 0x1000066d4 <__ZN5alloc7raw_vec19RawVec$LT$T$C$A$GT$16reserve_for_push17h17dbcbc2a56af33eE+0xb8>
1000066d0: ea 8c 00 94 	bl	0x100029a78 <__ZN5alloc7raw_vec17capacity_overflow17haa5d1dbd3cea17aaE>
1000066d4: e0 07 40 f9 	ldr	x0, [sp, #8]
1000066d8: 36 ab 00 94 	bl	0x1000313b0 <__ZN5alloc5alloc18handle_alloc_error17h63a008190bf6efc7E>

00000001000066dc <__ZN5alloc7raw_vec19RawVec$LT$T$C$A$GT$16reserve_for_push17h1dac4c4f3d2b95e2E>:
1000066dc: ff 43 01 d1 	sub	sp, sp, #80
1000066e0: f4 4f 03 a9 	stp	x20, x19, [sp, #48]
1000066e4: fd 7b 04 a9 	stp	x29, x30, [sp, #64]
1000066e8: fd 03 01 91 	add	x29, sp, #64
1000066ec: 29 04 00 b1 	adds	x9, x1, #1
1000066f0: 82 05 00 54 	b.hs	0x1000067a0 <__ZN5alloc7raw_vec19RawVec$LT$T$C$A$GT$16reserve_for_push17h1dac4c4f3d2b95e2E+0xc4>
1000066f4: f3 03 00 aa 	mov	x19, x0
1000066f8: 08 04 40 f9 	ldr	x8, [x0, #8]
1000066fc: 0a f9 7f d3 	lsl	x10, x8, #1
100006700: 5f 01 09 eb 	cmp	x10, x9
100006704: 49 81 89 9a 	csel	x9, x10, x9, hi
100006708: 8a 00 80 52 	mov	w10, #4
10000670c: 3f 11 00 f1 	cmp	x9, #4
100006710: 34 81 8a 9a 	csel	x20, x9, x10, hi
100006714: 89 06 14 8b 	add	x9, x20, x20, lsl #1
100006718: 29 f1 7d d3 	lsl	x9, x9, #3
10000671c: 0a 03 80 52 	mov	w10, #24
100006720: 8a 7e ca 9b 	umulh	x10, x20, x10
100006724: 0b 01 80 52 	mov	w11, #8
100006728: ff 03 0a eb 	cmp	xzr, x10
10000672c: e2 13 8b 9a 	csel	x2, xzr, x11, ne
100006730: e1 13 89 9a 	csel	x1, xzr, x9, ne
100006734: 48 02 00 b4 	cbz	x8, 0x10000677c <__ZN5alloc7raw_vec19RawVec$LT$T$C$A$GT$16reserve_for_push17h1dac4c4f3d2b95e2E+0xa0>
100006738: 69 02 40 f9 	ldr	x9, [x19]
10000673c: 08 05 08 8b 	add	x8, x8, x8, lsl #1
100006740: 08 f1 7d d3 	lsl	x8, x8, #3
100006744: e9 a3 01 a9 	stp	x9, x8, [sp, #24]
100006748: 08 01 80 52 	mov	w8, #8
10000674c: e8 17 00 f9 	str	x8, [sp, #40]
100006750: e0 03 00 91 	mov	x0, sp
100006754: e3 63 00 91 	add	x3, sp, #24
100006758: 7b ff ff 97 	bl	0x100006544 <__ZN5alloc7raw_vec11finish_grow17ha1a1a75e007cb083E>
10000675c: e8 03 40 f9 	ldr	x8, [sp]
100006760: c8 01 00 b5 	cbnz	x8, 0x100006798 <__ZN5alloc7raw_vec19RawVec$LT$T$C$A$GT$16reserve_for_push17h1dac4c4f3d2b95e2E+0xbc>
100006764: e8 07 40 f9 	ldr	x8, [sp, #8]
100006768: 68 52 00 a9 	stp	x8, x20, [x19]
10000676c: fd 7b 44 a9 	ldp	x29, x30, [sp, #64]
100006770: f4 4f 43 a9 	ldp	x20, x19, [sp, #48]
100006774: ff 43 01 91 	add	sp, sp, #80
100006778: c0 03 5f d6 	ret
10000677c: ff ff 01 a9 	stp	xzr, xzr, [sp, #24]
100006780: e8 17 00 f9 	str	x8, [sp, #40]
100006784: e0 03 00 91 	mov	x0, sp
100006788: e3 63 00 91 	add	x3, sp, #24
10000678c: 6e ff ff 97 	bl	0x100006544 <__ZN5alloc7raw_vec11finish_grow17ha1a1a75e007cb083E>
100006790: e8 03 40 f9 	ldr	x8, [sp]
100006794: 88 fe ff b4 	cbz	x8, 0x100006764 <__ZN5alloc7raw_vec19RawVec$LT$T$C$A$GT$16reserve_for_push17h1dac4c4f3d2b95e2E+0x88>
100006798: e1 0b 40 f9 	ldr	x1, [sp, #16]
10000679c: 41 00 00 b5 	cbnz	x1, 0x1000067a4 <__ZN5alloc7raw_vec19RawVec$LT$T$C$A$GT$16reserve_for_push17h1dac4c4f3d2b95e2E+0xc8>
1000067a0: b6 8c 00 94 	bl	0x100029a78 <__ZN5alloc7raw_vec17capacity_overflow17haa5d1dbd3cea17aaE>
1000067a4: e0 07 40 f9 	ldr	x0, [sp, #8]
1000067a8: 02 ab 00 94 	bl	0x1000313b0 <__ZN5alloc5alloc18handle_alloc_error17h63a008190bf6efc7E>

00000001000067ac <__ZN5alloc7raw_vec19RawVec$LT$T$C$A$GT$16reserve_for_push17h224b3fd9dde92aa1E>:
1000067ac: ff 43 01 d1 	sub	sp, sp, #80
1000067b0: f4 4f 03 a9 	stp	x20, x19, [sp, #48]
1000067b4: fd 7b 04 a9 	stp	x29, x30, [sp, #64]
1000067b8: fd 03 01 91 	add	x29, sp, #64
1000067bc: 29 04 00 b1 	adds	x9, x1, #1
1000067c0: 82 05 00 54 	b.hs	0x100006870 <__ZN5alloc7raw_vec19RawVec$LT$T$C$A$GT$16reserve_for_push17h224b3fd9dde92aa1E+0xc4>
1000067c4: f3 03 00 aa 	mov	x19, x0
1000067c8: 08 04 40 f9 	ldr	x8, [x0, #8]
1000067cc: 0a f9 7f d3 	lsl	x10, x8, #1
1000067d0: 5f 01 09 eb 	cmp	x10, x9
1000067d4: 49 81 89 9a 	csel	x9, x10, x9, hi
1000067d8: 8a 00 80 52 	mov	w10, #4
1000067dc: 3f 11 00 f1 	cmp	x9, #4
1000067e0: 34 81 8a 9a 	csel	x20, x9, x10, hi
1000067e4: 89 0e 14 8b 	add	x9, x20, x20, lsl #3
1000067e8: 29 f1 7d d3 	lsl	x9, x9, #3
1000067ec: 0a 09 80 52 	mov	w10, #72
1000067f0: 8a 7e ca 9b 	umulh	x10, x20, x10
1000067f4: 0b 01 80 52 	mov	w11, #8
1000067f8: ff 03 0a eb 	cmp	xzr, x10
1000067fc: e2 13 8b 9a 	csel	x2, xzr, x11, ne
100006800: e1 13 89 9a 	csel	x1, xzr, x9, ne
100006804: 48 02 00 b4 	cbz	x8, 0x10000684c <__ZN5alloc7raw_vec19RawVec$LT$T$C$A$GT$16reserve_for_push17h224b3fd9dde92aa1E+0xa0>
100006808: 69 02 40 f9 	ldr	x9, [x19]
10000680c: 08 0d 08 8b 	add	x8, x8, x8, lsl #3
100006810: 08 f1 7d d3 	lsl	x8, x8, #3
100006814: e9 a3 01 a9 	stp	x9, x8, [sp, #24]
100006818: 08 01 80 52 	mov	w8, #8
10000681c: e8 17 00 f9 	str	x8, [sp, #40]
100006820: e0 03 00 91 	mov	x0, sp
100006824: e3 63 00 91 	add	x3, sp, #24
100006828: 47 ff ff 97 	bl	0x100006544 <__ZN5alloc7raw_vec11finish_grow17ha1a1a75e007cb083E>
10000682c: e8 03 40 f9 	ldr	x8, [sp]
100006830: c8 01 00 b5 	cbnz	x8, 0x100006868 <__ZN5alloc7raw_vec19RawVec$LT$T$C$A$GT$16reserve_for_push17h224b3fd9dde92aa1E+0xbc>
100006834: e8 07 40 f9 	ldr	x8, [sp, #8]
100006838: 68 52 00 a9 	stp	x8, x20, [x19]
10000683c: fd 7b 44 a9 	ldp	x29, x30, [sp, #64]
100006840: f4 4f 43 a9 	ldp	x20, x19, [sp, #48]
100006844: ff 43 01 91 	add	sp, sp, #80
100006848: c0 03 5f d6 	ret
10000684c: ff ff 01 a9 	stp	xzr, xzr, [sp, #24]
100006850: e8 17 00 f9 	str	x8, [sp, #40]
100006854: e0 03 00 91 	mov	x0, sp
100006858: e3 63 00 91 	add	x3, sp, #24
10000685c: 3a ff ff 97 	bl	0x100006544 <__ZN5alloc7raw_vec11finish_grow17ha1a1a75e007cb083E>
100006860: e8 03 40 f9 	ldr	x8, [sp]
100006864: 88 fe ff b4 	cbz	x8, 0x100006834 <__ZN5alloc7raw_vec19RawVec$LT$T$C$A$GT$16reserve_for_push17h224b3fd9dde92aa1E+0x88>
100006868: e1 0b 40 f9 	ldr	x1, [sp, #16]
10000686c: 41 00 00 b5 	cbnz	x1, 0x100006874 <__ZN5alloc7raw_vec19RawVec$LT$T$C$A$GT$16reserve_for_push17h224b3fd9dde92aa1E+0xc8>
100006870: 82 8c 00 94 	bl	0x100029a78 <__ZN5alloc7raw_vec17capacity_overflow17haa5d1dbd3cea17aaE>
100006874: e0 07 40 f9 	ldr	x0, [sp, #8]
100006878: ce aa 00 94 	bl	0x1000313b0 <__ZN5alloc5alloc18handle_alloc_error17h63a008190bf6efc7E>

000000010000687c <__ZN5alloc7raw_vec19RawVec$LT$T$C$A$GT$16reserve_for_push17h339366f3d4502e98E>:
10000687c: ff 43 01 d1 	sub	sp, sp, #80
100006880: f4 4f 03 a9 	stp	x20, x19, [sp, #48]
100006884: fd 7b 04 a9 	stp	x29, x30, [sp, #64]
100006888: fd 03 01 91 	add	x29, sp, #64
10000688c: 29 04 00 b1 	adds	x9, x1, #1
100006890: 02 05 00 54 	b.hs	0x100006930 <__ZN5alloc7raw_vec19RawVec$LT$T$C$A$GT$16reserve_for_push17h339366f3d4502e98E+0xb4>
100006894: f3 03 00 aa 	mov	x19, x0
100006898: 08 04 40 f9 	ldr	x8, [x0, #8]
10000689c: 0a f9 7f d3 	lsl	x10, x8, #1
1000068a0: 5f 01 09 eb 	cmp	x10, x9
1000068a4: 49 81 89 9a 	csel	x9, x10, x9, hi
1000068a8: 8a 00 80 52 	mov	w10, #4
1000068ac: 3f 11 00 f1 	cmp	x9, #4
1000068b0: 34 81 8a 9a 	csel	x20, x9, x10, hi
1000068b4: 89 ee 7c d3 	lsl	x9, x20, #4
1000068b8: ff f3 54 eb 	cmp	xzr, x20, lsr #60
1000068bc: 0a 01 80 52 	mov	w10, #8
1000068c0: e2 13 8a 9a 	csel	x2, xzr, x10, ne
1000068c4: e1 13 89 9a 	csel	x1, xzr, x9, ne
1000068c8: 28 02 00 b4 	cbz	x8, 0x10000690c <__ZN5alloc7raw_vec19RawVec$LT$T$C$A$GT$16reserve_for_push17h339366f3d4502e98E+0x90>
1000068cc: 69 02 40 f9 	ldr	x9, [x19]
1000068d0: 08 ed 7c d3 	lsl	x8, x8, #4
1000068d4: e9 a3 01 a9 	stp	x9, x8, [sp, #24]
1000068d8: 08 01 80 52 	mov	w8, #8
1000068dc: e8 17 00 f9 	str	x8, [sp, #40]
1000068e0: e0 03 00 91 	mov	x0, sp
1000068e4: e3 63 00 91 	add	x3, sp, #24
1000068e8: 17 ff ff 97 	bl	0x100006544 <__ZN5alloc7raw_vec11finish_grow17ha1a1a75e007cb083E>
1000068ec: e8 03 40 f9 	ldr	x8, [sp]
1000068f0: c8 01 00 b5 	cbnz	x8, 0x100006928 <__ZN5alloc7raw_vec19RawVec$LT$T$C$A$GT$16reserve_for_push17h339366f3d4502e98E+0xac>
1000068f4: e8 07 40 f9 	ldr	x8, [sp, #8]
1000068f8: 68 52 00 a9 	stp	x8, x20, [x19]
1000068fc: fd 7b 44 a9 	ldp	x29, x30, [sp, #64]
100006900: f4 4f 43 a9 	ldp	x20, x19, [sp, #48]
100006904: ff 43 01 91 	add	sp, sp, #80
100006908: c0 03 5f d6 	ret
10000690c: ff ff 01 a9 	stp	xzr, xzr, [sp, #24]
100006910: e8 17 00 f9 	str	x8, [sp, #40]
100006914: e0 03 00 91 	mov	x0, sp
100006918: e3 63 00 91 	add	x3, sp, #24
10000691c: 0a ff ff 97 	bl	0x100006544 <__ZN5alloc7raw_vec11finish_grow17ha1a1a75e007cb083E>
100006920: e8 03 40 f9 	ldr	x8, [sp]
100006924: 88 fe ff b4 	cbz	x8, 0x1000068f4 <__ZN5alloc7raw_vec19RawVec$LT$T$C$A$GT$16reserve_for_push17h339366f3d4502e98E+0x78>
100006928: e1 0b 40 f9 	ldr	x1, [sp, #16]
10000692c: 41 00 00 b5 	cbnz	x1, 0x100006934 <__ZN5alloc7raw_vec19RawVec$LT$T$C$A$GT$16reserve_for_push17h339366f3d4502e98E+0xb8>
100006930: 52 8c 00 94 	bl	0x100029a78 <__ZN5alloc7raw_vec17capacity_overflow17haa5d1dbd3cea17aaE>
100006934: e0 07 40 f9 	ldr	x0, [sp, #8]
100006938: 9e aa 00 94 	bl	0x1000313b0 <__ZN5alloc5alloc18handle_alloc_error17h63a008190bf6efc7E>

000000010000693c <__ZN5alloc7raw_vec19RawVec$LT$T$C$A$GT$16reserve_for_push17h3aba614eaf711189E>:
10000693c: ff 43 01 d1 	sub	sp, sp, #80
100006940: f4 4f 03 a9 	stp	x20, x19, [sp, #48]
100006944: fd 7b 04 a9 	stp	x29, x30, [sp, #64]
100006948: fd 03 01 91 	add	x29, sp, #64
10000694c: 29 04 00 b1 	adds	x9, x1, #1
100006950: 02 05 00 54 	b.hs	0x1000069f0 <__ZN5alloc7raw_vec19RawVec$LT$T$C$A$GT$16reserve_for_push17h3aba614eaf711189E+0xb4>
100006954: f3 03 00 aa 	mov	x19, x0
100006958: 08 04 40 f9 	ldr	x8, [x0, #8]
10000695c: 0a f9 7f d3 	lsl	x10, x8, #1
100006960: 5f 01 09 eb 	cmp	x10, x9
100006964: 49 81 89 9a 	csel	x9, x10, x9, hi
100006968: 8a 00 80 52 	mov	w10, #4
10000696c: 3f 11 00 f1 	cmp	x9, #4
100006970: 34 81 8a 9a 	csel	x20, x9, x10, hi
100006974: 89 e6 7a d3 	lsl	x9, x20, #6
100006978: ff eb 54 eb 	cmp	xzr, x20, lsr #58
10000697c: 0a 01 80 52 	mov	w10, #8
100006980: e2 13 8a 9a 	csel	x2, xzr, x10, ne
100006984: e1 13 89 9a 	csel	x1, xzr, x9, ne
100006988: 28 02 00 b4 	cbz	x8, 0x1000069cc <__ZN5alloc7raw_vec19RawVec$LT$T$C$A$GT$16reserve_for_push17h3aba614eaf711189E+0x90>
10000698c: 69 02 40 f9 	ldr	x9, [x19]
100006990: 08 e5 7a d3 	lsl	x8, x8, #6
100006994: e9 a3 01 a9 	stp	x9, x8, [sp, #24]
100006998: 08 01 80 52 	mov	w8, #8
10000699c: e8 17 00 f9 	str	x8, [sp, #40]
1000069a0: e0 03 00 91 	mov	x0, sp
1000069a4: e3 63 00 91 	add	x3, sp, #24
1000069a8: e7 fe ff 97 	bl	0x100006544 <__ZN5alloc7raw_vec11finish_grow17ha1a1a75e007cb083E>
1000069ac: e8 03 40 f9 	ldr	x8, [sp]
1000069b0: c8 01 00 b5 	cbnz	x8, 0x1000069e8 <__ZN5alloc7raw_vec19RawVec$LT$T$C$A$GT$16reserve_for_push17h3aba614eaf711189E+0xac>
1000069b4: e8 07 40 f9 	ldr	x8, [sp, #8]
1000069b8: 68 52 00 a9 	stp	x8, x20, [x19]
1000069bc: fd 7b 44 a9 	ldp	x29, x30, [sp, #64]
1000069c0: f4 4f 43 a9 	ldp	x20, x19, [sp, #48]
1000069c4: ff 43 01 91 	add	sp, sp, #80
1000069c8: c0 03 5f d6 	ret
1000069cc: ff ff 01 a9 	stp	xzr, xzr, [sp, #24]
1000069d0: e8 17 00 f9 	str	x8, [sp, #40]
1000069d4: e0 03 00 91 	mov	x0, sp
1000069d8: e3 63 00 91 	add	x3, sp, #24
1000069dc: da fe ff 97 	bl	0x100006544 <__ZN5alloc7raw_vec11finish_grow17ha1a1a75e007cb083E>
1000069e0: e8 03 40 f9 	ldr	x8, [sp]
1000069e4: 88 fe ff b4 	cbz	x8, 0x1000069b4 <__ZN5alloc7raw_vec19RawVec$LT$T$C$A$GT$16reserve_for_push17h3aba614eaf711189E+0x78>
1000069e8: e1 0b 40 f9 	ldr	x1, [sp, #16]
1000069ec: 41 00 00 b5 	cbnz	x1, 0x1000069f4 <__ZN5alloc7raw_vec19RawVec$LT$T$C$A$GT$16reserve_for_push17h3aba614eaf711189E+0xb8>
1000069f0: 22 8c 00 94 	bl	0x100029a78 <__ZN5alloc7raw_vec17capacity_overflow17haa5d1dbd3cea17aaE>
1000069f4: e0 07 40 f9 	ldr	x0, [sp, #8]
1000069f8: 6e aa 00 94 	bl	0x1000313b0 <__ZN5alloc5alloc18handle_alloc_error17h63a008190bf6efc7E>

00000001000069fc <__ZN5alloc7raw_vec19RawVec$LT$T$C$A$GT$16reserve_for_push17h4aa2e791738e17efE>:
1000069fc: ff 43 01 d1 	sub	sp, sp, #80
100006a00: f4 4f 03 a9 	stp	x20, x19, [sp, #48]
100006a04: fd 7b 04 a9 	stp	x29, x30, [sp, #64]
100006a08: fd 03 01 91 	add	x29, sp, #64
100006a0c: 29 04 00 b1 	adds	x9, x1, #1
100006a10: 02 05 00 54 	b.hs	0x100006ab0 <__ZN5alloc7raw_vec19RawVec$LT$T$C$A$GT$16reserve_for_push17h4aa2e791738e17efE+0xb4>
100006a14: f3 03 00 aa 	mov	x19, x0
100006a18: 08 04 40 f9 	ldr	x8, [x0, #8]
100006a1c: 0a f9 7f d3 	lsl	x10, x8, #1
100006a20: 5f 01 09 eb 	cmp	x10, x9
100006a24: 49 81 89 9a 	csel	x9, x10, x9, hi
100006a28: 8a 00 80 52 	mov	w10, #4
100006a2c: 3f 11 00 f1 	cmp	x9, #4
100006a30: 34 81 8a 9a 	csel	x20, x9, x10, hi
100006a34: 89 ea 7b d3 	lsl	x9, x20, #5
100006a38: ff ef 54 eb 	cmp	xzr, x20, lsr #59
100006a3c: 0a 01 80 52 	mov	w10, #8
100006a40: e2 13 8a 9a 	csel	x2, xzr, x10, ne
100006a44: e1 13 89 9a 	csel	x1, xzr, x9, ne
100006a48: 28 02 00 b4 	cbz	x8, 0x100006a8c <__ZN5alloc7raw_vec19RawVec$LT$T$C$A$GT$16reserve_for_push17h4aa2e791738e17efE+0x90>
100006a4c: 69 02 40 f9 	ldr	x9, [x19]
100006a50: 08 e9 7b d3 	lsl	x8, x8, #5
100006a54: e9 a3 01 a9 	stp	x9, x8, [sp, #24]
100006a58: 08 01 80 52 	mov	w8, #8
100006a5c: e8 17 00 f9 	str	x8, [sp, #40]
100006a60: e0 03 00 91 	mov	x0, sp
100006a64: e3 63 00 91 	add	x3, sp, #24
100006a68: b7 fe ff 97 	bl	0x100006544 <__ZN5alloc7raw_vec11finish_grow17ha1a1a75e007cb083E>
100006a6c: e8 03 40 f9 	ldr	x8, [sp]
100006a70: c8 01 00 b5 	cbnz	x8, 0x100006aa8 <__ZN5alloc7raw_vec19RawVec$LT$T$C$A$GT$16reserve_for_push17h4aa2e791738e17efE+0xac>
100006a74: e8 07 40 f9 	ldr	x8, [sp, #8]
100006a78: 68 52 00 a9 	stp	x8, x20, [x19]
100006a7c: fd 7b 44 a9 	ldp	x29, x30, [sp, #64]
100006a80: f4 4f 43 a9 	ldp	x20, x19, [sp, #48]
100006a84: ff 43 01 91 	add	sp, sp, #80
100006a88: c0 03 5f d6 	ret
100006a8c: ff ff 01 a9 	stp	xzr, xzr, [sp, #24]
100006a90: e8 17 00 f9 	str	x8, [sp, #40]
100006a94: e0 03 00 91 	mov	x0, sp
100006a98: e3 63 00 91 	add	x3, sp, #24
100006a9c: aa fe ff 97 	bl	0x100006544 <__ZN5alloc7raw_vec11finish_grow17ha1a1a75e007cb083E>
100006aa0: e8 03 40 f9 	ldr	x8, [sp]
100006aa4: 88 fe ff b4 	cbz	x8, 0x100006a74 <__ZN5alloc7raw_vec19RawVec$LT$T$C$A$GT$16reserve_for_push17h4aa2e791738e17efE+0x78>
100006aa8: e1 0b 40 f9 	ldr	x1, [sp, #16]
100006aac: 41 00 00 b5 	cbnz	x1, 0x100006ab4 <__ZN5alloc7raw_vec19RawVec$LT$T$C$A$GT$16reserve_for_push17h4aa2e791738e17efE+0xb8>
100006ab0: f2 8b 00 94 	bl	0x100029a78 <__ZN5alloc7raw_vec17capacity_overflow17haa5d1dbd3cea17aaE>
100006ab4: e0 07 40 f9 	ldr	x0, [sp, #8]
100006ab8: 3e aa 00 94 	bl	0x1000313b0 <__ZN5alloc5alloc18handle_alloc_error17h63a008190bf6efc7E>

0000000100006abc <__ZN5alloc7raw_vec19RawVec$LT$T$C$A$GT$16reserve_for_push17h60dbc62b632f6f52E>:
100006abc: ff 43 01 d1 	sub	sp, sp, #80
100006ac0: f4 4f 03 a9 	stp	x20, x19, [sp, #48]
100006ac4: fd 7b 04 a9 	stp	x29, x30, [sp, #64]
100006ac8: fd 03 01 91 	add	x29, sp, #64
100006acc: 29 04 00 b1 	adds	x9, x1, #1
100006ad0: 02 05 00 54 	b.hs	0x100006b70 <__ZN5alloc7raw_vec19RawVec$LT$T$C$A$GT$16reserve_for_push17h60dbc62b632f6f52E+0xb4>
100006ad4: f3 03 00 aa 	mov	x19, x0
100006ad8: 08 04 40 f9 	ldr	x8, [x0, #8]
100006adc: 0a f9 7f d3 	lsl	x10, x8, #1
100006ae0: 5f 01 09 eb 	cmp	x10, x9
100006ae4: 49 81 89 9a 	csel	x9, x10, x9, hi
100006ae8: 8a 00 80 52 	mov	w10, #4
100006aec: 3f 11 00 f1 	cmp	x9, #4
100006af0: 34 81 8a 9a 	csel	x20, x9, x10, hi
100006af4: 89 f2 7d d3 	lsl	x9, x20, #3
100006af8: ff f7 54 eb 	cmp	xzr, x20, lsr #61
100006afc: 0a 01 80 52 	mov	w10, #8
100006b00: e2 13 8a 9a 	csel	x2, xzr, x10, ne
100006b04: e1 13 89 9a 	csel	x1, xzr, x9, ne
100006b08: 28 02 00 b4 	cbz	x8, 0x100006b4c <__ZN5alloc7raw_vec19RawVec$LT$T$C$A$GT$16reserve_for_push17h60dbc62b632f6f52E+0x90>
100006b0c: 69 02 40 f9 	ldr	x9, [x19]
100006b10: 08 f1 7d d3 	lsl	x8, x8, #3
100006b14: e9 a3 01 a9 	stp	x9, x8, [sp, #24]
100006b18: 08 01 80 52 	mov	w8, #8
100006b1c: e8 17 00 f9 	str	x8, [sp, #40]
100006b20: e0 03 00 91 	mov	x0, sp
100006b24: e3 63 00 91 	add	x3, sp, #24
100006b28: 87 fe ff 97 	bl	0x100006544 <__ZN5alloc7raw_vec11finish_grow17ha1a1a75e007cb083E>
100006b2c: e8 03 40 f9 	ldr	x8, [sp]
100006b30: c8 01 00 b5 	cbnz	x8, 0x100006b68 <__ZN5alloc7raw_vec19RawVec$LT$T$C$A$GT$16reserve_for_push17h60dbc62b632f6f52E+0xac>
100006b34: e8 07 40 f9 	ldr	x8, [sp, #8]
100006b38: 68 52 00 a9 	stp	x8, x20, [x19]
100006b3c: fd 7b 44 a9 	ldp	x29, x30, [sp, #64]
100006b40: f4 4f 43 a9 	ldp	x20, x19, [sp, #48]
100006b44: ff 43 01 91 	add	sp, sp, #80
100006b48: c0 03 5f d6 	ret
100006b4c: ff ff 01 a9 	stp	xzr, xzr, [sp, #24]
100006b50: e8 17 00 f9 	str	x8, [sp, #40]
100006b54: e0 03 00 91 	mov	x0, sp
100006b58: e3 63 00 91 	add	x3, sp, #24
100006b5c: 7a fe ff 97 	bl	0x100006544 <__ZN5alloc7raw_vec11finish_grow17ha1a1a75e007cb083E>
100006b60: e8 03 40 f9 	ldr	x8, [sp]
100006b64: 88 fe ff b4 	cbz	x8, 0x100006b34 <__ZN5alloc7raw_vec19RawVec$LT$T$C$A$GT$16reserve_for_push17h60dbc62b632f6f52E+0x78>
100006b68: e1 0b 40 f9 	ldr	x1, [sp, #16]
100006b6c: 41 00 00 b5 	cbnz	x1, 0x100006b74 <__ZN5alloc7raw_vec19RawVec$LT$T$C$A$GT$16reserve_for_push17h60dbc62b632f6f52E+0xb8>
100006b70: c2 8b 00 94 	bl	0x100029a78 <__ZN5alloc7raw_vec17capacity_overflow17haa5d1dbd3cea17aaE>
100006b74: e0 07 40 f9 	ldr	x0, [sp, #8]
100006b78: 0e aa 00 94 	bl	0x1000313b0 <__ZN5alloc5alloc18handle_alloc_error17h63a008190bf6efc7E>

0000000100006b7c <__ZN5alloc7raw_vec19RawVec$LT$T$C$A$GT$16reserve_for_push17h8a7e83ef9144a8c5E>:
100006b7c: ff 43 01 d1 	sub	sp, sp, #80
100006b80: f4 4f 03 a9 	stp	x20, x19, [sp, #48]
100006b84: fd 7b 04 a9 	stp	x29, x30, [sp, #64]
100006b88: fd 03 01 91 	add	x29, sp, #64
100006b8c: 29 04 00 b1 	adds	x9, x1, #1
100006b90: e2 03 00 54 	b.hs	0x100006c0c <__ZN5alloc7raw_vec19RawVec$LT$T$C$A$GT$16reserve_for_push17h8a7e83ef9144a8c5E+0x90>
100006b94: f3 03 00 aa 	mov	x19, x0
100006b98: 08 04 40 f9 	ldr	x8, [x0, #8]
100006b9c: 0a f9 7f d3 	lsl	x10, x8, #1
100006ba0: 5f 01 09 eb 	cmp	x10, x9
100006ba4: 49 81 89 9a 	csel	x9, x10, x9, hi
100006ba8: 0a 01 80 52 	mov	w10, #8
100006bac: 3f 21 00 f1 	cmp	x9, #8
100006bb0: 34 81 8a 9a 	csel	x20, x9, x10, hi
100006bb4: a8 00 00 b4 	cbz	x8, 0x100006bc8 <__ZN5alloc7raw_vec19RawVec$LT$T$C$A$GT$16reserve_for_push17h8a7e83ef9144a8c5E+0x4c>
100006bb8: 69 02 40 f9 	ldr	x9, [x19]
100006bbc: e9 a3 01 a9 	stp	x9, x8, [sp, #24]
100006bc0: 28 00 80 52 	mov	w8, #1
100006bc4: 02 00 00 14 	b	0x100006bcc <__ZN5alloc7raw_vec19RawVec$LT$T$C$A$GT$16reserve_for_push17h8a7e83ef9144a8c5E+0x50>
100006bc8: ff ff 01 a9 	stp	xzr, xzr, [sp, #24]
100006bcc: e8 17 00 f9 	str	x8, [sp, #40]
100006bd0: e0 03 00 91 	mov	x0, sp
100006bd4: e3 63 00 91 	add	x3, sp, #24
100006bd8: e1 03 14 aa 	mov	x1, x20
100006bdc: 22 00 80 52 	mov	w2, #1
100006be0: 59 fe ff 97 	bl	0x100006544 <__ZN5alloc7raw_vec11finish_grow17ha1a1a75e007cb083E>
100006be4: e8 03 40 f9 	ldr	x8, [sp]
100006be8: e8 00 00 b5 	cbnz	x8, 0x100006c04 <__ZN5alloc7raw_vec19RawVec$LT$T$C$A$GT$16reserve_for_push17h8a7e83ef9144a8c5E+0x88>
100006bec: e8 07 40 f9 	ldr	x8, [sp, #8]
100006bf0: 68 52 00 a9 	stp	x8, x20, [x19]
100006bf4: fd 7b 44 a9 	ldp	x29, x30, [sp, #64]
100006bf8: f4 4f 43 a9 	ldp	x20, x19, [sp, #48]
100006bfc: ff 43 01 91 	add	sp, sp, #80
100006c00: c0 03 5f d6 	ret
100006c04: e1 0b 40 f9 	ldr	x1, [sp, #16]
100006c08: 41 00 00 b5 	cbnz	x1, 0x100006c10 <__ZN5alloc7raw_vec19RawVec$LT$T$C$A$GT$16reserve_for_push17h8a7e83ef9144a8c5E+0x94>
100006c0c: 9b 8b 00 94 	bl	0x100029a78 <__ZN5alloc7raw_vec17capacity_overflow17haa5d1dbd3cea17aaE>
100006c10: e0 07 40 f9 	ldr	x0, [sp, #8]
100006c14: e7 a9 00 94 	bl	0x1000313b0 <__ZN5alloc5alloc18handle_alloc_error17h63a008190bf6efc7E>

0000000100006c18 <__ZN5alloc7raw_vec19RawVec$LT$T$C$A$GT$16reserve_for_push17h8d7aca410c9096fbE>:
100006c18: ff 43 01 d1 	sub	sp, sp, #80
100006c1c: f4 4f 03 a9 	stp	x20, x19, [sp, #48]
100006c20: fd 7b 04 a9 	stp	x29, x30, [sp, #64]
100006c24: fd 03 01 91 	add	x29, sp, #64
100006c28: 29 04 00 b1 	adds	x9, x1, #1
100006c2c: 62 05 00 54 	b.hs	0x100006cd8 <__ZN5alloc7raw_vec19RawVec$LT$T$C$A$GT$16reserve_for_push17h8d7aca410c9096fbE+0xc0>
100006c30: f3 03 00 aa 	mov	x19, x0
100006c34: 08 04 40 f9 	ldr	x8, [x0, #8]
100006c38: 0a f9 7f d3 	lsl	x10, x8, #1
100006c3c: 5f 01 09 eb 	cmp	x10, x9
100006c40: 49 81 89 9a 	csel	x9, x10, x9, hi
100006c44: 8a 00 80 52 	mov	w10, #4
100006c48: 3f 11 00 f1 	cmp	x9, #4
100006c4c: 34 81 8a 9a 	csel	x20, x9, x10, hi
100006c50: 09 46 80 52 	mov	w9, #560
100006c54: 8a 7e 09 9b 	mul	x10, x20, x9
100006c58: 89 7e c9 9b 	umulh	x9, x20, x9
100006c5c: 0b 01 80 52 	mov	w11, #8
100006c60: ff 03 09 eb 	cmp	xzr, x9
100006c64: e2 13 8b 9a 	csel	x2, xzr, x11, ne
100006c68: e1 13 8a 9a 	csel	x1, xzr, x10, ne
100006c6c: 48 02 00 b4 	cbz	x8, 0x100006cb4 <__ZN5alloc7raw_vec19RawVec$LT$T$C$A$GT$16reserve_for_push17h8d7aca410c9096fbE+0x9c>
100006c70: 69 02 40 f9 	ldr	x9, [x19]
100006c74: 0a 46 80 52 	mov	w10, #560
100006c78: 08 7d 0a 9b 	mul	x8, x8, x10
100006c7c: e9 a3 01 a9 	stp	x9, x8, [sp, #24]
100006c80: 08 01 80 52 	mov	w8, #8
100006c84: e8 17 00 f9 	str	x8, [sp, #40]
100006c88: e0 03 00 91 	mov	x0, sp
100006c8c: e3 63 00 91 	add	x3, sp, #24
100006c90: 2d fe ff 97 	bl	0x100006544 <__ZN5alloc7raw_vec11finish_grow17ha1a1a75e007cb083E>
100006c94: e8 03 40 f9 	ldr	x8, [sp]
100006c98: c8 01 00 b5 	cbnz	x8, 0x100006cd0 <__ZN5alloc7raw_vec19RawVec$LT$T$C$A$GT$16reserve_for_push17h8d7aca410c9096fbE+0xb8>
100006c9c: e8 07 40 f9 	ldr	x8, [sp, #8]
100006ca0: 68 52 00 a9 	stp	x8, x20, [x19]
100006ca4: fd 7b 44 a9 	ldp	x29, x30, [sp, #64]
100006ca8: f4 4f 43 a9 	ldp	x20, x19, [sp, #48]
100006cac: ff 43 01 91 	add	sp, sp, #80
100006cb0: c0 03 5f d6 	ret
100006cb4: ff ff 01 a9 	stp	xzr, xzr, [sp, #24]
100006cb8: e8 17 00 f9 	str	x8, [sp, #40]
100006cbc: e0 03 00 91 	mov	x0, sp
100006cc0: e3 63 00 91 	add	x3, sp, #24
100006cc4: 20 fe ff 97 	bl	0x100006544 <__ZN5alloc7raw_vec11finish_grow17ha1a1a75e007cb083E>
100006cc8: e8 03 40 f9 	ldr	x8, [sp]
100006ccc: 88 fe ff b4 	cbz	x8, 0x100006c9c <__ZN5alloc7raw_vec19RawVec$LT$T$C$A$GT$16reserve_for_push17h8d7aca410c9096fbE+0x84>
100006cd0: e1 0b 40 f9 	ldr	x1, [sp, #16]
100006cd4: 41 00 00 b5 	cbnz	x1, 0x100006cdc <__ZN5alloc7raw_vec19RawVec$LT$T$C$A$GT$16reserve_for_push17h8d7aca410c9096fbE+0xc4>
100006cd8: 68 8b 00 94 	bl	0x100029a78 <__ZN5alloc7raw_vec17capacity_overflow17haa5d1dbd3cea17aaE>
100006cdc: e0 07 40 f9 	ldr	x0, [sp, #8]
100006ce0: b4 a9 00 94 	bl	0x1000313b0 <__ZN5alloc5alloc18handle_alloc_error17h63a008190bf6efc7E>

0000000100006ce4 <__ZN5alloc7raw_vec19RawVec$LT$T$C$A$GT$16reserve_for_push17h9d8b04cc52b321daE>:
100006ce4: ff 43 01 d1 	sub	sp, sp, #80
100006ce8: f4 4f 03 a9 	stp	x20, x19, [sp, #48]
100006cec: fd 7b 04 a9 	stp	x29, x30, [sp, #64]
100006cf0: fd 03 01 91 	add	x29, sp, #64
100006cf4: 29 04 00 b1 	adds	x9, x1, #1
100006cf8: 82 05 00 54 	b.hs	0x100006da8 <__ZN5alloc7raw_vec19RawVec$LT$T$C$A$GT$16reserve_for_push17h9d8b04cc52b321daE+0xc4>
100006cfc: f3 03 00 aa 	mov	x19, x0
100006d00: 08 04 40 f9 	ldr	x8, [x0, #8]
100006d04: 0a f9 7f d3 	lsl	x10, x8, #1
100006d08: 5f 01 09 eb 	cmp	x10, x9
100006d0c: 49 81 89 9a 	csel	x9, x10, x9, hi
100006d10: 8a 00 80 52 	mov	w10, #4
100006d14: 3f 11 00 f1 	cmp	x9, #4
100006d18: 34 81 8a 9a 	csel	x20, x9, x10, hi
100006d1c: 89 0a 14 8b 	add	x9, x20, x20, lsl #2
100006d20: 29 f1 7d d3 	lsl	x9, x9, #3
100006d24: 0a 05 80 52 	mov	w10, #40
100006d28: 8a 7e ca 9b 	umulh	x10, x20, x10
100006d2c: 0b 01 80 52 	mov	w11, #8
100006d30: ff 03 0a eb 	cmp	xzr, x10
100006d34: e2 13 8b 9a 	csel	x2, xzr, x11, ne
100006d38: e1 13 89 9a 	csel	x1, xzr, x9, ne
100006d3c: 48 02 00 b4 	cbz	x8, 0x100006d84 <__ZN5alloc7raw_vec19RawVec$LT$T$C$A$GT$16reserve_for_push17h9d8b04cc52b321daE+0xa0>
100006d40: 69 02 40 f9 	ldr	x9, [x19]
100006d44: 08 09 08 8b 	add	x8, x8, x8, lsl #2
100006d48: 08 f1 7d d3 	lsl	x8, x8, #3
100006d4c: e9 a3 01 a9 	stp	x9, x8, [sp, #24]
100006d50: 08 01 80 52 	mov	w8, #8
100006d54: e8 17 00 f9 	str	x8, [sp, #40]
100006d58: e0 03 00 91 	mov	x0, sp
100006d5c: e3 63 00 91 	add	x3, sp, #24
100006d60: f9 fd ff 97 	bl	0x100006544 <__ZN5alloc7raw_vec11finish_grow17ha1a1a75e007cb083E>
100006d64: e8 03 40 f9 	ldr	x8, [sp]
100006d68: c8 01 00 b5 	cbnz	x8, 0x100006da0 <__ZN5alloc7raw_vec19RawVec$LT$T$C$A$GT$16reserve_for_push17h9d8b04cc52b321daE+0xbc>
100006d6c: e8 07 40 f9 	ldr	x8, [sp, #8]
100006d70: 68 52 00 a9 	stp	x8, x20, [x19]
100006d74: fd 7b 44 a9 	ldp	x29, x30, [sp, #64]
100006d78: f4 4f 43 a9 	ldp	x20, x19, [sp, #48]
100006d7c: ff 43 01 91 	add	sp, sp, #80
100006d80: c0 03 5f d6 	ret
100006d84: ff ff 01 a9 	stp	xzr, xzr, [sp, #24]
100006d88: e8 17 00 f9 	str	x8, [sp, #40]
100006d8c: e0 03 00 91 	mov	x0, sp
100006d90: e3 63 00 91 	add	x3, sp, #24
100006d94: ec fd ff 97 	bl	0x100006544 <__ZN5alloc7raw_vec11finish_grow17ha1a1a75e007cb083E>
100006d98: e8 03 40 f9 	ldr	x8, [sp]
100006d9c: 88 fe ff b4 	cbz	x8, 0x100006d6c <__ZN5alloc7raw_vec19RawVec$LT$T$C$A$GT$16reserve_for_push17h9d8b04cc52b321daE+0x88>
100006da0: e1 0b 40 f9 	ldr	x1, [sp, #16]
100006da4: 41 00 00 b5 	cbnz	x1, 0x100006dac <__ZN5alloc7raw_vec19RawVec$LT$T$C$A$GT$16reserve_for_push17h9d8b04cc52b321daE+0xc8>
100006da8: 34 8b 00 94 	bl	0x100029a78 <__ZN5alloc7raw_vec17capacity_overflow17haa5d1dbd3cea17aaE>
100006dac: e0 07 40 f9 	ldr	x0, [sp, #8]
100006db0: 80 a9 00 94 	bl	0x1000313b0 <__ZN5alloc5alloc18handle_alloc_error17h63a008190bf6efc7E>

0000000100006db4 <__ZN5gimli4read4line15FileEntryFormat5parse17hc4f14d3969615f7eE>:
100006db4: ff 03 02 d1 	sub	sp, sp, #128
100006db8: fc 6f 02 a9 	stp	x28, x27, [sp, #32]
100006dbc: fa 67 03 a9 	stp	x26, x25, [sp, #48]
100006dc0: f8 5f 04 a9 	stp	x24, x23, [sp, #64]
100006dc4: f6 57 05 a9 	stp	x22, x21, [sp, #80]
100006dc8: f4 4f 06 a9 	stp	x20, x19, [sp, #96]
100006dcc: fd 7b 07 a9 	stp	x29, x30, [sp, #112]
100006dd0: fd c3 01 91 	add	x29, sp, #112
100006dd4: f3 03 00 aa 	mov	x19, x0
100006dd8: 36 20 40 a9 	ldp	x22, x8, [x1]
100006ddc: e8 0f 00 b4 	cbz	x8, 0x100006fd8 <__ZN5gimli4read4line15FileEntryFormat5parse17hc4f14d3969615f7eE+0x224>
100006de0: f4 03 01 aa 	mov	x20, x1
100006de4: d7 16 40 38 	ldrb	w23, [x22], #1
100006de8: 18 05 00 d1 	sub	x24, x8, #1
100006dec: 36 60 00 a9 	stp	x22, x24, [x1]
100006df0: 77 10 00 b4 	cbz	x23, 0x100006ffc <__ZN5gimli4read4line15FileEntryFormat5parse17hc4f14d3969615f7eE+0x248>
100006df4: f5 f6 7e d3 	lsl	x21, x23, #2
100006df8: e0 03 15 aa 	mov	x0, x21
100006dfc: 41 00 80 52 	mov	w1, #2
100006e00: ae e9 ff 97 	bl	0x1000014b8 <___rust_alloc>
100006e04: 60 15 00 b4 	cbz	x0, 0x1000070b0 <__ZN5gimli4read4line15FileEntryFormat5parse17hc4f14d3969615f7eE+0x2fc>
100006e08: 08 00 80 d2 	mov	x8, #0
100006e0c: 15 00 80 52 	mov	w21, #0
100006e10: 0a 00 80 d2 	mov	x10, #0
100006e14: 19 00 80 d2 	mov	x25, #0
100006e18: e0 df 00 a9 	stp	x0, x23, [sp, #8]
100006e1c: f0 ff 9f 52 	mov	w16, #65535
100006e20: ff 0f 00 f9 	str	xzr, [sp, #24]
100006e24: 09 00 80 d2 	mov	x9, #0
100006e28: 0c 00 80 52 	mov	w12, #0
100006e2c: 1b 00 80 d2 	mov	x27, #0
100006e30: 39 07 00 91 	add	x25, x25, #1
100006e34: 0b 00 80 92 	mov	x11, #-1
100006e38: 08 00 00 14 	b	0x100006e58 <__ZN5gimli4read4line15FileEntryFormat5parse17hc4f14d3969615f7eE+0xa4>
100006e3c: ae 19 00 12 	and	w14, w13, #0x7f
100006e40: ce 21 cc 9a 	lsl	x14, x14, x12
100006e44: db 01 1b aa 	orr	x27, x14, x27
100006e48: 8c 1d 00 11 	add	w12, w12, #7
100006e4c: 29 05 00 91 	add	x9, x9, #1
100006e50: 6b 05 00 d1 	sub	x11, x11, #1
100006e54: 8d 01 38 36 	tbz	w13, #7, 0x100006e84 <__ZN5gimli4read4line15FileEntryFormat5parse17hc4f14d3969615f7eE+0xd0>
100006e58: 1f 03 09 eb 	cmp	x24, x9
100006e5c: c0 0d 00 54 	b.eq	0x100007014 <__ZN5gimli4read4line15FileEntryFormat5parse17hc4f14d3969615f7eE+0x260>
100006e60: ce 02 09 8b 	add	x14, x22, x9
100006e64: cd 15 40 38 	ldrb	w13, [x14], #1
100006e68: 0f 03 0b 8b 	add	x15, x24, x11
100006e6c: 8e 3e 00 a9 	stp	x14, x15, [x20]
100006e70: 9f fd 00 71 	cmp	w12, #63
100006e74: 41 fe ff 54 	b.ne	0x100006e3c <__ZN5gimli4read4line15FileEntryFormat5parse17hc4f14d3969615f7eE+0x88>
100006e78: bf 09 00 71 	cmp	w13, #2
100006e7c: 03 fe ff 54 	b.lo	0x100006e3c <__ZN5gimli4read4line15FileEntryFormat5parse17hc4f14d3969615f7eE+0x88>
100006e80: 68 00 00 14 	b	0x100007020 <__ZN5gimli4read4line15FileEntryFormat5parse17hc4f14d3969615f7eE+0x26c>
100006e84: 7f 43 40 f1 	cmp	x27, #16, lsl #12       ; =65536
100006e88: ea 27 9f 1a 	cset	w10, lo
100006e8c: ea 03 00 b9 	str	w10, [sp]
100006e90: 6a 3f 00 12 	and	w10, w27, #0xffff
100006e94: 5f 05 00 71 	cmp	w10, #1
100006e98: fc 17 9f 1a 	cset	w28, eq
100006e9c: 7f 03 10 eb 	cmp	x27, x16
100006ea0: ea ff 9f 52 	mov	w10, #65535
100006ea4: 7a 33 8a 1a 	csel	w26, w27, w10, lo
100006ea8: 0a 03 09 eb 	subs	x10, x24, x9
100006eac: 40 0e 00 54 	b.eq	0x100007074 <__ZN5gimli4read4line15FileEntryFormat5parse17hc4f14d3969615f7eE+0x2c0>
100006eb0: cc 02 09 8b 	add	x12, x22, x9
100006eb4: ed 03 0c aa 	mov	x13, x12
100006eb8: ae 15 40 38 	ldrb	w14, [x13], #1
100006ebc: 0b 03 0b 8b 	add	x11, x24, x11
100006ec0: 8d 2e 00 a9 	stp	x13, x11, [x20]
100006ec4: cf 19 00 12 	and	w15, w14, #0x7f
100006ec8: ef 07 00 b9 	str	w15, [sp, #4]
100006ecc: ee 00 38 37 	tbnz	w14, #7, 0x100006ee8 <__ZN5gimli4read4line15FileEntryFormat5parse17hc4f14d3969615f7eE+0x134>
100006ed0: f6 03 0d aa 	mov	x22, x13
100006ed4: f8 03 0b aa 	mov	x24, x11
100006ed8: e9 0b 40 f9 	ldr	x9, [sp, #16]
100006edc: 1f 01 09 eb 	cmp	x8, x9
100006ee0: a0 04 00 54 	b.eq	0x100006f74 <__ZN5gimli4read4line15FileEntryFormat5parse17hc4f14d3969615f7eE+0x1c0>
100006ee4: 29 00 00 14 	b	0x100006f88 <__ZN5gimli4read4line15FileEntryFormat5parse17hc4f14d3969615f7eE+0x1d4>
100006ee8: 0b 07 00 d1 	sub	x11, x24, #1
100006eec: 7f 01 09 eb 	cmp	x11, x9
100006ef0: 60 0c 00 54 	b.eq	0x10000707c <__ZN5gimli4read4line15FileEntryFormat5parse17hc4f14d3969615f7eE+0x2c8>
100006ef4: cb 02 09 8b 	add	x11, x22, x9
100006ef8: 6d 09 00 91 	add	x13, x11, #2
100006efc: 4e 09 00 d1 	sub	x14, x10, #2
100006f00: 8d 3a 00 a9 	stp	x13, x14, [x20]
100006f04: 8c 05 40 39 	ldrb	w12, [x12, #1]
100006f08: 8f 19 00 12 	and	w15, w12, #0x7f
100006f0c: f0 07 40 b9 	ldr	w16, [sp, #4]
100006f10: f0 19 19 33 	bfi	w16, w15, #7, #7
100006f14: f0 07 00 b9 	str	w16, [sp, #4]
100006f18: ec 00 38 37 	tbnz	w12, #7, 0x100006f34 <__ZN5gimli4read4line15FileEntryFormat5parse17hc4f14d3969615f7eE+0x180>
100006f1c: f6 03 0d aa 	mov	x22, x13
100006f20: f8 03 0e aa 	mov	x24, x14
100006f24: e9 0b 40 f9 	ldr	x9, [sp, #16]
100006f28: 1f 01 09 eb 	cmp	x8, x9
100006f2c: 40 02 00 54 	b.eq	0x100006f74 <__ZN5gimli4read4line15FileEntryFormat5parse17hc4f14d3969615f7eE+0x1c0>
100006f30: 16 00 00 14 	b	0x100006f88 <__ZN5gimli4read4line15FileEntryFormat5parse17hc4f14d3969615f7eE+0x1d4>
100006f34: 0c 0b 00 d1 	sub	x12, x24, #2
100006f38: 9f 01 09 eb 	cmp	x12, x9
100006f3c: 60 0a 00 54 	b.eq	0x100007088 <__ZN5gimli4read4line15FileEntryFormat5parse17hc4f14d3969615f7eE+0x2d4>
100006f40: c9 02 09 8b 	add	x9, x22, x9
100006f44: 36 0d 00 91 	add	x22, x9, #3
100006f48: 58 0d 00 d1 	sub	x24, x10, #3
100006f4c: 96 62 00 a9 	stp	x22, x24, [x20]
100006f50: 69 09 40 39 	ldrb	w9, [x11, #2]
100006f54: 3f 0d 00 71 	cmp	w9, #3
100006f58: 88 0a 00 54 	b.hi	0x1000070a8 <__ZN5gimli4read4line15FileEntryFormat5parse17hc4f14d3969615f7eE+0x2f4>
100006f5c: ea 07 40 b9 	ldr	w10, [sp, #4]
100006f60: 2a 1d 12 33 	bfi	w10, w9, #14, #8
100006f64: ea 07 00 b9 	str	w10, [sp, #4]
100006f68: e9 0b 40 f9 	ldr	x9, [sp, #16]
100006f6c: 1f 01 09 eb 	cmp	x8, x9
100006f70: c1 00 00 54 	b.ne	0x100006f88 <__ZN5gimli4read4line15FileEntryFormat5parse17hc4f14d3969615f7eE+0x1d4>
100006f74: e0 23 00 91 	add	x0, sp, #8
100006f78: e1 03 08 aa 	mov	x1, x8
100006f7c: a8 fd ff 97 	bl	0x10000661c <__ZN5alloc7raw_vec19RawVec$LT$T$C$A$GT$16reserve_for_push17h17dbcbc2a56af33eE>
100006f80: e8 0f 40 f9 	ldr	x8, [sp, #24]
100006f84: e0 07 40 f9 	ldr	x0, [sp, #8]
100006f88: 6a df 78 92 	and	x10, x27, #0xffffffffffffff00
100006f8c: e9 2f 40 29 	ldp	w9, w11, [sp]
100006f90: 29 01 1c 0a 	and	w9, w9, w28
100006f94: b5 02 09 0b 	add	w21, w21, w9
100006f98: 09 08 08 8b 	add	x9, x0, x8, lsl #2
100006f9c: 3a 01 00 79 	strh	w26, [x9]
100006fa0: 2b 05 00 79 	strh	w11, [x9, #2]
100006fa4: 08 05 00 91 	add	x8, x8, #1
100006fa8: e8 0f 00 f9 	str	x8, [sp, #24]
100006fac: 3f 03 17 eb 	cmp	x25, x23
100006fb0: f0 ff 9f 52 	mov	w16, #65535
100006fb4: 81 f3 ff 54 	b.ne	0x100006e24 <__ZN5gimli4read4line15FileEntryFormat5parse17hc4f14d3969615f7eE+0x70>
100006fb8: bf 06 00 71 	cmp	w21, #1
100006fbc: 61 02 00 54 	b.ne	0x100007008 <__ZN5gimli4read4line15FileEntryFormat5parse17hc4f14d3969615f7eE+0x254>
100006fc0: e0 83 c0 3c 	ldur	q0, [sp, #8]
100006fc4: 60 82 80 3c 	stur	q0, [x19, #8]
100006fc8: e8 0f 40 f9 	ldr	x8, [sp, #24]
100006fcc: 68 0e 00 f9 	str	x8, [x19, #24]
100006fd0: 7f 02 00 f9 	str	xzr, [x19]
100006fd4: 20 00 00 14 	b	0x100007054 <__ZN5gimli4read4line15FileEntryFormat5parse17hc4f14d3969615f7eE+0x2a0>
100006fd8: 68 02 80 52 	mov	w8, #19
100006fdc: 68 22 00 39 	strb	w8, [x19, #8]
100006fe0: 7f 3e 00 39 	strb	wzr, [x19, #15]
100006fe4: 7f d2 00 78 	sturh	wzr, [x19, #13]
100006fe8: 7f 92 00 b8 	stur	wzr, [x19, #9]
100006fec: 76 0a 00 f9 	str	x22, [x19, #16]
100006ff0: 28 00 80 52 	mov	w8, #1
100006ff4: 68 02 00 f9 	str	x8, [x19]
100006ff8: 17 00 00 14 	b	0x100007054 <__ZN5gimli4read4line15FileEntryFormat5parse17hc4f14d3969615f7eE+0x2a0>
100006ffc: 48 00 80 52 	mov	w8, #2
100007000: e8 df 00 a9 	stp	x8, x23, [sp, #8]
100007004: ff 0f 00 f9 	str	xzr, [sp, #24]
100007008: 88 08 80 52 	mov	w8, #68
10000700c: 68 22 00 39 	strb	w8, [x19, #8]
100007010: 07 00 00 14 	b	0x10000702c <__ZN5gimli4read4line15FileEntryFormat5parse17hc4f14d3969615f7eE+0x278>
100007014: c8 02 09 8b 	add	x8, x22, x9
100007018: 69 02 80 52 	mov	w9, #19
10000701c: 02 00 00 14 	b	0x100007024 <__ZN5gimli4read4line15FileEntryFormat5parse17hc4f14d3969615f7eE+0x270>
100007020: 49 05 7f b2 	orr	x9, x10, #0x6
100007024: 69 06 00 f9 	str	x9, [x19, #8]
100007028: 68 0a 00 f9 	str	x8, [x19, #16]
10000702c: 28 00 80 52 	mov	w8, #1
100007030: 68 02 00 f9 	str	x8, [x19]
100007034: e8 0b 40 f9 	ldr	x8, [sp, #16]
100007038: 1f 01 00 f1 	cmp	x8, #0
10000703c: 01 f5 7e d3 	lsl	x1, x8, #2
100007040: 24 18 40 fa 	ccmp	x1, #0, #4, ne
100007044: 80 00 00 54 	b.eq	0x100007054 <__ZN5gimli4read4line15FileEntryFormat5parse17hc4f14d3969615f7eE+0x2a0>
100007048: e0 07 40 f9 	ldr	x0, [sp, #8]
10000704c: 42 00 80 52 	mov	w2, #2
100007050: 1b e9 ff 97 	bl	0x1000014bc <___rust_dealloc>
100007054: fd 7b 47 a9 	ldp	x29, x30, [sp, #112]
100007058: f4 4f 46 a9 	ldp	x20, x19, [sp, #96]
10000705c: f6 57 45 a9 	ldp	x22, x21, [sp, #80]
100007060: f8 5f 44 a9 	ldp	x24, x23, [sp, #64]
100007064: fa 67 43 a9 	ldp	x26, x25, [sp, #48]
100007068: fc 6f 42 a9 	ldp	x28, x27, [sp, #32]
10000706c: ff 03 02 91 	add	sp, sp, #128
100007070: c0 03 5f d6 	ret
100007074: c8 02 09 8b 	add	x8, x22, x9
100007078: 06 00 00 14 	b	0x100007090 <__ZN5gimli4read4line15FileEntryFormat5parse17hc4f14d3969615f7eE+0x2dc>
10000707c: c8 02 09 8b 	add	x8, x22, x9
100007080: 08 05 00 91 	add	x8, x8, #1
100007084: 03 00 00 14 	b	0x100007090 <__ZN5gimli4read4line15FileEntryFormat5parse17hc4f14d3969615f7eE+0x2dc>
100007088: c8 02 09 8b 	add	x8, x22, x9
10000708c: 08 09 00 91 	add	x8, x8, #2
100007090: 69 02 80 52 	mov	w9, #19
100007094: 69 22 00 39 	strb	w9, [x19, #8]
100007098: 7f 3e 00 39 	strb	wzr, [x19, #15]
10000709c: 7f d2 00 78 	sturh	wzr, [x19, #13]
1000070a0: 7f 92 00 b8 	stur	wzr, [x19, #9]
1000070a4: e1 ff ff 17 	b	0x100007028 <__ZN5gimli4read4line15FileEntryFormat5parse17hc4f14d3969615f7eE+0x274>
1000070a8: c9 00 80 52 	mov	w9, #6
1000070ac: fa ff ff 17 	b	0x100007094 <__ZN5gimli4read4line15FileEntryFormat5parse17hc4f14d3969615f7eE+0x2e0>
1000070b0: e0 03 15 aa 	mov	x0, x21
1000070b4: 41 00 80 52 	mov	w1, #2
1000070b8: be a8 00 94 	bl	0x1000313b0 <__ZN5alloc5alloc18handle_alloc_error17h63a008190bf6efc7E>
1000070bc: f3 03 00 aa 	mov	x19, x0
1000070c0: e0 23 00 91 	add	x0, sp, #8
1000070c4: 47 f0 ff 97 	bl	0x1000031e0 <__ZN4core3ptr78drop_in_place$LT$alloc..vec..Vec$LT$gimli..read..line..FileEntryFormat$GT$$GT$17h5ab7aa810e6055aaE>
1000070c8: e0 03 13 aa 	mov	x0, x19
1000070cc: 55 a9 00 94 	bl	0x100031620 <_writev+0x100031620>
1000070d0: e0 a8 00 94 	bl	0x100031450 <__ZN4core9panicking15panic_no_unwind17ha22e330d9595cb93E>

00000001000070d4 <__ZN5gimli4read4line15parse_attribute17h46ffe14a43271373E>:
1000070d4: ff 03 01 d1 	sub	sp, sp, #64
1000070d8: f4 4f 02 a9 	stp	x20, x19, [sp, #32]
1000070dc: fd 7b 03 a9 	stp	x29, x30, [sp, #48]
1000070e0: fd c3 00 91 	add	x29, sp, #48
1000070e4: f3 03 00 aa 	mov	x19, x0
1000070e8: 48 3c 08 53 	ubfx	w8, w2, #8, #8
1000070ec: 69 3c 00 12 	and	w9, w3, #0xffff
1000070f0: 2a 0d 00 51 	sub	w10, w9, #3
1000070f4: 5f 95 00 71 	cmp	w10, #37
1000070f8: 88 01 00 54 	b.hi	0x100007128 <__ZN5gimli4read4line15parse_attribute17h46ffe14a43271373E+0x54>
1000070fc: a9 c1 15 10 	adr	x9, #178228
100007100: 1f 20 03 d5 	nop
100007104: 8b 00 00 10 	adr	x11, #16
100007108: 2c 79 6a 78 	ldrh	w12, [x9, x10, lsl #1]
10000710c: 6b 09 0c 8b 	add	x11, x11, x12, lsl #2
100007110: 60 01 1f d6 	br	x11
100007114: 2c 20 40 a9 	ldp	x12, x8, [x1]
100007118: 08 09 00 f1 	subs	x8, x8, #2
10000711c: 23 32 00 54 	b.lo	0x100007760 <__ZN5gimli4read4line15parse_attribute17h46ffe14a43271373E+0x68c>
100007120: 89 25 40 78 	ldrh	w9, [x12], #2
100007124: 75 00 00 14 	b	0x1000072f8 <__ZN5gimli4read4line15parse_attribute17h46ffe14a43271373E+0x224>
100007128: 4a e0 83 52 	mov	w10, #7938
10000712c: 3f 01 0a 6b 	cmp	w9, w10
100007130: 60 01 00 54 	b.eq	0x10000715c <__ZN5gimli4read4line15parse_attribute17h46ffe14a43271373E+0x88>
100007134: 2a e4 83 52 	mov	w10, #7969
100007138: 3f 01 0a 6b 	cmp	w9, w10
10000713c: 01 04 00 54 	b.ne	0x1000071bc <__ZN5gimli4read4line15parse_attribute17h46ffe14a43271373E+0xe8>
100007140: 1f 21 00 71 	cmp	w8, #8
100007144: 61 21 00 54 	b.ne	0x100007570 <__ZN5gimli4read4line15parse_attribute17h46ffe14a43271373E+0x49c>
100007148: 28 24 40 a9 	ldp	x8, x9, [x1]
10000714c: 29 21 00 f1 	subs	x9, x9, #8
100007150: 03 32 00 54 	b.lo	0x100007790 <__ZN5gimli4read4line15parse_attribute17h46ffe14a43271373E+0x6bc>
100007154: 0c 85 40 f8 	ldr	x12, [x8], #8
100007158: 0a 01 00 14 	b	0x100007580 <__ZN5gimli4read4line15parse_attribute17h46ffe14a43271373E+0x4ac>
10000715c: 09 00 80 52 	mov	w9, #0
100007160: 0c 00 80 d2 	mov	x12, #0
100007164: 28 28 40 a9 	ldp	x8, x10, [x1]
100007168: 0b 05 00 91 	add	x11, x8, #1
10000716c: 4d 05 00 d1 	sub	x13, x10, #1
100007170: 6a 02 80 52 	mov	w10, #19
100007174: 09 00 00 14 	b	0x100007198 <__ZN5gimli4read4line15parse_attribute17h46ffe14a43271373E+0xc4>
100007178: cf 19 00 12 	and	w15, w14, #0x7f
10000717c: ef 21 c9 9a 	lsl	x15, x15, x9
100007180: ec 01 0c aa 	orr	x12, x15, x12
100007184: 29 1d 00 11 	add	w9, w9, #7
100007188: 08 05 00 91 	add	x8, x8, #1
10000718c: 6b 05 00 91 	add	x11, x11, #1
100007190: ad 05 00 d1 	sub	x13, x13, #1
100007194: 2e 21 38 36 	tbz	w14, #7, 0x1000075b8 <__ZN5gimli4read4line15parse_attribute17h46ffe14a43271373E+0x4e4>
100007198: bf 05 00 b1 	cmn	x13, #1
10000719c: 40 14 00 54 	b.eq	0x100007424 <__ZN5gimli4read4line15parse_attribute17h46ffe14a43271373E+0x350>
1000071a0: 2b 34 00 a9 	stp	x11, x13, [x1]
1000071a4: 6e f1 5f 38 	ldurb	w14, [x11, #-1]
1000071a8: 3f fd 00 71 	cmp	w9, #63
1000071ac: 61 fe ff 54 	b.ne	0x100007178 <__ZN5gimli4read4line15parse_attribute17h46ffe14a43271373E+0xa4>
1000071b0: df 05 00 71 	cmp	w14, #1
1000071b4: 29 fe ff 54 	b.ls	0x100007178 <__ZN5gimli4read4line15parse_attribute17h46ffe14a43271373E+0xa4>
1000071b8: 9a 00 00 14 	b	0x100007420 <__ZN5gimli4read4line15parse_attribute17h46ffe14a43271373E+0x34c>
1000071bc: 88 01 80 52 	mov	w8, #12
1000071c0: 68 22 00 39 	strb	w8, [x19, #8]
1000071c4: 2e 00 80 52 	mov	w14, #1
1000071c8: 6e 02 00 f9 	str	x14, [x19]
1000071cc: fd 7b 43 a9 	ldp	x29, x30, [sp, #48]
1000071d0: f4 4f 42 a9 	ldp	x20, x19, [sp, #32]
1000071d4: ff 03 01 91 	add	sp, sp, #64
1000071d8: c0 03 5f d6 	ret
1000071dc: 2c 20 40 a9 	ldp	x12, x8, [x1]
1000071e0: 08 11 00 f1 	subs	x8, x8, #4
1000071e4: e3 2b 00 54 	b.lo	0x100007760 <__ZN5gimli4read4line15parse_attribute17h46ffe14a43271373E+0x68c>
1000071e8: 89 45 40 b8 	ldr	w9, [x12], #4
1000071ec: 43 00 00 14 	b	0x1000072f8 <__ZN5gimli4read4line15parse_attribute17h46ffe14a43271373E+0x224>
1000071f0: 28 24 40 a9 	ldp	x8, x9, [x1]
1000071f4: 29 09 00 f1 	subs	x9, x9, #2
1000071f8: a2 1e 00 54 	b.hs	0x1000075cc <__ZN5gimli4read4line15parse_attribute17h46ffe14a43271373E+0x4f8>
1000071fc: 0c 00 80 52 	mov	w12, #0
100007200: 69 02 80 52 	mov	w9, #19
100007204: 2a 1d 00 12 	and	w10, w9, #0xff
100007208: 5f 1d 01 71 	cmp	w10, #71
10000720c: e0 1e 00 54 	b.eq	0x1000075e8 <__ZN5gimli4read4line15parse_attribute17h46ffe14a43271373E+0x514>
100007210: 2f 01 00 14 	b	0x1000076cc <__ZN5gimli4read4line15parse_attribute17h46ffe14a43271373E+0x5f8>
100007214: 28 24 40 a9 	ldp	x8, x9, [x1]
100007218: 29 11 00 f1 	subs	x9, x9, #4
10000721c: 02 1f 00 54 	b.hs	0x1000075fc <__ZN5gimli4read4line15parse_attribute17h46ffe14a43271373E+0x528>
100007220: 0c 00 80 52 	mov	w12, #0
100007224: 69 02 80 52 	mov	w9, #19
100007228: 2a 1d 00 12 	and	w10, w9, #0xff
10000722c: 5f 1d 01 71 	cmp	w10, #71
100007230: 40 1f 00 54 	b.eq	0x100007618 <__ZN5gimli4read4line15parse_attribute17h46ffe14a43271373E+0x544>
100007234: 26 01 00 14 	b	0x1000076cc <__ZN5gimli4read4line15parse_attribute17h46ffe14a43271373E+0x5f8>
100007238: 29 20 40 a9 	ldp	x9, x8, [x1]
10000723c: 0a 21 00 f1 	subs	x10, x8, #8
100007240: c3 1a 00 54 	b.lo	0x100007598 <__ZN5gimli4read4line15parse_attribute17h46ffe14a43271373E+0x4c4>
100007244: 2c 85 40 f8 	ldr	x12, [x9], #8
100007248: 88 3d 08 53 	ubfx	w8, w12, #8, #8
10000724c: 29 28 00 a9 	stp	x9, x10, [x1]
100007250: 8a 3d 10 12 	and	w10, w12, #0xffff0000
100007254: 8b 7d 60 92 	and	x11, x12, #0xffffffff00000000
100007258: ad 00 80 52 	mov	w13, #5
10000725c: b9 00 00 14 	b	0x100007540 <__ZN5gimli4read4line15parse_attribute17h46ffe14a43271373E+0x46c>
100007260: 2c 20 40 a9 	ldp	x12, x8, [x1]
100007264: e8 27 00 b4 	cbz	x8, 0x100007760 <__ZN5gimli4read4line15parse_attribute17h46ffe14a43271373E+0x68c>
100007268: 09 00 80 d2 	mov	x9, #0
10000726c: 8a 69 69 38 	ldrb	w10, [x12, x9]
100007270: ea 26 00 34 	cbz	w10, 0x10000774c <__ZN5gimli4read4line15parse_attribute17h46ffe14a43271373E+0x678>
100007274: 29 05 00 91 	add	x9, x9, #1
100007278: 1f 01 09 eb 	cmp	x8, x9
10000727c: 81 ff ff 54 	b.ne	0x10000726c <__ZN5gimli4read4line15parse_attribute17h46ffe14a43271373E+0x198>
100007280: 38 01 00 14 	b	0x100007760 <__ZN5gimli4read4line15parse_attribute17h46ffe14a43271373E+0x68c>
100007284: 08 00 80 d2 	mov	x8, #0
100007288: 0d 00 80 52 	mov	w13, #0
10000728c: 09 00 80 d2 	mov	x9, #0
100007290: 2a 2c 40 a9 	ldp	x10, x11, [x1]
100007294: 0e 00 80 92 	mov	x14, #-1
100007298: cc 00 80 52 	mov	w12, #6
10000729c: 08 00 00 14 	b	0x1000072bc <__ZN5gimli4read4line15parse_attribute17h46ffe14a43271373E+0x1e8>
1000072a0: f0 19 00 12 	and	w16, w15, #0x7f
1000072a4: 10 22 cd 9a 	lsl	x16, x16, x13
1000072a8: 09 02 09 aa 	orr	x9, x16, x9
1000072ac: ad 1d 00 11 	add	w13, w13, #7
1000072b0: 08 05 00 91 	add	x8, x8, #1
1000072b4: ce 05 00 d1 	sub	x14, x14, #1
1000072b8: 4f 26 38 36 	tbz	w15, #7, 0x100007780 <__ZN5gimli4read4line15parse_attribute17h46ffe14a43271373E+0x6ac>
1000072bc: 7f 01 08 eb 	cmp	x11, x8
1000072c0: 40 23 00 54 	b.eq	0x100007728 <__ZN5gimli4read4line15parse_attribute17h46ffe14a43271373E+0x654>
1000072c4: 50 01 08 8b 	add	x16, x10, x8
1000072c8: 0f 16 40 38 	ldrb	w15, [x16], #1
1000072cc: 71 01 0e 8b 	add	x17, x11, x14
1000072d0: 30 44 00 a9 	stp	x16, x17, [x1]
1000072d4: bf fd 00 71 	cmp	w13, #63
1000072d8: 41 fe ff 54 	b.ne	0x1000072a0 <__ZN5gimli4read4line15parse_attribute17h46ffe14a43271373E+0x1cc>
1000072dc: ff 09 00 71 	cmp	w15, #2
1000072e0: 03 fe ff 54 	b.lo	0x1000072a0 <__ZN5gimli4read4line15parse_attribute17h46ffe14a43271373E+0x1cc>
1000072e4: 13 01 00 14 	b	0x100007730 <__ZN5gimli4read4line15parse_attribute17h46ffe14a43271373E+0x65c>
1000072e8: 2c 20 40 a9 	ldp	x12, x8, [x1]
1000072ec: a8 23 00 b4 	cbz	x8, 0x100007760 <__ZN5gimli4read4line15parse_attribute17h46ffe14a43271373E+0x68c>
1000072f0: 89 15 40 38 	ldrb	w9, [x12], #1
1000072f4: 08 05 00 d1 	sub	x8, x8, #1
1000072f8: 2c 20 00 a9 	stp	x12, x8, [x1]
1000072fc: 0a 01 09 eb 	subs	x10, x8, x9
100007300: 03 23 00 54 	b.lo	0x100007760 <__ZN5gimli4read4line15parse_attribute17h46ffe14a43271373E+0x68c>
100007304: 8b 01 09 8b 	add	x11, x12, x9
100007308: 88 3d 08 53 	ubfx	w8, w12, #8, #8
10000730c: 2b 28 00 a9 	stp	x11, x10, [x1]
100007310: 8a 3d 10 12 	and	w10, w12, #0xffff0000
100007314: 8b 7d 60 92 	and	x11, x12, #0xffffffff00000000
100007318: 2d 00 80 52 	mov	w13, #1
10000731c: 89 00 00 14 	b	0x100007540 <__ZN5gimli4read4line15parse_attribute17h46ffe14a43271373E+0x46c>
100007320: 28 24 40 a9 	ldp	x8, x9, [x1]
100007324: 09 1c 00 b4 	cbz	x9, 0x1000076a4 <__ZN5gimli4read4line15parse_attribute17h46ffe14a43271373E+0x5d0>
100007328: 0c 15 40 38 	ldrb	w12, [x8], #1
10000732c: 29 05 00 d1 	sub	x9, x9, #1
100007330: 28 24 00 a9 	stp	x8, x9, [x1]
100007334: e9 08 80 52 	mov	w9, #71
100007338: 08 00 80 d2 	mov	x8, #0
10000733c: 2a 1d 00 12 	and	w10, w9, #0xff
100007340: 5f 1d 01 71 	cmp	w10, #71
100007344: a0 1b 00 54 	b.eq	0x1000076b8 <__ZN5gimli4read4line15parse_attribute17h46ffe14a43271373E+0x5e4>
100007348: e1 00 00 14 	b	0x1000076cc <__ZN5gimli4read4line15parse_attribute17h46ffe14a43271373E+0x5f8>
10000734c: 28 28 40 a9 	ldp	x8, x10, [x1]
100007350: 2a 1c 00 b4 	cbz	x10, 0x1000076d4 <__ZN5gimli4read4line15parse_attribute17h46ffe14a43271373E+0x600>
100007354: 09 15 40 38 	ldrb	w9, [x8], #1
100007358: 4a 05 00 d1 	sub	x10, x10, #1
10000735c: 28 28 00 a9 	stp	x8, x10, [x1]
100007360: ea 08 80 52 	mov	w10, #71
100007364: 08 00 80 d2 	mov	x8, #0
100007368: 4b 1d 00 12 	and	w11, w10, #0xff
10000736c: 7f 1d 01 71 	cmp	w11, #71
100007370: c1 1b 00 54 	b.ne	0x1000076e8 <__ZN5gimli4read4line15parse_attribute17h46ffe14a43271373E+0x614>
100007374: 0b 00 80 d2 	mov	x11, #0
100007378: 0a 00 80 52 	mov	w10, #0
10000737c: 08 00 80 52 	mov	w8, #0
100007380: 3f 01 00 71 	cmp	w9, #0
100007384: ec 07 9f 1a 	cset	w12, ne
100007388: 2d 01 80 52 	mov	w13, #9
10000738c: 6d 00 00 14 	b	0x100007540 <__ZN5gimli4read4line15parse_attribute17h46ffe14a43271373E+0x46c>
100007390: e0 23 00 91 	add	x0, sp, #8
100007394: b7 06 00 94 	bl	0x100008e70 <__ZN5gimli4read6reader6Reader12read_sleb12817h4d9df5ff586b404eE>
100007398: e8 b3 40 a9 	ldp	x8, x12, [sp, #8]
10000739c: c8 1b 00 b4 	cbz	x8, 0x100007714 <__ZN5gimli4read4line15parse_attribute17h46ffe14a43271373E+0x640>
1000073a0: e8 0f 40 f9 	ldr	x8, [sp, #24]
1000073a4: e3 00 00 14 	b	0x100007730 <__ZN5gimli4read4line15parse_attribute17h46ffe14a43271373E+0x65c>
1000073a8: 1f 21 00 71 	cmp	w8, #8
1000073ac: 01 14 00 54 	b.ne	0x10000762c <__ZN5gimli4read4line15parse_attribute17h46ffe14a43271373E+0x558>
1000073b0: 28 24 40 a9 	ldp	x8, x9, [x1]
1000073b4: 29 21 00 f1 	subs	x9, x9, #8
1000073b8: c3 1e 00 54 	b.lo	0x100007790 <__ZN5gimli4read4line15parse_attribute17h46ffe14a43271373E+0x6bc>
1000073bc: 0c 85 40 f8 	ldr	x12, [x8], #8
1000073c0: 9f 00 00 14 	b	0x10000763c <__ZN5gimli4read4line15parse_attribute17h46ffe14a43271373E+0x568>
1000073c4: 09 00 80 52 	mov	w9, #0
1000073c8: 0c 00 80 d2 	mov	x12, #0
1000073cc: 28 28 40 a9 	ldp	x8, x10, [x1]
1000073d0: 0b 05 00 91 	add	x11, x8, #1
1000073d4: 4d 05 00 d1 	sub	x13, x10, #1
1000073d8: 6a 02 80 52 	mov	w10, #19
1000073dc: 09 00 00 14 	b	0x100007400 <__ZN5gimli4read4line15parse_attribute17h46ffe14a43271373E+0x32c>
1000073e0: cf 19 00 12 	and	w15, w14, #0x7f
1000073e4: ef 21 c9 9a 	lsl	x15, x15, x9
1000073e8: ec 01 0c aa 	orr	x12, x15, x12
1000073ec: 29 1d 00 11 	add	w9, w9, #7
1000073f0: 08 05 00 91 	add	x8, x8, #1
1000073f4: 6b 05 00 91 	add	x11, x11, #1
1000073f8: ad 05 00 d1 	sub	x13, x13, #1
1000073fc: ae 1d 38 36 	tbz	w14, #7, 0x1000077b0 <__ZN5gimli4read4line15parse_attribute17h46ffe14a43271373E+0x6dc>
100007400: bf 05 00 b1 	cmn	x13, #1
100007404: 00 01 00 54 	b.eq	0x100007424 <__ZN5gimli4read4line15parse_attribute17h46ffe14a43271373E+0x350>
100007408: 2b 34 00 a9 	stp	x11, x13, [x1]
10000740c: 6e f1 5f 38 	ldurb	w14, [x11, #-1]
100007410: 3f fd 00 71 	cmp	w9, #63
100007414: 61 fe ff 54 	b.ne	0x1000073e0 <__ZN5gimli4read4line15parse_attribute17h46ffe14a43271373E+0x30c>
100007418: df 05 00 71 	cmp	w14, #1
10000741c: 29 fe ff 54 	b.ls	0x1000073e0 <__ZN5gimli4read4line15parse_attribute17h46ffe14a43271373E+0x30c>
100007420: ca 00 80 52 	mov	w10, #6
100007424: 6a a2 00 a9 	stp	x10, x8, [x19, #8]
100007428: 2e 00 80 52 	mov	w14, #1
10000742c: 6e 02 00 f9 	str	x14, [x19]
100007430: fd 7b 43 a9 	ldp	x29, x30, [sp, #48]
100007434: f4 4f 42 a9 	ldp	x20, x19, [sp, #32]
100007438: ff 03 01 91 	add	sp, sp, #64
10000743c: c0 03 5f d6 	ret
100007440: 1f 21 00 71 	cmp	w8, #8
100007444: 81 10 00 54 	b.ne	0x100007654 <__ZN5gimli4read4line15parse_attribute17h46ffe14a43271373E+0x580>
100007448: 28 24 40 a9 	ldp	x8, x9, [x1]
10000744c: 29 21 00 f1 	subs	x9, x9, #8
100007450: 03 1a 00 54 	b.lo	0x100007790 <__ZN5gimli4read4line15parse_attribute17h46ffe14a43271373E+0x6bc>
100007454: 0c 85 40 f8 	ldr	x12, [x8], #8
100007458: 83 00 00 14 	b	0x100007664 <__ZN5gimli4read4line15parse_attribute17h46ffe14a43271373E+0x590>
10000745c: 2c 20 40 a9 	ldp	x12, x8, [x1]
100007460: 09 41 00 f1 	subs	x9, x8, #16
100007464: e3 17 00 54 	b.lo	0x100007760 <__ZN5gimli4read4line15parse_attribute17h46ffe14a43271373E+0x68c>
100007468: 8b 41 00 91 	add	x11, x12, #16
10000746c: 88 3d 08 53 	ubfx	w8, w12, #8, #8
100007470: 8a 3d 10 12 	and	w10, w12, #0xffff0000
100007474: 2b 24 00 a9 	stp	x11, x9, [x1]
100007478: 8b 7d 60 92 	and	x11, x12, #0xffffffff00000000
10000747c: 09 02 80 52 	mov	w9, #16
100007480: 2d 00 80 52 	mov	w13, #1
100007484: 2f 00 00 14 	b	0x100007540 <__ZN5gimli4read4line15parse_attribute17h46ffe14a43271373E+0x46c>
100007488: 1f 21 00 71 	cmp	w8, #8
10000748c: 81 0f 00 54 	b.ne	0x10000767c <__ZN5gimli4read4line15parse_attribute17h46ffe14a43271373E+0x5a8>
100007490: 28 24 40 a9 	ldp	x8, x9, [x1]
100007494: 29 21 00 f1 	subs	x9, x9, #8
100007498: c3 17 00 54 	b.lo	0x100007790 <__ZN5gimli4read4line15parse_attribute17h46ffe14a43271373E+0x6bc>
10000749c: 0c 85 40 f8 	ldr	x12, [x8], #8
1000074a0: 7b 00 00 14 	b	0x10000768c <__ZN5gimli4read4line15parse_attribute17h46ffe14a43271373E+0x5b8>
1000074a4: 29 34 40 a9 	ldp	x9, x13, [x1]
1000074a8: 8d 07 00 b4 	cbz	x13, 0x100007598 <__ZN5gimli4read4line15parse_attribute17h46ffe14a43271373E+0x4c4>
1000074ac: 0b 00 80 d2 	mov	x11, #0
1000074b0: 0a 00 80 52 	mov	w10, #0
1000074b4: 08 00 80 52 	mov	w8, #0
1000074b8: 2c 15 40 38 	ldrb	w12, [x9], #1
1000074bc: ad 05 00 d1 	sub	x13, x13, #1
1000074c0: 29 34 00 a9 	stp	x9, x13, [x1]
1000074c4: 1e 00 00 14 	b	0x10000753c <__ZN5gimli4read4line15parse_attribute17h46ffe14a43271373E+0x468>
1000074c8: 28 24 40 a9 	ldp	x8, x9, [x1]
1000074cc: 29 09 00 f1 	subs	x9, x9, #2
1000074d0: 03 16 00 54 	b.lo	0x100007790 <__ZN5gimli4read4line15parse_attribute17h46ffe14a43271373E+0x6bc>
1000074d4: 0b 00 80 d2 	mov	x11, #0
1000074d8: 0a 00 80 52 	mov	w10, #0
1000074dc: 0c 25 40 78 	ldrh	w12, [x8], #2
1000074e0: 28 24 00 a9 	stp	x8, x9, [x1]
1000074e4: 88 7d 08 53 	lsr	w8, w12, #8
1000074e8: 15 00 00 14 	b	0x10000753c <__ZN5gimli4read4line15parse_attribute17h46ffe14a43271373E+0x468>
1000074ec: 28 24 40 a9 	ldp	x8, x9, [x1]
1000074f0: 29 0d 00 f1 	subs	x9, x9, #3
1000074f4: e3 14 00 54 	b.lo	0x100007790 <__ZN5gimli4read4line15parse_attribute17h46ffe14a43271373E+0x6bc>
1000074f8: 0b 00 80 d2 	mov	x11, #0
1000074fc: 0a 0d 00 91 	add	x10, x8, #3
100007500: 2a 24 00 a9 	stp	x10, x9, [x1]
100007504: 09 09 40 39 	ldrb	w9, [x8, #2]
100007508: 0c 01 40 79 	ldrh	w12, [x8]
10000750c: 2c 1d 10 33 	bfi	w12, w9, #16, #8
100007510: 88 3d 08 53 	ubfx	w8, w12, #8, #8
100007514: 8a 1d 10 12 	and	w10, w12, #0xff0000
100007518: 09 00 00 14 	b	0x10000753c <__ZN5gimli4read4line15parse_attribute17h46ffe14a43271373E+0x468>
10000751c: 28 24 40 a9 	ldp	x8, x9, [x1]
100007520: 29 11 00 f1 	subs	x9, x9, #4
100007524: 63 13 00 54 	b.lo	0x100007790 <__ZN5gimli4read4line15parse_attribute17h46ffe14a43271373E+0x6bc>
100007528: 0b 00 80 d2 	mov	x11, #0
10000752c: 0c 45 40 b8 	ldr	w12, [x8], #4
100007530: 28 24 00 a9 	stp	x8, x9, [x1]
100007534: 88 7d 08 53 	lsr	w8, w12, #8
100007538: 8a 3d 10 12 	and	w10, w12, #0xffff0000
10000753c: ad 03 80 52 	mov	w13, #29
100007540: 0e 00 80 d2 	mov	x14, #0
100007544: 8c 1d 00 12 	and	w12, w12, #0xff
100007548: 0c 1d 18 33 	bfi	w12, w8, #8, #8
10000754c: 88 01 0a 2a 	orr	w8, w12, w10
100007550: 68 01 08 aa 	orr	x8, x11, x8
100007554: 6d a2 00 a9 	stp	x13, x8, [x19, #8]
100007558: 69 0e 00 f9 	str	x9, [x19, #24]
10000755c: 6e 02 00 f9 	str	x14, [x19]
100007560: fd 7b 43 a9 	ldp	x29, x30, [sp, #48]
100007564: f4 4f 42 a9 	ldp	x20, x19, [sp, #32]
100007568: ff 03 01 91 	add	sp, sp, #64
10000756c: c0 03 5f d6 	ret
100007570: 28 24 40 a9 	ldp	x8, x9, [x1]
100007574: 29 11 00 f1 	subs	x9, x9, #4
100007578: c3 10 00 54 	b.lo	0x100007790 <__ZN5gimli4read4line15parse_attribute17h46ffe14a43271373E+0x6bc>
10000757c: 0c 45 40 b8 	ldr	w12, [x8], #4
100007580: 28 24 00 a9 	stp	x8, x9, [x1]
100007584: 88 3d 08 53 	ubfx	w8, w12, #8, #8
100007588: 8a 3d 10 12 	and	w10, w12, #0xffff0000
10000758c: 8b 7d 60 92 	and	x11, x12, #0xffffffff00000000
100007590: 6d 03 80 52 	mov	w13, #27
100007594: eb ff ff 17 	b	0x100007540 <__ZN5gimli4read4line15parse_attribute17h46ffe14a43271373E+0x46c>
100007598: 68 02 80 52 	mov	w8, #19
10000759c: 68 a6 00 a9 	stp	x8, x9, [x19, #8]
1000075a0: 2e 00 80 52 	mov	w14, #1
1000075a4: 6e 02 00 f9 	str	x14, [x19]
1000075a8: fd 7b 43 a9 	ldp	x29, x30, [sp, #48]
1000075ac: f4 4f 42 a9 	ldp	x20, x19, [sp, #32]
1000075b0: ff 03 01 91 	add	sp, sp, #64
1000075b4: c0 03 5f d6 	ret
1000075b8: 88 3d 08 53 	ubfx	w8, w12, #8, #8
1000075bc: 8a 3d 10 12 	and	w10, w12, #0xffff0000
1000075c0: 8b 7d 60 92 	and	x11, x12, #0xffffffff00000000
1000075c4: ad 03 80 52 	mov	w13, #29
1000075c8: de ff ff 17 	b	0x100007540 <__ZN5gimli4read4line15parse_attribute17h46ffe14a43271373E+0x46c>
1000075cc: 0c 25 40 78 	ldrh	w12, [x8], #2
1000075d0: 28 24 00 a9 	stp	x8, x9, [x1]
1000075d4: e9 08 80 52 	mov	w9, #71
1000075d8: 08 00 80 d2 	mov	x8, #0
1000075dc: 2a 1d 00 12 	and	w10, w9, #0xff
1000075e0: 5f 1d 01 71 	cmp	w10, #71
1000075e4: 41 07 00 54 	b.ne	0x1000076cc <__ZN5gimli4read4line15parse_attribute17h46ffe14a43271373E+0x5f8>
1000075e8: 0b 00 80 d2 	mov	x11, #0
1000075ec: 0a 00 80 52 	mov	w10, #0
1000075f0: 88 7d 08 53 	lsr	w8, w12, #8
1000075f4: 6d 00 80 52 	mov	w13, #3
1000075f8: d2 ff ff 17 	b	0x100007540 <__ZN5gimli4read4line15parse_attribute17h46ffe14a43271373E+0x46c>
1000075fc: 0c 45 40 b8 	ldr	w12, [x8], #4
100007600: 28 24 00 a9 	stp	x8, x9, [x1]
100007604: e9 08 80 52 	mov	w9, #71
100007608: 08 00 80 d2 	mov	x8, #0
10000760c: 2a 1d 00 12 	and	w10, w9, #0xff
100007610: 5f 1d 01 71 	cmp	w10, #71
100007614: c1 05 00 54 	b.ne	0x1000076cc <__ZN5gimli4read4line15parse_attribute17h46ffe14a43271373E+0x5f8>
100007618: 0b 00 80 d2 	mov	x11, #0
10000761c: 88 3d 08 53 	ubfx	w8, w12, #8, #8
100007620: 8a 3d 10 12 	and	w10, w12, #0xffff0000
100007624: 8d 00 80 52 	mov	w13, #4
100007628: c6 ff ff 17 	b	0x100007540 <__ZN5gimli4read4line15parse_attribute17h46ffe14a43271373E+0x46c>
10000762c: 28 24 40 a9 	ldp	x8, x9, [x1]
100007630: 29 11 00 f1 	subs	x9, x9, #4
100007634: e3 0a 00 54 	b.lo	0x100007790 <__ZN5gimli4read4line15parse_attribute17h46ffe14a43271373E+0x6bc>
100007638: 0c 45 40 b8 	ldr	w12, [x8], #4
10000763c: 28 24 00 a9 	stp	x8, x9, [x1]
100007640: 88 3d 08 53 	ubfx	w8, w12, #8, #8
100007644: 8a 3d 10 12 	and	w10, w12, #0xffff0000
100007648: 8b 7d 60 92 	and	x11, x12, #0xffffffff00000000
10000764c: 4d 03 80 52 	mov	w13, #26
100007650: bc ff ff 17 	b	0x100007540 <__ZN5gimli4read4line15parse_attribute17h46ffe14a43271373E+0x46c>
100007654: 28 24 40 a9 	ldp	x8, x9, [x1]
100007658: 29 11 00 f1 	subs	x9, x9, #4
10000765c: a3 09 00 54 	b.lo	0x100007790 <__ZN5gimli4read4line15parse_attribute17h46ffe14a43271373E+0x6bc>
100007660: 0c 45 40 b8 	ldr	w12, [x8], #4
100007664: 28 24 00 a9 	stp	x8, x9, [x1]
100007668: 88 3d 08 53 	ubfx	w8, w12, #8, #8
10000766c: 8a 3d 10 12 	and	w10, w12, #0xffff0000
100007670: 8b 7d 60 92 	and	x11, x12, #0xffffffff00000000
100007674: 4d 01 80 52 	mov	w13, #10
100007678: b2 ff ff 17 	b	0x100007540 <__ZN5gimli4read4line15parse_attribute17h46ffe14a43271373E+0x46c>
10000767c: 28 24 40 a9 	ldp	x8, x9, [x1]
100007680: 29 11 00 f1 	subs	x9, x9, #4
100007684: 63 08 00 54 	b.lo	0x100007790 <__ZN5gimli4read4line15parse_attribute17h46ffe14a43271373E+0x6bc>
100007688: 0c 45 40 b8 	ldr	w12, [x8], #4
10000768c: 28 24 00 a9 	stp	x8, x9, [x1]
100007690: 88 3d 08 53 	ubfx	w8, w12, #8, #8
100007694: 8a 3d 10 12 	and	w10, w12, #0xffff0000
100007698: 8b 7d 60 92 	and	x11, x12, #0xffffffff00000000
10000769c: cd 03 80 52 	mov	w13, #30
1000076a0: a8 ff ff 17 	b	0x100007540 <__ZN5gimli4read4line15parse_attribute17h46ffe14a43271373E+0x46c>
1000076a4: 0c 00 80 52 	mov	w12, #0
1000076a8: 69 02 80 52 	mov	w9, #19
1000076ac: 2a 1d 00 12 	and	w10, w9, #0xff
1000076b0: 5f 1d 01 71 	cmp	w10, #71
1000076b4: c1 00 00 54 	b.ne	0x1000076cc <__ZN5gimli4read4line15parse_attribute17h46ffe14a43271373E+0x5f8>
1000076b8: 0b 00 80 d2 	mov	x11, #0
1000076bc: 0a 00 80 52 	mov	w10, #0
1000076c0: 08 00 80 52 	mov	w8, #0
1000076c4: 4d 00 80 52 	mov	w13, #2
1000076c8: 9e ff ff 17 	b	0x100007540 <__ZN5gimli4read4line15parse_attribute17h46ffe14a43271373E+0x46c>
1000076cc: 69 22 00 39 	strb	w9, [x19, #8]
1000076d0: 07 00 00 14 	b	0x1000076ec <__ZN5gimli4read4line15parse_attribute17h46ffe14a43271373E+0x618>
1000076d4: 09 00 80 52 	mov	w9, #0
1000076d8: 6a 02 80 52 	mov	w10, #19
1000076dc: 4b 1d 00 12 	and	w11, w10, #0xff
1000076e0: 7f 1d 01 71 	cmp	w11, #71
1000076e4: 80 e4 ff 54 	b.eq	0x100007374 <__ZN5gimli4read4line15parse_attribute17h46ffe14a43271373E+0x2a0>
1000076e8: 6a 22 00 39 	strb	w10, [x19, #8]
1000076ec: 7f 3e 00 39 	strb	wzr, [x19, #15]
1000076f0: 7f d2 00 78 	sturh	wzr, [x19, #13]
1000076f4: 7f 92 00 b8 	stur	wzr, [x19, #9]
1000076f8: 2e 00 80 52 	mov	w14, #1
1000076fc: 68 0a 00 f9 	str	x8, [x19, #16]
100007700: 6e 02 00 f9 	str	x14, [x19]
100007704: fd 7b 43 a9 	ldp	x29, x30, [sp, #48]
100007708: f4 4f 42 a9 	ldp	x20, x19, [sp, #32]
10000770c: ff 03 01 91 	add	sp, sp, #64
100007710: c0 03 5f d6 	ret
100007714: 88 3d 08 53 	ubfx	w8, w12, #8, #8
100007718: 8a 3d 10 12 	and	w10, w12, #0xffff0000
10000771c: 8b 7d 60 92 	and	x11, x12, #0xffffffff00000000
100007720: cd 00 80 52 	mov	w13, #6
100007724: 87 ff ff 17 	b	0x100007540 <__ZN5gimli4read4line15parse_attribute17h46ffe14a43271373E+0x46c>
100007728: 48 01 08 8b 	add	x8, x10, x8
10000772c: 6c 02 80 52 	mov	w12, #19
100007730: 6c a2 00 a9 	stp	x12, x8, [x19, #8]
100007734: 2e 00 80 52 	mov	w14, #1
100007738: 6e 02 00 f9 	str	x14, [x19]
10000773c: fd 7b 43 a9 	ldp	x29, x30, [sp, #48]
100007740: f4 4f 42 a9 	ldp	x20, x19, [sp, #32]
100007744: ff 03 01 91 	add	sp, sp, #64
100007748: c0 03 5f d6 	ret
10000774c: 8a 01 09 8b 	add	x10, x12, x9
100007750: 0b 01 09 eb 	subs	x11, x8, x9
100007754: 2a 2c 00 a9 	stp	x10, x11, [x1]
100007758: 61 03 00 54 	b.ne	0x1000077c4 <__ZN5gimli4read4line15parse_attribute17h46ffe14a43271373E+0x6f0>
10000775c: ec 03 0a aa 	mov	x12, x10
100007760: 68 02 80 52 	mov	w8, #19
100007764: 68 b2 00 a9 	stp	x8, x12, [x19, #8]
100007768: 2e 00 80 52 	mov	w14, #1
10000776c: 6e 02 00 f9 	str	x14, [x19]
100007770: fd 7b 43 a9 	ldp	x29, x30, [sp, #48]
100007774: f4 4f 42 a9 	ldp	x20, x19, [sp, #32]
100007778: ff 03 01 91 	add	sp, sp, #64
10000777c: c0 03 5f d6 	ret
100007780: 6c 01 08 cb 	sub	x12, x11, x8
100007784: 9f 01 09 eb 	cmp	x12, x9
100007788: 02 03 00 54 	b.hs	0x1000077e8 <__ZN5gimli4read4line15parse_attribute17h46ffe14a43271373E+0x714>
10000778c: 48 01 08 8b 	add	x8, x10, x8
100007790: 69 02 80 52 	mov	w9, #19
100007794: 69 a2 00 a9 	stp	x9, x8, [x19, #8]
100007798: 2e 00 80 52 	mov	w14, #1
10000779c: 6e 02 00 f9 	str	x14, [x19]
1000077a0: fd 7b 43 a9 	ldp	x29, x30, [sp, #48]
1000077a4: f4 4f 42 a9 	ldp	x20, x19, [sp, #32]
1000077a8: ff 03 01 91 	add	sp, sp, #64
1000077ac: c0 03 5f d6 	ret
1000077b0: 88 3d 08 53 	ubfx	w8, w12, #8, #8
1000077b4: 8a 3d 10 12 	and	w10, w12, #0xffff0000
1000077b8: 8b 7d 60 92 	and	x11, x12, #0xffffffff00000000
1000077bc: ed 00 80 52 	mov	w13, #7
1000077c0: 60 ff ff 17 	b	0x100007540 <__ZN5gimli4read4line15parse_attribute17h46ffe14a43271373E+0x46c>
1000077c4: 4a 05 00 91 	add	x10, x10, #1
1000077c8: eb 03 29 aa 	mvn	x11, x9
1000077cc: 6b 01 08 8b 	add	x11, x11, x8
1000077d0: 88 3d 08 53 	ubfx	w8, w12, #8, #8
1000077d4: 2a 2c 00 a9 	stp	x10, x11, [x1]
1000077d8: 8a 3d 10 12 	and	w10, w12, #0xffff0000
1000077dc: 8b 7d 60 92 	and	x11, x12, #0xffffffff00000000
1000077e0: ed 03 80 52 	mov	w13, #31
1000077e4: 57 ff ff 17 	b	0x100007540 <__ZN5gimli4read4line15parse_attribute17h46ffe14a43271373E+0x46c>
1000077e8: 2c 01 08 8b 	add	x12, x9, x8
1000077ec: 4c 01 0c 8b 	add	x12, x10, x12
1000077f0: 6b 01 09 cb 	sub	x11, x11, x9
1000077f4: 6b 01 08 cb 	sub	x11, x11, x8
1000077f8: 2c 2c 00 a9 	stp	x12, x11, [x1]
1000077fc: 4c 01 08 8b 	add	x12, x10, x8
100007800: 88 3d 08 53 	ubfx	w8, w12, #8, #8
100007804: c3 fe ff 17 	b	0x100007310 <__ZN5gimli4read4line15parse_attribute17h46ffe14a43271373E+0x23c>

0000000100007808 <__ZN5gimli4read4unit15parse_attribute17h96019df6e63c0e7cE>:
100007808: ff 43 01 d1 	sub	sp, sp, #80
10000780c: f6 57 02 a9 	stp	x22, x21, [sp, #32]
100007810: f4 4f 03 a9 	stp	x20, x19, [sp, #48]
100007814: fd 7b 04 a9 	stp	x29, x30, [sp, #64]
100007818: fd 03 01 91 	add	x29, sp, #64
10000781c: f4 03 04 aa 	mov	x20, x4
100007820: f5 03 01 aa 	mov	x21, x1
100007824: f3 03 00 aa 	mov	x19, x0
100007828: ea 03 05 aa 	mov	x10, x5
10000782c: 89 8a 15 10 	adr	x9, #176464
100007830: 1f 20 03 d5 	nop
100007834: 48 3d 00 12 	and	w8, w10, #0xffff
100007838: 0a 05 00 51 	sub	w10, w8, #1
10000783c: 5f ad 00 71 	cmp	w10, #43
100007840: c8 03 00 54 	b.hi	0x1000078b8 <__ZN5gimli4read4unit15parse_attribute17h96019df6e63c0e7cE+0xb0>
100007844: 88 00 00 10 	adr	x8, #16
100007848: 2b 79 6a 78 	ldrh	w11, [x9, x10, lsl #1]
10000784c: 08 09 0b 8b 	add	x8, x8, x11, lsl #2
100007850: 00 01 1f d6 	br	x8
100007854: a8 2e 40 a9 	ldp	x8, x11, [x21]
100007858: cb 46 00 b4 	cbz	x11, 0x100008130 <__ZN5gimli4read4unit15parse_attribute17h96019df6e63c0e7cE+0x928>
10000785c: ec 03 08 aa 	mov	x12, x8
100007860: 8e 15 40 38 	ldrb	w14, [x12], #1
100007864: 6d 05 00 d1 	sub	x13, x11, #1
100007868: ac 36 00 a9 	stp	x12, x13, [x21]
10000786c: ca 19 00 12 	and	w10, w14, #0x7f
100007870: 2e fe 3f 36 	tbz	w14, #7, 0x100007834 <__ZN5gimli4read4unit15parse_attribute17h96019df6e63c0e7cE+0x2c>
100007874: 4d 52 00 b4 	cbz	x13, 0x1000082bc <__ZN5gimli4read4unit15parse_attribute17h96019df6e63c0e7cE+0xab4>
100007878: 0c 09 00 91 	add	x12, x8, #2
10000787c: 6d 09 00 d1 	sub	x13, x11, #2
100007880: ac 36 00 a9 	stp	x12, x13, [x21]
100007884: 0e 05 40 39 	ldrb	w14, [x8, #1]
100007888: cf 19 00 12 	and	w15, w14, #0x7f
10000788c: ea 19 19 33 	bfi	w10, w15, #7, #7
100007890: 2e fd 3f 36 	tbz	w14, #7, 0x100007834 <__ZN5gimli4read4unit15parse_attribute17h96019df6e63c0e7cE+0x2c>
100007894: 4d 51 00 b4 	cbz	x13, 0x1000082bc <__ZN5gimli4read4unit15parse_attribute17h96019df6e63c0e7cE+0xab4>
100007898: 0c 0d 00 91 	add	x12, x8, #3
10000789c: 6b 0d 00 d1 	sub	x11, x11, #3
1000078a0: ac 2e 00 a9 	stp	x12, x11, [x21]
1000078a4: 08 09 40 39 	ldrb	w8, [x8, #2]
1000078a8: 1f 0d 00 71 	cmp	w8, #3
1000078ac: 28 64 00 54 	b.hi	0x100008530 <__ZN5gimli4read4unit15parse_attribute17h96019df6e63c0e7cE+0xd28>
1000078b0: 0a 1d 12 33 	bfi	w10, w8, #14, #8
1000078b4: e0 ff ff 17 	b	0x100007834 <__ZN5gimli4read4unit15parse_attribute17h96019df6e63c0e7cE+0x2c>
1000078b8: 09 e0 83 12 	mov	w9, #-7937
1000078bc: 08 01 09 0b 	add	w8, w8, w9
1000078c0: 1f 81 00 71 	cmp	w8, #32
1000078c4: c8 43 00 54 	b.hi	0x10000813c <__ZN5gimli4read4unit15parse_attribute17h96019df6e63c0e7cE+0x934>
1000078c8: 69 88 15 10 	adr	x9, #176396
1000078cc: 1f 20 03 d5 	nop
1000078d0: 8a 00 00 10 	adr	x10, #16
1000078d4: 2b 79 68 78 	ldrh	w11, [x9, x8, lsl #1]
1000078d8: 4a 09 0b 8b 	add	x10, x10, x11, lsl #2
1000078dc: 40 01 1f d6 	br	x10
1000078e0: 09 00 80 52 	mov	w9, #0
1000078e4: 03 00 80 d2 	mov	x3, #0
1000078e8: a8 2a 40 a9 	ldp	x8, x10, [x21]
1000078ec: 0b 05 00 91 	add	x11, x8, #1
1000078f0: 4c 05 00 d1 	sub	x12, x10, #1
1000078f4: 6a 02 80 52 	mov	w10, #19
1000078f8: 09 00 00 14 	b	0x10000791c <__ZN5gimli4read4unit15parse_attribute17h96019df6e63c0e7cE+0x114>
1000078fc: ae 19 00 12 	and	w14, w13, #0x7f
100007900: ce 21 c9 9a 	lsl	x14, x14, x9
100007904: c3 01 03 aa 	orr	x3, x14, x3
100007908: 29 1d 00 11 	add	w9, w9, #7
10000790c: 08 05 00 91 	add	x8, x8, #1
100007910: 6b 05 00 91 	add	x11, x11, #1
100007914: 8c 05 00 d1 	sub	x12, x12, #1
100007918: cd 43 38 36 	tbz	w13, #7, 0x100008190 <__ZN5gimli4read4unit15parse_attribute17h96019df6e63c0e7cE+0x988>
10000791c: 9f 05 00 b1 	cmn	x12, #1
100007920: 20 58 00 54 	b.eq	0x100008424 <__ZN5gimli4read4unit15parse_attribute17h96019df6e63c0e7cE+0xc1c>
100007924: ab 32 00 a9 	stp	x11, x12, [x21]
100007928: 6d f1 5f 38 	ldurb	w13, [x11, #-1]
10000792c: 3f fd 00 71 	cmp	w9, #63
100007930: 61 fe ff 54 	b.ne	0x1000078fc <__ZN5gimli4read4unit15parse_attribute17h96019df6e63c0e7cE+0xf4>
100007934: bf 05 00 71 	cmp	w13, #1
100007938: 29 fe ff 54 	b.ls	0x1000078fc <__ZN5gimli4read4unit15parse_attribute17h96019df6e63c0e7cE+0xf4>
10000793c: f1 01 00 14 	b	0x100008100 <__ZN5gimli4read4unit15parse_attribute17h96019df6e63c0e7cE+0x8f8>
100007940: 09 00 80 52 	mov	w9, #0
100007944: 03 00 80 d2 	mov	x3, #0
100007948: a8 2a 40 a9 	ldp	x8, x10, [x21]
10000794c: 0b 05 00 91 	add	x11, x8, #1
100007950: 4c 05 00 d1 	sub	x12, x10, #1
100007954: 6a 02 80 52 	mov	w10, #19
100007958: 09 00 00 14 	b	0x10000797c <__ZN5gimli4read4unit15parse_attribute17h96019df6e63c0e7cE+0x174>
10000795c: ae 19 00 12 	and	w14, w13, #0x7f
100007960: ce 21 c9 9a 	lsl	x14, x14, x9
100007964: c3 01 03 aa 	orr	x3, x14, x3
100007968: 29 1d 00 11 	add	w9, w9, #7
10000796c: 08 05 00 91 	add	x8, x8, #1
100007970: 6b 05 00 91 	add	x11, x11, #1
100007974: 8c 05 00 d1 	sub	x12, x12, #1
100007978: 6d 41 38 36 	tbz	w13, #7, 0x1000081a4 <__ZN5gimli4read4unit15parse_attribute17h96019df6e63c0e7cE+0x99c>
10000797c: 9f 05 00 b1 	cmn	x12, #1
100007980: 20 55 00 54 	b.eq	0x100008424 <__ZN5gimli4read4unit15parse_attribute17h96019df6e63c0e7cE+0xc1c>
100007984: ab 32 00 a9 	stp	x11, x12, [x21]
100007988: 6d f1 5f 38 	ldurb	w13, [x11, #-1]
10000798c: 3f fd 00 71 	cmp	w9, #63
100007990: 61 fe ff 54 	b.ne	0x10000795c <__ZN5gimli4read4unit15parse_attribute17h96019df6e63c0e7cE+0x154>
100007994: bf 05 00 71 	cmp	w13, #1
100007998: 29 fe ff 54 	b.ls	0x10000795c <__ZN5gimli4read4unit15parse_attribute17h96019df6e63c0e7cE+0x154>
10000799c: d9 01 00 14 	b	0x100008100 <__ZN5gimli4read4unit15parse_attribute17h96019df6e63c0e7cE+0x8f8>
1000079a0: 48 3c 08 53 	ubfx	w8, w2, #8, #8
1000079a4: 1f 21 00 71 	cmp	w8, #8
1000079a8: a1 36 00 54 	b.ne	0x10000807c <__ZN5gimli4read4unit15parse_attribute17h96019df6e63c0e7cE+0x874>
1000079ac: a8 26 40 a9 	ldp	x8, x9, [x21]
1000079b0: 29 21 00 f1 	subs	x9, x9, #8
1000079b4: e3 47 00 54 	b.lo	0x1000082b0 <__ZN5gimli4read4unit15parse_attribute17h96019df6e63c0e7cE+0xaa8>
1000079b8: 03 85 40 f8 	ldr	x3, [x8], #8
1000079bc: b4 01 00 14 	b	0x10000808c <__ZN5gimli4read4unit15parse_attribute17h96019df6e63c0e7cE+0x884>
1000079c0: 48 1c 00 12 	and	w8, w2, #0xff
1000079c4: e9 02 80 52 	mov	w9, #23
1000079c8: 08 05 00 51 	sub	w8, w8, #1
1000079cc: 1f 1d 00 71 	cmp	w8, #7
1000079d0: 68 5b 00 54 	b.hi	0x10000853c <__ZN5gimli4read4unit15parse_attribute17h96019df6e63c0e7cE+0xd34>
1000079d4: 0a 82 15 50 	adr	x10, #176194
1000079d8: 1f 20 03 d5 	nop
1000079dc: 8b 00 00 10 	adr	x11, #16
1000079e0: 4c 79 68 78 	ldrh	w12, [x10, x8, lsl #1]
1000079e4: 6b 09 0c 8b 	add	x11, x11, x12, lsl #2
1000079e8: 60 01 1f d6 	br	x11
1000079ec: a8 2a 40 a9 	ldp	x8, x10, [x21]
1000079f0: 2a 57 00 b4 	cbz	x10, 0x1000084d4 <__ZN5gimli4read4unit15parse_attribute17h96019df6e63c0e7cE+0xccc>
1000079f4: 09 00 80 d2 	mov	x9, #0
1000079f8: 0b 00 80 d2 	mov	x11, #0
1000079fc: 03 15 40 38 	ldrb	w3, [x8], #1
100007a00: 4a 05 00 d1 	sub	x10, x10, #1
100007a04: a8 2a 00 a9 	stp	x8, x10, [x21]
100007a08: d4 02 00 14 	b	0x100008558 <__ZN5gimli4read4unit15parse_attribute17h96019df6e63c0e7cE+0xd50>
100007a0c: a3 22 40 a9 	ldp	x3, x8, [x21]
100007a10: 08 09 00 f1 	subs	x8, x8, #2
100007a14: c3 4c 00 54 	b.lo	0x1000083ac <__ZN5gimli4read4unit15parse_attribute17h96019df6e63c0e7cE+0xba4>
100007a18: 6c 24 40 78 	ldrh	w12, [x3], #2
100007a1c: 4c 00 00 14 	b	0x100007b4c <__ZN5gimli4read4unit15parse_attribute17h96019df6e63c0e7cE+0x344>
100007a20: a3 22 40 a9 	ldp	x3, x8, [x21]
100007a24: 08 11 00 f1 	subs	x8, x8, #4
100007a28: 23 4c 00 54 	b.lo	0x1000083ac <__ZN5gimli4read4unit15parse_attribute17h96019df6e63c0e7cE+0xba4>
100007a2c: 6c 44 40 b8 	ldr	w12, [x3], #4
100007a30: 47 00 00 14 	b	0x100007b4c <__ZN5gimli4read4unit15parse_attribute17h96019df6e63c0e7cE+0x344>
100007a34: a8 26 40 a9 	ldp	x8, x9, [x21]
100007a38: 29 09 00 f1 	subs	x9, x9, #2
100007a3c: e2 3b 00 54 	b.hs	0x1000081b8 <__ZN5gimli4read4unit15parse_attribute17h96019df6e63c0e7cE+0x9b0>
100007a40: 03 00 80 52 	mov	w3, #0
100007a44: 69 02 80 52 	mov	w9, #19
100007a48: e0 01 00 14 	b	0x1000081c8 <__ZN5gimli4read4unit15parse_attribute17h96019df6e63c0e7cE+0x9c0>
100007a4c: 48 3c 08 53 	ubfx	w8, w2, #8, #8
100007a50: 1f 11 00 71 	cmp	w8, #4
100007a54: a1 37 00 54 	b.ne	0x100008148 <__ZN5gimli4read4unit15parse_attribute17h96019df6e63c0e7cE+0x940>
100007a58: 41 7c 10 53 	lsr	w1, w2, #16
100007a5c: e0 03 14 aa 	mov	x0, x20
100007a60: 91 6c 00 94 	bl	0x100022ca4 <__ZN5gimli4read4unit20allow_section_offset17h4b646a9e3bdc5466E>
100007a64: 20 37 00 36 	tbz	w0, #0, 0x100008148 <__ZN5gimli4read4unit15parse_attribute17h96019df6e63c0e7cE+0x940>
100007a68: a8 26 40 a9 	ldp	x8, x9, [x21]
100007a6c: 29 11 00 f1 	subs	x9, x9, #4
100007a70: 03 42 00 54 	b.lo	0x1000082b0 <__ZN5gimli4read4unit15parse_attribute17h96019df6e63c0e7cE+0xaa8>
100007a74: 03 45 40 b8 	ldr	w3, [x8], #4
100007a78: a8 26 00 a9 	stp	x8, x9, [x21]
100007a7c: 4a 01 80 52 	mov	w10, #10
100007a80: 31 02 00 14 	b	0x100008344 <__ZN5gimli4read4unit15parse_attribute17h96019df6e63c0e7cE+0xb3c>
100007a84: 48 3c 08 53 	ubfx	w8, w2, #8, #8
100007a88: 1f 21 00 71 	cmp	w8, #8
100007a8c: a1 36 00 54 	b.ne	0x100008160 <__ZN5gimli4read4unit15parse_attribute17h96019df6e63c0e7cE+0x958>
100007a90: 41 7c 10 53 	lsr	w1, w2, #16
100007a94: e0 03 14 aa 	mov	x0, x20
100007a98: 83 6c 00 94 	bl	0x100022ca4 <__ZN5gimli4read4unit20allow_section_offset17h4b646a9e3bdc5466E>
100007a9c: 20 36 00 36 	tbz	w0, #0, 0x100008160 <__ZN5gimli4read4unit15parse_attribute17h96019df6e63c0e7cE+0x958>
100007aa0: a8 26 40 a9 	ldp	x8, x9, [x21]
100007aa4: 3f 1d 00 f1 	cmp	x9, #7
100007aa8: 49 40 00 54 	b.ls	0x1000082b0 <__ZN5gimli4read4unit15parse_attribute17h96019df6e63c0e7cE+0xaa8>
100007aac: 4a 01 80 52 	mov	w10, #10
100007ab0: b0 01 00 14 	b	0x100008170 <__ZN5gimli4read4unit15parse_attribute17h96019df6e63c0e7cE+0x968>
100007ab4: a3 22 40 a9 	ldp	x3, x8, [x21]
100007ab8: a8 47 00 b4 	cbz	x8, 0x1000083ac <__ZN5gimli4read4unit15parse_attribute17h96019df6e63c0e7cE+0xba4>
100007abc: 0c 00 80 d2 	mov	x12, #0
100007ac0: 69 68 6c 38 	ldrb	w9, [x3, x12]
100007ac4: a9 46 00 34 	cbz	w9, 0x100008398 <__ZN5gimli4read4unit15parse_attribute17h96019df6e63c0e7cE+0xb90>
100007ac8: 8c 05 00 91 	add	x12, x12, #1
100007acc: 1f 01 0c eb 	cmp	x8, x12
100007ad0: 81 ff ff 54 	b.ne	0x100007ac0 <__ZN5gimli4read4unit15parse_attribute17h96019df6e63c0e7cE+0x2b8>
100007ad4: 36 02 00 14 	b	0x1000083ac <__ZN5gimli4read4unit15parse_attribute17h96019df6e63c0e7cE+0xba4>
100007ad8: 08 00 80 d2 	mov	x8, #0
100007adc: 0d 00 80 52 	mov	w13, #0
100007ae0: 0c 00 80 d2 	mov	x12, #0
100007ae4: a9 2e 40 a9 	ldp	x9, x11, [x21]
100007ae8: 0e 00 80 92 	mov	x14, #-1
100007aec: ca 00 80 52 	mov	w10, #6
100007af0: 08 00 00 14 	b	0x100007b10 <__ZN5gimli4read4unit15parse_attribute17h96019df6e63c0e7cE+0x308>
100007af4: f0 19 00 12 	and	w16, w15, #0x7f
100007af8: 10 22 cd 9a 	lsl	x16, x16, x13
100007afc: 0c 02 0c aa 	orr	x12, x16, x12
100007b00: ad 1d 00 11 	add	w13, w13, #7
100007b04: 08 05 00 91 	add	x8, x8, #1
100007b08: ce 05 00 d1 	sub	x14, x14, #1
100007b0c: 6f 45 38 36 	tbz	w15, #7, 0x1000083b8 <__ZN5gimli4read4unit15parse_attribute17h96019df6e63c0e7cE+0xbb0>
100007b10: 7f 01 08 eb 	cmp	x11, x8
100007b14: 40 48 00 54 	b.eq	0x10000841c <__ZN5gimli4read4unit15parse_attribute17h96019df6e63c0e7cE+0xc14>
100007b18: 30 01 08 8b 	add	x16, x9, x8
100007b1c: 0f 16 40 38 	ldrb	w15, [x16], #1
100007b20: 71 01 0e 8b 	add	x17, x11, x14
100007b24: b0 46 00 a9 	stp	x16, x17, [x21]
100007b28: bf fd 00 71 	cmp	w13, #63
100007b2c: 41 fe ff 54 	b.ne	0x100007af4 <__ZN5gimli4read4unit15parse_attribute17h96019df6e63c0e7cE+0x2ec>
100007b30: ff 09 00 71 	cmp	w15, #2
100007b34: 03 fe ff 54 	b.lo	0x100007af4 <__ZN5gimli4read4unit15parse_attribute17h96019df6e63c0e7cE+0x2ec>
100007b38: ab 00 00 14 	b	0x100007de4 <__ZN5gimli4read4unit15parse_attribute17h96019df6e63c0e7cE+0x5dc>
100007b3c: a3 22 40 a9 	ldp	x3, x8, [x21]
100007b40: 68 43 00 b4 	cbz	x8, 0x1000083ac <__ZN5gimli4read4unit15parse_attribute17h96019df6e63c0e7cE+0xba4>
100007b44: 6c 14 40 38 	ldrb	w12, [x3], #1
100007b48: 08 05 00 d1 	sub	x8, x8, #1
100007b4c: a3 22 00 a9 	stp	x3, x8, [x21]
100007b50: 09 01 0c eb 	subs	x9, x8, x12
100007b54: c3 42 00 54 	b.lo	0x1000083ac <__ZN5gimli4read4unit15parse_attribute17h96019df6e63c0e7cE+0xba4>
100007b58: 6a 00 0c 8b 	add	x10, x3, x12
100007b5c: 68 3c 08 53 	ubfx	w8, w3, #8, #8
100007b60: 6b 7c 50 d3 	ubfx	x11, x3, #16, #16
100007b64: aa 26 00 a9 	stp	x10, x9, [x21]
100007b68: 69 7c 60 92 	and	x9, x3, #0xffffffff00000000
100007b6c: 2a 00 80 52 	mov	w10, #1
100007b70: 80 02 00 14 	b	0x100008570 <__ZN5gimli4read4unit15parse_attribute17h96019df6e63c0e7cE+0xd68>
100007b74: a8 26 40 a9 	ldp	x8, x9, [x21]
100007b78: a9 3a 00 b4 	cbz	x9, 0x1000082cc <__ZN5gimli4read4unit15parse_attribute17h96019df6e63c0e7cE+0xac4>
100007b7c: 03 15 40 38 	ldrb	w3, [x8], #1
100007b80: 29 05 00 d1 	sub	x9, x9, #1
100007b84: a8 26 00 a9 	stp	x8, x9, [x21]
100007b88: e9 08 80 52 	mov	w9, #71
100007b8c: 08 00 80 d2 	mov	x8, #0
100007b90: d1 01 00 14 	b	0x1000082d4 <__ZN5gimli4read4unit15parse_attribute17h96019df6e63c0e7cE+0xacc>
100007b94: a8 26 40 a9 	ldp	x8, x9, [x21]
100007b98: e9 3a 00 b4 	cbz	x9, 0x1000082f4 <__ZN5gimli4read4unit15parse_attribute17h96019df6e63c0e7cE+0xaec>
100007b9c: 0a 15 40 38 	ldrb	w10, [x8], #1
100007ba0: 29 05 00 d1 	sub	x9, x9, #1
100007ba4: a8 26 00 a9 	stp	x8, x9, [x21]
100007ba8: e9 08 80 52 	mov	w9, #71
100007bac: 08 00 80 d2 	mov	x8, #0
100007bb0: d3 01 00 14 	b	0x1000082fc <__ZN5gimli4read4unit15parse_attribute17h96019df6e63c0e7cE+0xaf4>
100007bb4: e0 23 00 91 	add	x0, sp, #8
100007bb8: e1 03 15 aa 	mov	x1, x21
100007bbc: ad 04 00 94 	bl	0x100008e70 <__ZN5gimli4read6reader6Reader12read_sleb12817h4d9df5ff586b404eE>
100007bc0: e8 8f 40 a9 	ldp	x8, x3, [sp, #8]
100007bc4: 28 33 00 b5 	cbnz	x8, 0x100008228 <__ZN5gimli4read4unit15parse_attribute17h96019df6e63c0e7cE+0xa20>
100007bc8: b9 00 00 14 	b	0x100007eac <__ZN5gimli4read4unit15parse_attribute17h96019df6e63c0e7cE+0x6a4>
100007bcc: 48 3c 08 53 	ubfx	w8, w2, #8, #8
100007bd0: 1f 21 00 71 	cmp	w8, #8
100007bd4: a1 30 00 54 	b.ne	0x1000081e8 <__ZN5gimli4read4unit15parse_attribute17h96019df6e63c0e7cE+0x9e0>
100007bd8: a8 26 40 a9 	ldp	x8, x9, [x21]
100007bdc: 29 21 00 f1 	subs	x9, x9, #8
100007be0: 83 36 00 54 	b.lo	0x1000082b0 <__ZN5gimli4read4unit15parse_attribute17h96019df6e63c0e7cE+0xaa8>
100007be4: 03 85 40 f8 	ldr	x3, [x8], #8
100007be8: 84 01 00 14 	b	0x1000081f8 <__ZN5gimli4read4unit15parse_attribute17h96019df6e63c0e7cE+0x9f0>
100007bec: 09 00 80 52 	mov	w9, #0
100007bf0: 03 00 80 d2 	mov	x3, #0
100007bf4: a8 2a 40 a9 	ldp	x8, x10, [x21]
100007bf8: 0b 05 00 91 	add	x11, x8, #1
100007bfc: 4c 05 00 d1 	sub	x12, x10, #1
100007c00: 6a 02 80 52 	mov	w10, #19
100007c04: 09 00 00 14 	b	0x100007c28 <__ZN5gimli4read4unit15parse_attribute17h96019df6e63c0e7cE+0x420>
100007c08: ae 19 00 12 	and	w14, w13, #0x7f
100007c0c: ce 21 c9 9a 	lsl	x14, x14, x9
100007c10: c3 01 03 aa 	orr	x3, x14, x3
100007c14: 29 1d 00 11 	add	w9, w9, #7
100007c18: 08 05 00 91 	add	x8, x8, #1
100007c1c: 6b 05 00 91 	add	x11, x11, #1
100007c20: 8c 05 00 d1 	sub	x12, x12, #1
100007c24: 2d 3e 38 36 	tbz	w13, #7, 0x1000083e8 <__ZN5gimli4read4unit15parse_attribute17h96019df6e63c0e7cE+0xbe0>
100007c28: 9f 05 00 b1 	cmn	x12, #1
100007c2c: c0 3f 00 54 	b.eq	0x100008424 <__ZN5gimli4read4unit15parse_attribute17h96019df6e63c0e7cE+0xc1c>
100007c30: ab 32 00 a9 	stp	x11, x12, [x21]
100007c34: 6d f1 5f 38 	ldurb	w13, [x11, #-1]
100007c38: 3f fd 00 71 	cmp	w9, #63
100007c3c: 61 fe ff 54 	b.ne	0x100007c08 <__ZN5gimli4read4unit15parse_attribute17h96019df6e63c0e7cE+0x400>
100007c40: bf 05 00 71 	cmp	w13, #1
100007c44: 29 fe ff 54 	b.ls	0x100007c08 <__ZN5gimli4read4unit15parse_attribute17h96019df6e63c0e7cE+0x400>
100007c48: ca 00 80 52 	mov	w10, #6
100007c4c: f6 01 00 14 	b	0x100008424 <__ZN5gimli4read4unit15parse_attribute17h96019df6e63c0e7cE+0xc1c>
100007c50: 48 7c 10 53 	lsr	w8, w2, #16
100007c54: 1f 09 00 71 	cmp	w8, #2
100007c58: c1 2d 00 54 	b.ne	0x100008210 <__ZN5gimli4read4unit15parse_attribute17h96019df6e63c0e7cE+0xa08>
100007c5c: e0 23 00 91 	add	x0, sp, #8
100007c60: e1 03 15 aa 	mov	x1, x21
100007c64: 09 05 00 94 	bl	0x100009088 <__ZN5gimli4read6reader6Reader17read_sized_offset17ha824d5194a6a583aE>
100007c68: 6e 01 00 14 	b	0x100008220 <__ZN5gimli4read4unit15parse_attribute17h96019df6e63c0e7cE+0xa18>
100007c6c: aa 32 40 a9 	ldp	x10, x12, [x21]
100007c70: 4c 1b 00 b4 	cbz	x12, 0x100007fd8 <__ZN5gimli4read4unit15parse_attribute17h96019df6e63c0e7cE+0x7d0>
100007c74: 08 00 80 52 	mov	w8, #0
100007c78: 0b 00 80 52 	mov	w11, #0
100007c7c: 09 00 80 d2 	mov	x9, #0
100007c80: 43 15 40 38 	ldrb	w3, [x10], #1
100007c84: 8c 05 00 d1 	sub	x12, x12, #1
100007c88: aa 32 00 a9 	stp	x10, x12, [x21]
100007c8c: aa 01 80 52 	mov	w10, #13
100007c90: 38 02 00 14 	b	0x100008570 <__ZN5gimli4read4unit15parse_attribute17h96019df6e63c0e7cE+0xd68>
100007c94: a8 26 40 a9 	ldp	x8, x9, [x21]
100007c98: 2a 09 00 f1 	subs	x10, x9, #2
100007c9c: a3 30 00 54 	b.lo	0x1000082b0 <__ZN5gimli4read4unit15parse_attribute17h96019df6e63c0e7cE+0xaa8>
100007ca0: 0b 00 80 52 	mov	w11, #0
100007ca4: 09 00 80 d2 	mov	x9, #0
100007ca8: 03 25 40 78 	ldrh	w3, [x8], #2
100007cac: a8 2a 00 a9 	stp	x8, x10, [x21]
100007cb0: 68 7c 08 53 	lsr	w8, w3, #8
100007cb4: aa 01 80 52 	mov	w10, #13
100007cb8: 2e 02 00 14 	b	0x100008570 <__ZN5gimli4read4unit15parse_attribute17h96019df6e63c0e7cE+0xd68>
100007cbc: a8 26 40 a9 	ldp	x8, x9, [x21]
100007cc0: 2a 11 00 f1 	subs	x10, x9, #4
100007cc4: 63 2f 00 54 	b.lo	0x1000082b0 <__ZN5gimli4read4unit15parse_attribute17h96019df6e63c0e7cE+0xaa8>
100007cc8: 09 00 80 d2 	mov	x9, #0
100007ccc: 03 45 40 b8 	ldr	w3, [x8], #4
100007cd0: a8 2a 00 a9 	stp	x8, x10, [x21]
100007cd4: 68 3c 08 53 	ubfx	w8, w3, #8, #8
100007cd8: 6b 7c 10 53 	lsr	w11, w3, #16
100007cdc: aa 01 80 52 	mov	w10, #13
100007ce0: 24 02 00 14 	b	0x100008570 <__ZN5gimli4read4unit15parse_attribute17h96019df6e63c0e7cE+0xd68>
100007ce4: a9 22 40 a9 	ldp	x9, x8, [x21]
100007ce8: 0a 21 00 f1 	subs	x10, x8, #8
100007cec: 03 12 00 54 	b.lo	0x100007f2c <__ZN5gimli4read4unit15parse_attribute17h96019df6e63c0e7cE+0x724>
100007cf0: 23 85 40 f8 	ldr	x3, [x9], #8
100007cf4: 68 3c 08 53 	ubfx	w8, w3, #8, #8
100007cf8: 6b 7c 50 d3 	ubfx	x11, x3, #16, #16
100007cfc: a9 2a 00 a9 	stp	x9, x10, [x21]
100007d00: c1 01 00 14 	b	0x100008404 <__ZN5gimli4read4unit15parse_attribute17h96019df6e63c0e7cE+0xbfc>
100007d04: 09 00 80 52 	mov	w9, #0
100007d08: 03 00 80 d2 	mov	x3, #0
100007d0c: a8 2a 40 a9 	ldp	x8, x10, [x21]
100007d10: 0b 05 00 91 	add	x11, x8, #1
100007d14: 4c 05 00 d1 	sub	x12, x10, #1
100007d18: 6a 02 80 52 	mov	w10, #19
100007d1c: 09 00 00 14 	b	0x100007d40 <__ZN5gimli4read4unit15parse_attribute17h96019df6e63c0e7cE+0x538>
100007d20: ae 19 00 12 	and	w14, w13, #0x7f
100007d24: ce 21 c9 9a 	lsl	x14, x14, x9
100007d28: c3 01 03 aa 	orr	x3, x14, x3
100007d2c: 29 1d 00 11 	add	w9, w9, #7
100007d30: 08 05 00 91 	add	x8, x8, #1
100007d34: 6b 05 00 91 	add	x11, x11, #1
100007d38: 8c 05 00 d1 	sub	x12, x12, #1
100007d3c: 0d 36 38 36 	tbz	w13, #7, 0x1000083fc <__ZN5gimli4read4unit15parse_attribute17h96019df6e63c0e7cE+0xbf4>
100007d40: 9f 05 00 b1 	cmn	x12, #1
100007d44: 00 37 00 54 	b.eq	0x100008424 <__ZN5gimli4read4unit15parse_attribute17h96019df6e63c0e7cE+0xc1c>
100007d48: ab 32 00 a9 	stp	x11, x12, [x21]
100007d4c: 6d f1 5f 38 	ldurb	w13, [x11, #-1]
100007d50: 3f fd 00 71 	cmp	w9, #63
100007d54: 61 fe ff 54 	b.ne	0x100007d20 <__ZN5gimli4read4unit15parse_attribute17h96019df6e63c0e7cE+0x518>
100007d58: bf 05 00 71 	cmp	w13, #1
100007d5c: 29 fe ff 54 	b.ls	0x100007d20 <__ZN5gimli4read4unit15parse_attribute17h96019df6e63c0e7cE+0x518>
100007d60: e8 00 00 14 	b	0x100008100 <__ZN5gimli4read4unit15parse_attribute17h96019df6e63c0e7cE+0x8f8>
100007d64: 48 3c 08 53 	ubfx	w8, w2, #8, #8
100007d68: 1f 21 00 71 	cmp	w8, #8
100007d6c: 41 26 00 54 	b.ne	0x100008234 <__ZN5gimli4read4unit15parse_attribute17h96019df6e63c0e7cE+0xa2c>
100007d70: a8 26 40 a9 	ldp	x8, x9, [x21]
100007d74: 29 21 00 f1 	subs	x9, x9, #8
100007d78: c3 29 00 54 	b.lo	0x1000082b0 <__ZN5gimli4read4unit15parse_attribute17h96019df6e63c0e7cE+0xaa8>
100007d7c: 03 85 40 f8 	ldr	x3, [x8], #8
100007d80: 31 01 00 14 	b	0x100008244 <__ZN5gimli4read4unit15parse_attribute17h96019df6e63c0e7cE+0xa3c>
100007d84: 08 00 80 d2 	mov	x8, #0
100007d88: 0d 00 80 52 	mov	w13, #0
100007d8c: 0c 00 80 d2 	mov	x12, #0
100007d90: a9 2e 40 a9 	ldp	x9, x11, [x21]
100007d94: 0e 00 80 92 	mov	x14, #-1
100007d98: ca 00 80 52 	mov	w10, #6
100007d9c: 08 00 00 14 	b	0x100007dbc <__ZN5gimli4read4unit15parse_attribute17h96019df6e63c0e7cE+0x5b4>
100007da0: f0 19 00 12 	and	w16, w15, #0x7f
100007da4: 10 22 cd 9a 	lsl	x16, x16, x13
100007da8: 0c 02 0c aa 	orr	x12, x16, x12
100007dac: ad 1d 00 11 	add	w13, w13, #7
100007db0: 08 05 00 91 	add	x8, x8, #1
100007db4: ce 05 00 d1 	sub	x14, x14, #1
100007db8: cf 32 38 36 	tbz	w15, #7, 0x100008410 <__ZN5gimli4read4unit15parse_attribute17h96019df6e63c0e7cE+0xc08>
100007dbc: 7f 01 08 eb 	cmp	x11, x8
100007dc0: e0 32 00 54 	b.eq	0x10000841c <__ZN5gimli4read4unit15parse_attribute17h96019df6e63c0e7cE+0xc14>
100007dc4: 30 01 08 8b 	add	x16, x9, x8
100007dc8: 0f 16 40 38 	ldrb	w15, [x16], #1
100007dcc: 71 01 0e 8b 	add	x17, x11, x14
100007dd0: b0 46 00 a9 	stp	x16, x17, [x21]
100007dd4: bf fd 00 71 	cmp	w13, #63
100007dd8: 41 fe ff 54 	b.ne	0x100007da0 <__ZN5gimli4read4unit15parse_attribute17h96019df6e63c0e7cE+0x598>
100007ddc: ff 09 00 71 	cmp	w15, #2
100007de0: 03 fe ff 54 	b.lo	0x100007da0 <__ZN5gimli4read4unit15parse_attribute17h96019df6e63c0e7cE+0x598>
100007de4: 90 01 00 14 	b	0x100008424 <__ZN5gimli4read4unit15parse_attribute17h96019df6e63c0e7cE+0xc1c>
100007de8: 08 00 80 52 	mov	w8, #0
100007dec: 0b 00 80 52 	mov	w11, #0
100007df0: 09 00 80 d2 	mov	x9, #0
100007df4: 23 00 80 52 	mov	w3, #1
100007df8: 2a 01 80 52 	mov	w10, #9
100007dfc: dd 01 00 14 	b	0x100008570 <__ZN5gimli4read4unit15parse_attribute17h96019df6e63c0e7cE+0xd68>
100007e00: a8 26 40 a9 	ldp	x8, x9, [x21]
100007e04: 2a 11 00 f1 	subs	x10, x9, #4
100007e08: 43 25 00 54 	b.lo	0x1000082b0 <__ZN5gimli4read4unit15parse_attribute17h96019df6e63c0e7cE+0xaa8>
100007e0c: 09 00 80 d2 	mov	x9, #0
100007e10: 03 45 40 b8 	ldr	w3, [x8], #4
100007e14: a8 2a 00 a9 	stp	x8, x10, [x21]
100007e18: 68 3c 08 53 	ubfx	w8, w3, #8, #8
100007e1c: 6b 7c 10 53 	lsr	w11, w3, #16
100007e20: ea 01 80 52 	mov	w10, #15
100007e24: d3 01 00 14 	b	0x100008570 <__ZN5gimli4read4unit15parse_attribute17h96019df6e63c0e7cE+0xd68>
100007e28: a3 22 40 a9 	ldp	x3, x8, [x21]
100007e2c: 0a 41 00 f1 	subs	x10, x8, #16
100007e30: e3 2b 00 54 	b.lo	0x1000083ac <__ZN5gimli4read4unit15parse_attribute17h96019df6e63c0e7cE+0xba4>
100007e34: 6b 40 00 91 	add	x11, x3, #16
100007e38: 68 3c 08 53 	ubfx	w8, w3, #8, #8
100007e3c: 6d 7c 50 d3 	ubfx	x13, x3, #16, #16
100007e40: 69 7c 60 92 	and	x9, x3, #0xffffffff00000000
100007e44: ab 2a 00 a9 	stp	x11, x10, [x21]
100007e48: 2a 00 80 52 	mov	w10, #1
100007e4c: 0c 02 80 52 	mov	w12, #16
100007e50: eb 03 0d aa 	mov	x11, x13
100007e54: c7 01 00 14 	b	0x100008570 <__ZN5gimli4read4unit15parse_attribute17h96019df6e63c0e7cE+0xd68>
100007e58: 48 3c 08 53 	ubfx	w8, w2, #8, #8
100007e5c: 1f 21 00 71 	cmp	w8, #8
100007e60: e1 1f 00 54 	b.ne	0x10000825c <__ZN5gimli4read4unit15parse_attribute17h96019df6e63c0e7cE+0xa54>
100007e64: a8 26 40 a9 	ldp	x8, x9, [x21]
100007e68: 29 21 00 f1 	subs	x9, x9, #8
100007e6c: 23 22 00 54 	b.lo	0x1000082b0 <__ZN5gimli4read4unit15parse_attribute17h96019df6e63c0e7cE+0xaa8>
100007e70: 03 85 40 f8 	ldr	x3, [x8], #8
100007e74: fe 00 00 14 	b	0x10000826c <__ZN5gimli4read4unit15parse_attribute17h96019df6e63c0e7cE+0xa64>
100007e78: a9 22 40 a9 	ldp	x9, x8, [x21]
100007e7c: 0a 21 00 f1 	subs	x10, x8, #8
100007e80: 63 05 00 54 	b.lo	0x100007f2c <__ZN5gimli4read4unit15parse_attribute17h96019df6e63c0e7cE+0x724>
100007e84: 23 85 40 f8 	ldr	x3, [x9], #8
100007e88: 68 3c 08 53 	ubfx	w8, w3, #8, #8
100007e8c: 6b 7c 50 d3 	ubfx	x11, x3, #16, #16
100007e90: a9 2a 00 a9 	stp	x9, x10, [x21]
100007e94: 69 7c 60 92 	and	x9, x3, #0xffffffff00000000
100007e98: 2a 03 80 52 	mov	w10, #25
100007e9c: b5 01 00 14 	b	0x100008570 <__ZN5gimli4read4unit15parse_attribute17h96019df6e63c0e7cE+0xd68>
100007ea0: a8 3c 00 12 	and	w8, w5, #0xffff
100007ea4: 1f 85 00 71 	cmp	w8, #33
100007ea8: e1 1e 00 54 	b.ne	0x100008284 <__ZN5gimli4read4unit15parse_attribute17h96019df6e63c0e7cE+0xa7c>
100007eac: 68 3c 08 53 	ubfx	w8, w3, #8, #8
100007eb0: 6b 7c 50 d3 	ubfx	x11, x3, #16, #16
100007eb4: 69 7c 60 92 	and	x9, x3, #0xffffffff00000000
100007eb8: ca 00 80 52 	mov	w10, #6
100007ebc: ad 01 00 14 	b	0x100008570 <__ZN5gimli4read4unit15parse_attribute17h96019df6e63c0e7cE+0xd68>
100007ec0: 09 00 80 52 	mov	w9, #0
100007ec4: 03 00 80 d2 	mov	x3, #0
100007ec8: a8 2a 40 a9 	ldp	x8, x10, [x21]
100007ecc: 0b 05 00 91 	add	x11, x8, #1
100007ed0: 4c 05 00 d1 	sub	x12, x10, #1
100007ed4: 6a 02 80 52 	mov	w10, #19
100007ed8: 09 00 00 14 	b	0x100007efc <__ZN5gimli4read4unit15parse_attribute17h96019df6e63c0e7cE+0x6f4>
100007edc: ae 19 00 12 	and	w14, w13, #0x7f
100007ee0: ce 21 c9 9a 	lsl	x14, x14, x9
100007ee4: c3 01 03 aa 	orr	x3, x14, x3
100007ee8: 29 1d 00 11 	add	w9, w9, #7
100007eec: 08 05 00 91 	add	x8, x8, #1
100007ef0: 6b 05 00 91 	add	x11, x11, #1
100007ef4: 8c 05 00 d1 	sub	x12, x12, #1
100007ef8: 6d 2a 38 36 	tbz	w13, #7, 0x100008444 <__ZN5gimli4read4unit15parse_attribute17h96019df6e63c0e7cE+0xc3c>
100007efc: 9f 05 00 b1 	cmn	x12, #1
100007f00: 20 29 00 54 	b.eq	0x100008424 <__ZN5gimli4read4unit15parse_attribute17h96019df6e63c0e7cE+0xc1c>
100007f04: ab 32 00 a9 	stp	x11, x12, [x21]
100007f08: 6d f1 5f 38 	ldurb	w13, [x11, #-1]
100007f0c: 3f fd 00 71 	cmp	w9, #63
100007f10: 61 fe ff 54 	b.ne	0x100007edc <__ZN5gimli4read4unit15parse_attribute17h96019df6e63c0e7cE+0x6d4>
100007f14: bf 05 00 71 	cmp	w13, #1
100007f18: 29 fe ff 54 	b.ls	0x100007edc <__ZN5gimli4read4unit15parse_attribute17h96019df6e63c0e7cE+0x6d4>
100007f1c: 79 00 00 14 	b	0x100008100 <__ZN5gimli4read4unit15parse_attribute17h96019df6e63c0e7cE+0x8f8>
100007f20: a9 22 40 a9 	ldp	x9, x8, [x21]
100007f24: 0a 21 00 f1 	subs	x10, x8, #8
100007f28: 42 1b 00 54 	b.hs	0x100008290 <__ZN5gimli4read4unit15parse_attribute17h96019df6e63c0e7cE+0xa88>
100007f2c: 68 02 80 52 	mov	w8, #19
100007f30: 68 a6 00 a9 	stp	x8, x9, [x19, #8]
100007f34: 3d 01 00 14 	b	0x100008428 <__ZN5gimli4read4unit15parse_attribute17h96019df6e63c0e7cE+0xc20>
100007f38: aa 32 40 a9 	ldp	x10, x12, [x21]
100007f3c: ec 04 00 b4 	cbz	x12, 0x100007fd8 <__ZN5gimli4read4unit15parse_attribute17h96019df6e63c0e7cE+0x7d0>
100007f40: 08 00 80 52 	mov	w8, #0
100007f44: 0b 00 80 52 	mov	w11, #0
100007f48: 09 00 80 d2 	mov	x9, #0
100007f4c: 43 15 40 38 	ldrb	w3, [x10], #1
100007f50: 8c 05 00 d1 	sub	x12, x12, #1
100007f54: aa 32 00 a9 	stp	x10, x12, [x21]
100007f58: aa 03 80 52 	mov	w10, #29
100007f5c: 85 01 00 14 	b	0x100008570 <__ZN5gimli4read4unit15parse_attribute17h96019df6e63c0e7cE+0xd68>
100007f60: a8 26 40 a9 	ldp	x8, x9, [x21]
100007f64: 2a 0d 00 f1 	subs	x10, x9, #3
100007f68: 43 1a 00 54 	b.lo	0x1000082b0 <__ZN5gimli4read4unit15parse_attribute17h96019df6e63c0e7cE+0xaa8>
100007f6c: 09 00 80 d2 	mov	x9, #0
100007f70: 0b 0d 00 91 	add	x11, x8, #3
100007f74: ab 2a 00 a9 	stp	x11, x10, [x21]
100007f78: 0a 09 40 39 	ldrb	w10, [x8, #2]
100007f7c: 03 01 40 79 	ldrh	w3, [x8]
100007f80: 43 1d 10 33 	bfi	w3, w10, #16, #8
100007f84: 07 00 00 14 	b	0x100007fa0 <__ZN5gimli4read4unit15parse_attribute17h96019df6e63c0e7cE+0x798>
100007f88: a8 26 40 a9 	ldp	x8, x9, [x21]
100007f8c: 2a 11 00 f1 	subs	x10, x9, #4
100007f90: 03 19 00 54 	b.lo	0x1000082b0 <__ZN5gimli4read4unit15parse_attribute17h96019df6e63c0e7cE+0xaa8>
100007f94: 09 00 80 d2 	mov	x9, #0
100007f98: 03 45 40 b8 	ldr	w3, [x8], #4
100007f9c: a8 2a 00 a9 	stp	x8, x10, [x21]
100007fa0: 68 3c 08 53 	ubfx	w8, w3, #8, #8
100007fa4: 6b 7c 10 53 	lsr	w11, w3, #16
100007fa8: aa 03 80 52 	mov	w10, #29
100007fac: 71 01 00 14 	b	0x100008570 <__ZN5gimli4read4unit15parse_attribute17h96019df6e63c0e7cE+0xd68>
100007fb0: aa 32 40 a9 	ldp	x10, x12, [x21]
100007fb4: 2c 01 00 b4 	cbz	x12, 0x100007fd8 <__ZN5gimli4read4unit15parse_attribute17h96019df6e63c0e7cE+0x7d0>
100007fb8: 08 00 80 52 	mov	w8, #0
100007fbc: 0b 00 80 52 	mov	w11, #0
100007fc0: 09 00 80 d2 	mov	x9, #0
100007fc4: 43 15 40 38 	ldrb	w3, [x10], #1
100007fc8: 8c 05 00 d1 	sub	x12, x12, #1
100007fcc: aa 32 00 a9 	stp	x10, x12, [x21]
100007fd0: 8a 01 80 52 	mov	w10, #12
100007fd4: 67 01 00 14 	b	0x100008570 <__ZN5gimli4read4unit15parse_attribute17h96019df6e63c0e7cE+0xd68>
100007fd8: 68 02 80 52 	mov	w8, #19
100007fdc: 68 aa 00 a9 	stp	x8, x10, [x19, #8]
100007fe0: 12 01 00 14 	b	0x100008428 <__ZN5gimli4read4unit15parse_attribute17h96019df6e63c0e7cE+0xc20>
100007fe4: a8 26 40 a9 	ldp	x8, x9, [x21]
100007fe8: 2a 09 00 f1 	subs	x10, x9, #2
100007fec: 23 16 00 54 	b.lo	0x1000082b0 <__ZN5gimli4read4unit15parse_attribute17h96019df6e63c0e7cE+0xaa8>
100007ff0: 0b 00 80 52 	mov	w11, #0
100007ff4: 09 00 80 d2 	mov	x9, #0
100007ff8: 03 25 40 78 	ldrh	w3, [x8], #2
100007ffc: a8 2a 00 a9 	stp	x8, x10, [x21]
100008000: 68 7c 08 53 	lsr	w8, w3, #8
100008004: 8a 01 80 52 	mov	w10, #12
100008008: 5a 01 00 14 	b	0x100008570 <__ZN5gimli4read4unit15parse_attribute17h96019df6e63c0e7cE+0xd68>
10000800c: a8 26 40 a9 	ldp	x8, x9, [x21]
100008010: 2a 0d 00 f1 	subs	x10, x9, #3
100008014: e3 14 00 54 	b.lo	0x1000082b0 <__ZN5gimli4read4unit15parse_attribute17h96019df6e63c0e7cE+0xaa8>
100008018: 09 00 80 d2 	mov	x9, #0
10000801c: 0b 0d 00 91 	add	x11, x8, #3
100008020: ab 2a 00 a9 	stp	x11, x10, [x21]
100008024: 0a 09 40 39 	ldrb	w10, [x8, #2]
100008028: 03 01 40 79 	ldrh	w3, [x8]
10000802c: 43 1d 10 33 	bfi	w3, w10, #16, #8
100008030: 07 00 00 14 	b	0x10000804c <__ZN5gimli4read4unit15parse_attribute17h96019df6e63c0e7cE+0x844>
100008034: a8 26 40 a9 	ldp	x8, x9, [x21]
100008038: 2a 11 00 f1 	subs	x10, x9, #4
10000803c: a3 13 00 54 	b.lo	0x1000082b0 <__ZN5gimli4read4unit15parse_attribute17h96019df6e63c0e7cE+0xaa8>
100008040: 09 00 80 d2 	mov	x9, #0
100008044: 03 45 40 b8 	ldr	w3, [x8], #4
100008048: a8 2a 00 a9 	stp	x8, x10, [x21]
10000804c: 68 3c 08 53 	ubfx	w8, w3, #8, #8
100008050: 6b 7c 10 53 	lsr	w11, w3, #16
100008054: 8a 01 80 52 	mov	w10, #12
100008058: 46 01 00 14 	b	0x100008570 <__ZN5gimli4read4unit15parse_attribute17h96019df6e63c0e7cE+0xd68>
10000805c: 48 3c 08 53 	ubfx	w8, w2, #8, #8
100008060: 1f 21 00 71 	cmp	w8, #8
100008064: 01 12 00 54 	b.ne	0x1000082a4 <__ZN5gimli4read4unit15parse_attribute17h96019df6e63c0e7cE+0xa9c>
100008068: a8 26 40 a9 	ldp	x8, x9, [x21]
10000806c: 29 21 00 f1 	subs	x9, x9, #8
100008070: 03 12 00 54 	b.lo	0x1000082b0 <__ZN5gimli4read4unit15parse_attribute17h96019df6e63c0e7cE+0xaa8>
100008074: 03 85 40 f8 	ldr	x3, [x8], #8
100008078: fe 00 00 14 	b	0x100008470 <__ZN5gimli4read4unit15parse_attribute17h96019df6e63c0e7cE+0xc68>
10000807c: a8 26 40 a9 	ldp	x8, x9, [x21]
100008080: 29 11 00 f1 	subs	x9, x9, #4
100008084: 63 11 00 54 	b.lo	0x1000082b0 <__ZN5gimli4read4unit15parse_attribute17h96019df6e63c0e7cE+0xaa8>
100008088: 03 45 40 b8 	ldr	w3, [x8], #4
10000808c: a8 26 00 a9 	stp	x8, x9, [x21]
100008090: 68 3c 08 53 	ubfx	w8, w3, #8, #8
100008094: 6b 7c 50 d3 	ubfx	x11, x3, #16, #16
100008098: 69 7c 60 92 	and	x9, x3, #0xffffffff00000000
10000809c: 6a 03 80 52 	mov	w10, #27
1000080a0: 34 01 00 14 	b	0x100008570 <__ZN5gimli4read4unit15parse_attribute17h96019df6e63c0e7cE+0xd68>
1000080a4: 09 00 80 52 	mov	w9, #0
1000080a8: 03 00 80 d2 	mov	x3, #0
1000080ac: a8 2a 40 a9 	ldp	x8, x10, [x21]
1000080b0: 0b 05 00 91 	add	x11, x8, #1
1000080b4: 4c 05 00 d1 	sub	x12, x10, #1
1000080b8: 6a 02 80 52 	mov	w10, #19
1000080bc: 09 00 00 14 	b	0x1000080e0 <__ZN5gimli4read4unit15parse_attribute17h96019df6e63c0e7cE+0x8d8>
1000080c0: ae 19 00 12 	and	w14, w13, #0x7f
1000080c4: ce 21 c9 9a 	lsl	x14, x14, x9
1000080c8: c3 01 03 aa 	orr	x3, x14, x3
1000080cc: 29 1d 00 11 	add	w9, w9, #7
1000080d0: 08 05 00 91 	add	x8, x8, #1
1000080d4: 6b 05 00 91 	add	x11, x11, #1
1000080d8: 8c 05 00 d1 	sub	x12, x12, #1
1000080dc: ed 1b 38 36 	tbz	w13, #7, 0x100008458 <__ZN5gimli4read4unit15parse_attribute17h96019df6e63c0e7cE+0xc50>
1000080e0: 9f 05 00 b1 	cmn	x12, #1
1000080e4: 00 1a 00 54 	b.eq	0x100008424 <__ZN5gimli4read4unit15parse_attribute17h96019df6e63c0e7cE+0xc1c>
1000080e8: ab 32 00 a9 	stp	x11, x12, [x21]
1000080ec: 6d f1 5f 38 	ldurb	w13, [x11, #-1]
1000080f0: 3f fd 00 71 	cmp	w9, #63
1000080f4: 61 fe ff 54 	b.ne	0x1000080c0 <__ZN5gimli4read4unit15parse_attribute17h96019df6e63c0e7cE+0x8b8>
1000080f8: bf 05 00 71 	cmp	w13, #1
1000080fc: 29 fe ff 54 	b.ls	0x1000080c0 <__ZN5gimli4read4unit15parse_attribute17h96019df6e63c0e7cE+0x8b8>
100008100: ca 00 80 52 	mov	w10, #6
100008104: c8 00 00 14 	b	0x100008424 <__ZN5gimli4read4unit15parse_attribute17h96019df6e63c0e7cE+0xc1c>
100008108: a8 26 40 a9 	ldp	x8, x9, [x21]
10000810c: 2a 09 00 f1 	subs	x10, x9, #2
100008110: 03 0d 00 54 	b.lo	0x1000082b0 <__ZN5gimli4read4unit15parse_attribute17h96019df6e63c0e7cE+0xaa8>
100008114: 0b 00 80 52 	mov	w11, #0
100008118: 09 00 80 d2 	mov	x9, #0
10000811c: 03 25 40 78 	ldrh	w3, [x8], #2
100008120: a8 2a 00 a9 	stp	x8, x10, [x21]
100008124: 68 7c 08 53 	lsr	w8, w3, #8
100008128: aa 03 80 52 	mov	w10, #29
10000812c: 11 01 00 14 	b	0x100008570 <__ZN5gimli4read4unit15parse_attribute17h96019df6e63c0e7cE+0xd68>
100008130: 69 02 80 52 	mov	w9, #19
100008134: 69 22 00 39 	strb	w9, [x19, #8]
100008138: 88 00 00 14 	b	0x100008358 <__ZN5gimli4read4unit15parse_attribute17h96019df6e63c0e7cE+0xb50>
10000813c: 88 01 80 52 	mov	w8, #12
100008140: 68 22 00 39 	strb	w8, [x19, #8]
100008144: b9 00 00 14 	b	0x100008428 <__ZN5gimli4read4unit15parse_attribute17h96019df6e63c0e7cE+0xc20>
100008148: a8 26 40 a9 	ldp	x8, x9, [x21]
10000814c: 29 11 00 f1 	subs	x9, x9, #4
100008150: a2 0e 00 54 	b.hs	0x100008324 <__ZN5gimli4read4unit15parse_attribute17h96019df6e63c0e7cE+0xb1c>
100008154: 03 00 80 52 	mov	w3, #0
100008158: 69 02 80 52 	mov	w9, #19
10000815c: 76 00 00 14 	b	0x100008334 <__ZN5gimli4read4unit15parse_attribute17h96019df6e63c0e7cE+0xb2c>
100008160: a8 26 40 a9 	ldp	x8, x9, [x21]
100008164: 3f 21 00 f1 	cmp	x9, #8
100008168: 43 0a 00 54 	b.lo	0x1000082b0 <__ZN5gimli4read4unit15parse_attribute17h96019df6e63c0e7cE+0xaa8>
10000816c: aa 00 80 52 	mov	w10, #5
100008170: 0b 21 00 91 	add	x11, x8, #8
100008174: 29 21 00 d1 	sub	x9, x9, #8
100008178: ab 26 00 a9 	stp	x11, x9, [x21]
10000817c: 03 01 40 f9 	ldr	x3, [x8]
100008180: 69 7c 60 92 	and	x9, x3, #0xffffffff00000000
100008184: 68 3c 08 53 	ubfx	w8, w3, #8, #8
100008188: 6b 7c 50 d3 	ubfx	x11, x3, #16, #16
10000818c: f9 00 00 14 	b	0x100008570 <__ZN5gimli4read4unit15parse_attribute17h96019df6e63c0e7cE+0xd68>
100008190: 68 3c 08 53 	ubfx	w8, w3, #8, #8
100008194: 6b 7c 50 d3 	ubfx	x11, x3, #16, #16
100008198: 69 7c 60 92 	and	x9, x3, #0xffffffff00000000
10000819c: 8a 01 80 52 	mov	w10, #12
1000081a0: f4 00 00 14 	b	0x100008570 <__ZN5gimli4read4unit15parse_attribute17h96019df6e63c0e7cE+0xd68>
1000081a4: 68 3c 08 53 	ubfx	w8, w3, #8, #8
1000081a8: 6b 7c 50 d3 	ubfx	x11, x3, #16, #16
1000081ac: 69 7c 60 92 	and	x9, x3, #0xffffffff00000000
1000081b0: aa 03 80 52 	mov	w10, #29
1000081b4: ef 00 00 14 	b	0x100008570 <__ZN5gimli4read4unit15parse_attribute17h96019df6e63c0e7cE+0xd68>
1000081b8: 03 25 40 78 	ldrh	w3, [x8], #2
1000081bc: a8 26 00 a9 	stp	x8, x9, [x21]
1000081c0: e9 08 80 52 	mov	w9, #71
1000081c4: 08 00 80 d2 	mov	x8, #0
1000081c8: 2a 1d 00 12 	and	w10, w9, #0xff
1000081cc: 5f 1d 01 71 	cmp	w10, #71
1000081d0: 21 0c 00 54 	b.ne	0x100008354 <__ZN5gimli4read4unit15parse_attribute17h96019df6e63c0e7cE+0xb4c>
1000081d4: 0b 00 80 52 	mov	w11, #0
1000081d8: 09 00 80 d2 	mov	x9, #0
1000081dc: 68 7c 08 53 	lsr	w8, w3, #8
1000081e0: 6a 00 80 52 	mov	w10, #3
1000081e4: e3 00 00 14 	b	0x100008570 <__ZN5gimli4read4unit15parse_attribute17h96019df6e63c0e7cE+0xd68>
1000081e8: a8 26 40 a9 	ldp	x8, x9, [x21]
1000081ec: 29 11 00 f1 	subs	x9, x9, #4
1000081f0: 03 06 00 54 	b.lo	0x1000082b0 <__ZN5gimli4read4unit15parse_attribute17h96019df6e63c0e7cE+0xaa8>
1000081f4: 03 45 40 b8 	ldr	w3, [x8], #4
1000081f8: a8 26 00 a9 	stp	x8, x9, [x21]
1000081fc: 68 3c 08 53 	ubfx	w8, w3, #8, #8
100008200: 6b 7c 50 d3 	ubfx	x11, x3, #16, #16
100008204: 69 7c 60 92 	and	x9, x3, #0xffffffff00000000
100008208: 4a 03 80 52 	mov	w10, #26
10000820c: d9 00 00 14 	b	0x100008570 <__ZN5gimli4read4unit15parse_attribute17h96019df6e63c0e7cE+0xd68>
100008210: 42 7c 08 53 	lsr	w2, w2, #8
100008214: e0 23 00 91 	add	x0, sp, #8
100008218: e1 03 15 aa 	mov	x1, x21
10000821c: ed 02 00 94 	bl	0x100008dd0 <__ZN5gimli4read6reader6Reader11read_offset17h301d6424ee2ff1d2E>
100008220: e8 8f 40 a9 	ldp	x8, x3, [sp, #8]
100008224: 08 0b 00 b4 	cbz	x8, 0x100008384 <__ZN5gimli4read4unit15parse_attribute17h96019df6e63c0e7cE+0xb7c>
100008228: e8 0f 40 f9 	ldr	x8, [sp, #24]
10000822c: 63 a2 00 a9 	stp	x3, x8, [x19, #8]
100008230: 7e 00 00 14 	b	0x100008428 <__ZN5gimli4read4unit15parse_attribute17h96019df6e63c0e7cE+0xc20>
100008234: a8 26 40 a9 	ldp	x8, x9, [x21]
100008238: 29 11 00 f1 	subs	x9, x9, #4
10000823c: a3 03 00 54 	b.lo	0x1000082b0 <__ZN5gimli4read4unit15parse_attribute17h96019df6e63c0e7cE+0xaa8>
100008240: 03 45 40 b8 	ldr	w3, [x8], #4
100008244: a8 26 00 a9 	stp	x8, x9, [x21]
100008248: 68 3c 08 53 	ubfx	w8, w3, #8, #8
10000824c: 6b 7c 50 d3 	ubfx	x11, x3, #16, #16
100008250: 69 7c 60 92 	and	x9, x3, #0xffffffff00000000
100008254: 4a 01 80 52 	mov	w10, #10
100008258: c6 00 00 14 	b	0x100008570 <__ZN5gimli4read4unit15parse_attribute17h96019df6e63c0e7cE+0xd68>
10000825c: a8 26 40 a9 	ldp	x8, x9, [x21]
100008260: 29 11 00 f1 	subs	x9, x9, #4
100008264: 63 02 00 54 	b.lo	0x1000082b0 <__ZN5gimli4read4unit15parse_attribute17h96019df6e63c0e7cE+0xaa8>
100008268: 03 45 40 b8 	ldr	w3, [x8], #4
10000826c: a8 26 00 a9 	stp	x8, x9, [x21]
100008270: 68 3c 08 53 	ubfx	w8, w3, #8, #8
100008274: 6b 7c 50 d3 	ubfx	x11, x3, #16, #16
100008278: 69 7c 60 92 	and	x9, x3, #0xffffffff00000000
10000827c: ca 03 80 52 	mov	w10, #30
100008280: bc 00 00 14 	b	0x100008570 <__ZN5gimli4read4unit15parse_attribute17h96019df6e63c0e7cE+0xd68>
100008284: c8 08 80 52 	mov	w8, #70
100008288: 68 06 00 f9 	str	x8, [x19, #8]
10000828c: 67 00 00 14 	b	0x100008428 <__ZN5gimli4read4unit15parse_attribute17h96019df6e63c0e7cE+0xc20>
100008290: 23 85 40 f8 	ldr	x3, [x9], #8
100008294: 68 3c 08 53 	ubfx	w8, w3, #8, #8
100008298: 6b 7c 50 d3 	ubfx	x11, x3, #16, #16
10000829c: a9 2a 00 a9 	stp	x9, x10, [x21]
1000082a0: 77 00 00 14 	b	0x10000847c <__ZN5gimli4read4unit15parse_attribute17h96019df6e63c0e7cE+0xc74>
1000082a4: a8 26 40 a9 	ldp	x8, x9, [x21]
1000082a8: 29 11 00 f1 	subs	x9, x9, #4
1000082ac: 02 0e 00 54 	b.hs	0x10000846c <__ZN5gimli4read4unit15parse_attribute17h96019df6e63c0e7cE+0xc64>
1000082b0: 69 02 80 52 	mov	w9, #19
1000082b4: 69 a2 00 a9 	stp	x9, x8, [x19, #8]
1000082b8: 5c 00 00 14 	b	0x100008428 <__ZN5gimli4read4unit15parse_attribute17h96019df6e63c0e7cE+0xc20>
1000082bc: 69 02 80 52 	mov	w9, #19
1000082c0: e8 03 0c aa 	mov	x8, x12
1000082c4: 69 22 00 39 	strb	w9, [x19, #8]
1000082c8: 24 00 00 14 	b	0x100008358 <__ZN5gimli4read4unit15parse_attribute17h96019df6e63c0e7cE+0xb50>
1000082cc: 03 00 80 52 	mov	w3, #0
1000082d0: 69 02 80 52 	mov	w9, #19
1000082d4: 2a 1d 00 12 	and	w10, w9, #0xff
1000082d8: 5f 1d 01 71 	cmp	w10, #71
1000082dc: c1 03 00 54 	b.ne	0x100008354 <__ZN5gimli4read4unit15parse_attribute17h96019df6e63c0e7cE+0xb4c>
1000082e0: 08 00 80 52 	mov	w8, #0
1000082e4: 0b 00 80 52 	mov	w11, #0
1000082e8: 09 00 80 d2 	mov	x9, #0
1000082ec: 4a 00 80 52 	mov	w10, #2
1000082f0: a0 00 00 14 	b	0x100008570 <__ZN5gimli4read4unit15parse_attribute17h96019df6e63c0e7cE+0xd68>
1000082f4: 0a 00 80 52 	mov	w10, #0
1000082f8: 69 02 80 52 	mov	w9, #19
1000082fc: 2b 1d 00 12 	and	w11, w9, #0xff
100008300: 7f 1d 01 71 	cmp	w11, #71
100008304: 81 02 00 54 	b.ne	0x100008354 <__ZN5gimli4read4unit15parse_attribute17h96019df6e63c0e7cE+0xb4c>
100008308: 08 00 80 52 	mov	w8, #0
10000830c: 0b 00 80 52 	mov	w11, #0
100008310: 09 00 80 d2 	mov	x9, #0
100008314: 5f 01 00 71 	cmp	w10, #0
100008318: e3 07 9f 1a 	cset	w3, ne
10000831c: 2a 01 80 52 	mov	w10, #9
100008320: 94 00 00 14 	b	0x100008570 <__ZN5gimli4read4unit15parse_attribute17h96019df6e63c0e7cE+0xd68>
100008324: 03 45 40 b8 	ldr	w3, [x8], #4
100008328: a8 26 00 a9 	stp	x8, x9, [x21]
10000832c: e9 08 80 52 	mov	w9, #71
100008330: 08 00 80 d2 	mov	x8, #0
100008334: 2a 1d 00 12 	and	w10, w9, #0xff
100008338: 5f 1d 01 71 	cmp	w10, #71
10000833c: c1 00 00 54 	b.ne	0x100008354 <__ZN5gimli4read4unit15parse_attribute17h96019df6e63c0e7cE+0xb4c>
100008340: 8a 00 80 52 	mov	w10, #4
100008344: 09 00 80 d2 	mov	x9, #0
100008348: 68 3c 08 53 	ubfx	w8, w3, #8, #8
10000834c: 6b 7c 10 53 	lsr	w11, w3, #16
100008350: 88 00 00 14 	b	0x100008570 <__ZN5gimli4read4unit15parse_attribute17h96019df6e63c0e7cE+0xd68>
100008354: 69 22 00 39 	strb	w9, [x19, #8]
100008358: 7f 3e 00 39 	strb	wzr, [x19, #15]
10000835c: 7f d2 00 78 	sturh	wzr, [x19, #13]
100008360: 7f 92 00 b8 	stur	wzr, [x19, #9]
100008364: 2d 00 80 52 	mov	w13, #1
100008368: 68 0a 00 f9 	str	x8, [x19, #16]
10000836c: 6d 02 00 f9 	str	x13, [x19]
100008370: fd 7b 44 a9 	ldp	x29, x30, [sp, #64]
100008374: f4 4f 43 a9 	ldp	x20, x19, [sp, #48]
100008378: f6 57 42 a9 	ldp	x22, x21, [sp, #32]
10000837c: ff 43 01 91 	add	sp, sp, #80
100008380: c0 03 5f d6 	ret
100008384: 68 3c 08 53 	ubfx	w8, w3, #8, #8
100008388: 6b 7c 50 d3 	ubfx	x11, x3, #16, #16
10000838c: 69 7c 60 92 	and	x9, x3, #0xffffffff00000000
100008390: ca 01 80 52 	mov	w10, #14
100008394: 77 00 00 14 	b	0x100008570 <__ZN5gimli4read4unit15parse_attribute17h96019df6e63c0e7cE+0xd68>
100008398: 69 00 0c 8b 	add	x9, x3, x12
10000839c: 0a 01 0c eb 	subs	x10, x8, x12
1000083a0: a9 2a 00 a9 	stp	x9, x10, [x21]
1000083a4: e1 09 00 54 	b.ne	0x1000084e0 <__ZN5gimli4read4unit15parse_attribute17h96019df6e63c0e7cE+0xcd8>
1000083a8: e3 03 09 aa 	mov	x3, x9
1000083ac: 68 02 80 52 	mov	w8, #19
1000083b0: 68 8e 00 a9 	stp	x8, x3, [x19, #8]
1000083b4: 1d 00 00 14 	b	0x100008428 <__ZN5gimli4read4unit15parse_attribute17h96019df6e63c0e7cE+0xc20>
1000083b8: 6a 01 08 cb 	sub	x10, x11, x8
1000083bc: 5f 01 0c eb 	cmp	x10, x12
1000083c0: e3 02 00 54 	b.lo	0x10000841c <__ZN5gimli4read4unit15parse_attribute17h96019df6e63c0e7cE+0xc14>
1000083c4: 8a 01 08 8b 	add	x10, x12, x8
1000083c8: 2a 01 0a 8b 	add	x10, x9, x10
1000083cc: 6b 01 0c cb 	sub	x11, x11, x12
1000083d0: 6b 01 08 cb 	sub	x11, x11, x8
1000083d4: aa 2e 00 a9 	stp	x10, x11, [x21]
1000083d8: 23 01 08 8b 	add	x3, x9, x8
1000083dc: 68 3c 08 53 	ubfx	w8, w3, #8, #8
1000083e0: 6b 7c 50 d3 	ubfx	x11, x3, #16, #16
1000083e4: e1 fd ff 17 	b	0x100007b68 <__ZN5gimli4read4unit15parse_attribute17h96019df6e63c0e7cE+0x360>
1000083e8: 68 3c 08 53 	ubfx	w8, w3, #8, #8
1000083ec: 6b 7c 50 d3 	ubfx	x11, x3, #16, #16
1000083f0: 69 7c 60 92 	and	x9, x3, #0xffffffff00000000
1000083f4: ea 00 80 52 	mov	w10, #7
1000083f8: 5e 00 00 14 	b	0x100008570 <__ZN5gimli4read4unit15parse_attribute17h96019df6e63c0e7cE+0xd68>
1000083fc: 68 3c 08 53 	ubfx	w8, w3, #8, #8
100008400: 6b 7c 50 d3 	ubfx	x11, x3, #16, #16
100008404: 69 7c 60 92 	and	x9, x3, #0xffffffff00000000
100008408: aa 01 80 52 	mov	w10, #13
10000840c: 59 00 00 14 	b	0x100008570 <__ZN5gimli4read4unit15parse_attribute17h96019df6e63c0e7cE+0xd68>
100008410: 6a 01 08 cb 	sub	x10, x11, x8
100008414: 5f 01 0c eb 	cmp	x10, x12
100008418: 62 07 00 54 	b.hs	0x100008504 <__ZN5gimli4read4unit15parse_attribute17h96019df6e63c0e7cE+0xcfc>
10000841c: 28 01 08 8b 	add	x8, x9, x8
100008420: 6a 02 80 52 	mov	w10, #19
100008424: 6a a2 00 a9 	stp	x10, x8, [x19, #8]
100008428: 2d 00 80 52 	mov	w13, #1
10000842c: 6d 02 00 f9 	str	x13, [x19]
100008430: fd 7b 44 a9 	ldp	x29, x30, [sp, #64]
100008434: f4 4f 43 a9 	ldp	x20, x19, [sp, #48]
100008438: f6 57 42 a9 	ldp	x22, x21, [sp, #32]
10000843c: ff 43 01 91 	add	sp, sp, #80
100008440: c0 03 5f d6 	ret
100008444: 68 fc 48 d3 	lsr	x8, x3, #8
100008448: 6b fc 50 d3 	lsr	x11, x3, #16
10000844c: 69 7c 60 92 	and	x9, x3, #0xffffffff00000000
100008450: 0a 03 80 52 	mov	w10, #24
100008454: 47 00 00 14 	b	0x100008570 <__ZN5gimli4read4unit15parse_attribute17h96019df6e63c0e7cE+0xd68>
100008458: 68 3c 08 53 	ubfx	w8, w3, #8, #8
10000845c: 6b 7c 50 d3 	ubfx	x11, x3, #16, #16
100008460: 69 7c 60 92 	and	x9, x3, #0xffffffff00000000
100008464: 6a 02 80 52 	mov	w10, #19
100008468: 42 00 00 14 	b	0x100008570 <__ZN5gimli4read4unit15parse_attribute17h96019df6e63c0e7cE+0xd68>
10000846c: 03 45 40 b8 	ldr	w3, [x8], #4
100008470: a8 26 00 a9 	stp	x8, x9, [x21]
100008474: 68 3c 08 53 	ubfx	w8, w3, #8, #8
100008478: 6b 7c 50 d3 	ubfx	x11, x3, #16, #16
10000847c: 69 7c 60 92 	and	x9, x3, #0xffffffff00000000
100008480: ea 01 80 52 	mov	w10, #15
100008484: 3b 00 00 14 	b	0x100008570 <__ZN5gimli4read4unit15parse_attribute17h96019df6e63c0e7cE+0xd68>
100008488: a8 26 40 a9 	ldp	x8, x9, [x21]
10000848c: 2a 09 00 f1 	subs	x10, x9, #2
100008490: 23 02 00 54 	b.lo	0x1000084d4 <__ZN5gimli4read4unit15parse_attribute17h96019df6e63c0e7cE+0xccc>
100008494: 09 00 80 d2 	mov	x9, #0
100008498: 03 25 40 78 	ldrh	w3, [x8], #2
10000849c: a8 2a 00 a9 	stp	x8, x10, [x21]
1000084a0: 6b 1c 78 92 	and	x11, x3, #0xff00
1000084a4: 2d 00 00 14 	b	0x100008558 <__ZN5gimli4read4unit15parse_attribute17h96019df6e63c0e7cE+0xd50>
1000084a8: a8 26 40 a9 	ldp	x8, x9, [x21]
1000084ac: 29 11 00 f1 	subs	x9, x9, #4
1000084b0: 23 01 00 54 	b.lo	0x1000084d4 <__ZN5gimli4read4unit15parse_attribute17h96019df6e63c0e7cE+0xccc>
1000084b4: 03 45 40 b8 	ldr	w3, [x8], #4
1000084b8: a8 26 00 a9 	stp	x8, x9, [x21]
1000084bc: 6b 5c 78 92 	and	x11, x3, #0xffffff00
1000084c0: 69 3c 70 92 	and	x9, x3, #0xffff0000
1000084c4: 25 00 00 14 	b	0x100008558 <__ZN5gimli4read4unit15parse_attribute17h96019df6e63c0e7cE+0xd50>
1000084c8: a8 26 40 a9 	ldp	x8, x9, [x21]
1000084cc: 29 21 00 f1 	subs	x9, x9, #8
1000084d0: c2 03 00 54 	b.hs	0x100008548 <__ZN5gimli4read4unit15parse_attribute17h96019df6e63c0e7cE+0xd40>
1000084d4: 02 00 80 52 	mov	w2, #0
1000084d8: 69 02 80 52 	mov	w9, #19
1000084dc: 18 00 00 14 	b	0x10000853c <__ZN5gimli4read4unit15parse_attribute17h96019df6e63c0e7cE+0xd34>
1000084e0: 29 05 00 91 	add	x9, x9, #1
1000084e4: ea 03 2c aa 	mvn	x10, x12
1000084e8: 48 01 08 8b 	add	x8, x10, x8
1000084ec: a9 22 00 a9 	stp	x9, x8, [x21]
1000084f0: 68 3c 08 53 	ubfx	w8, w3, #8, #8
1000084f4: 6b 7c 50 d3 	ubfx	x11, x3, #16, #16
1000084f8: 69 7c 60 92 	and	x9, x3, #0xffffffff00000000
1000084fc: ea 03 80 52 	mov	w10, #31
100008500: 1c 00 00 14 	b	0x100008570 <__ZN5gimli4read4unit15parse_attribute17h96019df6e63c0e7cE+0xd68>
100008504: 8a 01 08 8b 	add	x10, x12, x8
100008508: 2a 01 0a 8b 	add	x10, x9, x10
10000850c: 6b 01 0c cb 	sub	x11, x11, x12
100008510: 6b 01 08 cb 	sub	x11, x11, x8
100008514: aa 2e 00 a9 	stp	x10, x11, [x21]
100008518: 23 01 08 8b 	add	x3, x9, x8
10000851c: 68 3c 08 53 	ubfx	w8, w3, #8, #8
100008520: 6b 7c 50 d3 	ubfx	x11, x3, #16, #16
100008524: 69 7c 60 92 	and	x9, x3, #0xffffffff00000000
100008528: 0a 01 80 52 	mov	w10, #8
10000852c: 11 00 00 14 	b	0x100008570 <__ZN5gimli4read4unit15parse_attribute17h96019df6e63c0e7cE+0xd68>
100008530: c9 00 80 52 	mov	w9, #6
100008534: 69 22 00 39 	strb	w9, [x19, #8]
100008538: 88 ff ff 17 	b	0x100008358 <__ZN5gimli4read4unit15parse_attribute17h96019df6e63c0e7cE+0xb50>
10000853c: 4a 1c 40 92 	and	x10, x2, #0xff
100008540: 49 1d 78 b3 	bfi	x9, x10, #8, #8
100008544: 5c ff ff 17 	b	0x1000082b4 <__ZN5gimli4read4unit15parse_attribute17h96019df6e63c0e7cE+0xaac>
100008548: 03 85 40 f8 	ldr	x3, [x8], #8
10000854c: a8 26 00 a9 	stp	x8, x9, [x21]
100008550: 6b dc 78 92 	and	x11, x3, #0xffffffffffffff00
100008554: 69 bc 70 92 	and	x9, x3, #0xffffffffffff0000
100008558: 0a 00 80 d2 	mov	x10, #0
10000855c: 68 1d 18 12 	and	w8, w11, #0xff00
100008560: 0b 01 09 2a 	orr	w11, w8, w9
100008564: 68 3d 08 53 	ubfx	w8, w11, #8, #8
100008568: 6b 7d 10 53 	lsr	w11, w11, #16
10000856c: 29 7d 60 92 	and	x9, x9, #0xffffffff00000000
100008570: 0d 00 80 d2 	mov	x13, #0
100008574: 03 1d 18 33 	bfi	w3, w8, #8, #8
100008578: 63 3d 10 33 	bfi	w3, w11, #16, #16
10000857c: 28 01 03 aa 	orr	x8, x9, x3
100008580: 6a a2 00 a9 	stp	x10, x8, [x19, #8]
100008584: 6c 0e 00 f9 	str	x12, [x19, #24]
100008588: 74 42 00 79 	strh	w20, [x19, #32]
10000858c: 6d 02 00 f9 	str	x13, [x19]
100008590: fd 7b 44 a9 	ldp	x29, x30, [sp, #64]
100008594: f4 4f 43 a9 	ldp	x20, x19, [sp, #48]
100008598: f6 57 42 a9 	ldp	x22, x21, [sp, #32]
10000859c: ff 43 01 91 	add	sp, sp, #80
1000085a0: c0 03 5f d6 	ret

00000001000085a4 <__ZN5gimli4read4unit18Attribute$LT$R$GT$11udata_value17hfde1e04f2708312fE>:
1000085a4: 08 00 40 f9 	ldr	x8, [x0]
1000085a8: 08 09 00 d1 	sub	x8, x8, #2
1000085ac: 1f 15 00 f1 	cmp	x8, #5
1000085b0: 48 01 00 54 	b.hi	0x1000085d8 <__ZN5gimli4read4unit18Attribute$LT$R$GT$11udata_value17hfde1e04f2708312fE+0x34>
1000085b4: 89 23 15 50 	adr	x9, #173170
1000085b8: 1f 20 03 d5 	nop
1000085bc: 8a 00 00 10 	adr	x10, #16
1000085c0: 2b 69 68 38 	ldrb	w11, [x9, x8]
1000085c4: 4a 09 0b 8b 	add	x10, x10, x11, lsl #2
1000085c8: 40 01 1f d6 	br	x10
1000085cc: 01 04 40 f9 	ldr	x1, [x0, #8]
1000085d0: 20 00 80 52 	mov	w0, #1
1000085d4: c0 03 5f d6 	ret
1000085d8: 00 00 80 d2 	mov	x0, #0
1000085dc: c0 03 5f d6 	ret
1000085e0: 01 20 40 39 	ldrb	w1, [x0, #8]
1000085e4: 20 00 80 52 	mov	w0, #1
1000085e8: c0 03 5f d6 	ret
1000085ec: 01 10 40 79 	ldrh	w1, [x0, #8]
1000085f0: 20 00 80 52 	mov	w0, #1
1000085f4: c0 03 5f d6 	ret
1000085f8: 01 08 40 b9 	ldr	w1, [x0, #8]
1000085fc: 20 00 80 52 	mov	w0, #1
100008600: c0 03 5f d6 	ret
100008604: 01 04 40 f9 	ldr	x1, [x0, #8]
100008608: e8 03 21 aa 	mvn	x8, x1
10000860c: 00 fd 7f d3 	lsr	x0, x8, #63
100008610: c0 03 5f d6 	ret

0000000100008614 <__ZN5gimli4read4unit18Attribute$LT$R$GT$5value17h64bdc8c3f778027dE>:
100008614: f4 4f be a9 	stp	x20, x19, [sp, #-32]!
100008618: fd 7b 01 a9 	stp	x29, x30, [sp, #16]
10000861c: fd 43 00 91 	add	x29, sp, #16
100008620: f4 03 01 aa 	mov	x20, x1
100008624: f3 03 00 aa 	mov	x19, x0
100008628: 28 30 40 79 	ldrh	w8, [x1, #24]
10000862c: 09 26 84 52 	mov	w9, #8496
100008630: 1f 01 09 6b 	cmp	w8, w9
100008634: ec 04 00 54 	b.gt	0x1000086d0 <__ZN5gimli4read4unit18Attribute$LT$R$GT$5value17h64bdc8c3f778027dE+0xbc>
100008638: 08 09 00 51 	sub	w8, w8, #2
10000863c: 1f 29 02 71 	cmp	w8, #138
100008640: 28 25 00 54 	b.hi	0x100008ae4 <__ZN5gimli4read4unit18Attribute$LT$R$GT$5value17h64bdc8c3f778027dE+0x4d0>
100008644: 49 1f 15 10 	adr	x9, #173032
100008648: 1f 20 03 d5 	nop
10000864c: 8a 00 00 10 	adr	x10, #16
100008650: 2b 79 68 78 	ldrh	w11, [x9, x8, lsl #1]
100008654: 4a 09 0b 8b 	add	x10, x10, x11, lsl #2
100008658: 40 01 1f d6 	br	x10
10000865c: 88 02 40 f9 	ldr	x8, [x20]
100008660: 1f 05 00 f1 	cmp	x8, #1
100008664: 04 19 48 fa 	ccmp	x8, #8, #4, ne
100008668: c0 00 00 54 	b.eq	0x100008680 <__ZN5gimli4read4unit18Attribute$LT$R$GT$5value17h64bdc8c3f778027dE+0x6c>
10000866c: 1e 01 00 14 	b	0x100008ae4 <__ZN5gimli4read4unit18Attribute$LT$R$GT$5value17h64bdc8c3f778027dE+0x4d0>
100008670: 88 02 40 f9 	ldr	x8, [x20]
100008674: 1f 05 00 f1 	cmp	x8, #1
100008678: 04 19 48 fa 	ccmp	x8, #8, #4, ne
10000867c: a1 01 00 54 	b.ne	0x1000086b0 <__ZN5gimli4read4unit18Attribute$LT$R$GT$5value17h64bdc8c3f778027dE+0x9c>
100008680: 89 a2 40 a9 	ldp	x9, x8, [x20, #8]
100008684: 69 a2 00 a9 	stp	x9, x8, [x19, #8]
100008688: 08 01 80 52 	mov	w8, #8
10000868c: 68 02 00 f9 	str	x8, [x19]
100008690: fd 7b 41 a9 	ldp	x29, x30, [sp, #16]
100008694: f4 4f c2 a8 	ldp	x20, x19, [sp], #32
100008698: c0 03 5f d6 	ret
10000869c: e0 03 14 aa 	mov	x0, x20
1000086a0: c1 ff ff 97 	bl	0x1000085a4 <__ZN5gimli4read4unit18Attribute$LT$R$GT$11udata_value17hfde1e04f2708312fE>
1000086a4: 1f 04 00 f1 	cmp	x0, #1
1000086a8: 20 0a 00 54 	b.eq	0x1000087ec <__ZN5gimli4read4unit18Attribute$LT$R$GT$5value17h64bdc8c3f778027dE+0x1d8>
1000086ac: 0e 01 00 14 	b	0x100008ae4 <__ZN5gimli4read4unit18Attribute$LT$R$GT$5value17h64bdc8c3f778027dE+0x4d0>
1000086b0: 1f 29 00 f1 	cmp	x8, #10
1000086b4: 81 21 00 54 	b.ne	0x100008ae4 <__ZN5gimli4read4unit18Attribute$LT$R$GT$5value17h64bdc8c3f778027dE+0x4d0>
1000086b8: 88 06 40 f9 	ldr	x8, [x20, #8]
1000086bc: 29 02 80 52 	mov	w9, #17
1000086c0: 69 22 00 a9 	stp	x9, x8, [x19]
1000086c4: fd 7b 41 a9 	ldp	x29, x30, [sp, #16]
1000086c8: f4 4f c2 a8 	ldp	x20, x19, [sp], #32
1000086cc: c0 03 5f d6 	ret
1000086d0: 29 26 84 52 	mov	w9, #8497
1000086d4: 1f 01 09 6b 	cmp	w8, w9
1000086d8: a0 1c 00 54 	b.eq	0x100008a6c <__ZN5gimli4read4unit18Attribute$LT$R$GT$5value17h64bdc8c3f778027dE+0x458>
1000086dc: 49 26 84 52 	mov	w9, #8498
1000086e0: 1f 01 09 6b 	cmp	w8, w9
1000086e4: a0 06 00 54 	b.eq	0x1000087b8 <__ZN5gimli4read4unit18Attribute$LT$R$GT$5value17h64bdc8c3f778027dE+0x1a4>
1000086e8: 69 26 84 52 	mov	w9, #8499
1000086ec: 1f 01 09 6b 	cmp	w8, w9
1000086f0: a1 1f 00 54 	b.ne	0x100008ae4 <__ZN5gimli4read4unit18Attribute$LT$R$GT$5value17h64bdc8c3f778027dE+0x4d0>
1000086f4: 88 02 40 f9 	ldr	x8, [x20]
1000086f8: 1f 29 00 f1 	cmp	x8, #10
1000086fc: 41 1f 00 54 	b.ne	0x100008ae4 <__ZN5gimli4read4unit18Attribute$LT$R$GT$5value17h64bdc8c3f778027dE+0x4d0>
100008700: 88 06 40 f9 	ldr	x8, [x20, #8]
100008704: 69 01 80 52 	mov	w9, #11
100008708: 69 22 00 a9 	stp	x9, x8, [x19]
10000870c: fd 7b 41 a9 	ldp	x29, x30, [sp, #16]
100008710: f4 4f c2 a8 	ldp	x20, x19, [sp], #32
100008714: c0 03 5f d6 	ret
100008718: 88 02 40 f9 	ldr	x8, [x20]
10000871c: 08 05 00 d1 	sub	x8, x8, #1
100008720: 1f 1d 00 f1 	cmp	x8, #7
100008724: 08 1e 00 54 	b.hi	0x100008ae4 <__ZN5gimli4read4unit18Attribute$LT$R$GT$5value17h64bdc8c3f778027dE+0x4d0>
100008728: c9 20 15 50 	adr	x9, #173082
10000872c: 1f 20 03 d5 	nop
100008730: 8a fa ff 10 	adr	x10, #-176
100008734: 2b 79 68 78 	ldrh	w11, [x9, x8, lsl #1]
100008738: 4a 09 0b 8b 	add	x10, x10, x11, lsl #2
10000873c: 40 01 1f d6 	br	x10
100008740: 88 06 40 f9 	ldr	x8, [x20, #8]
100008744: e3 00 00 14 	b	0x100008ad0 <__ZN5gimli4read4unit18Attribute$LT$R$GT$5value17h64bdc8c3f778027dE+0x4bc>
100008748: 88 02 40 f9 	ldr	x8, [x20]
10000874c: 1f 29 00 f1 	cmp	x8, #10
100008750: a1 1c 00 54 	b.ne	0x100008ae4 <__ZN5gimli4read4unit18Attribute$LT$R$GT$5value17h64bdc8c3f778027dE+0x4d0>
100008754: 88 06 40 f9 	ldr	x8, [x20, #8]
100008758: c9 02 80 52 	mov	w9, #22
10000875c: 69 22 00 a9 	stp	x9, x8, [x19]
100008760: fd 7b 41 a9 	ldp	x29, x30, [sp, #16]
100008764: f4 4f c2 a8 	ldp	x20, x19, [sp], #32
100008768: c0 03 5f d6 	ret
10000876c: e0 03 14 aa 	mov	x0, x20
100008770: 8d ff ff 97 	bl	0x1000085a4 <__ZN5gimli4read4unit18Attribute$LT$R$GT$11udata_value17hfde1e04f2708312fE>
100008774: 1f 04 00 f1 	cmp	x0, #1
100008778: 61 1b 00 54 	b.ne	0x100008ae4 <__ZN5gimli4read4unit18Attribute$LT$R$GT$5value17h64bdc8c3f778027dE+0x4d0>
10000877c: 88 05 80 52 	mov	w8, #44
100008780: 68 06 00 a9 	stp	x8, x1, [x19]
100008784: fd 7b 41 a9 	ldp	x29, x30, [sp, #16]
100008788: f4 4f c2 a8 	ldp	x20, x19, [sp], #32
10000878c: c0 03 5f d6 	ret
100008790: e0 03 14 aa 	mov	x0, x20
100008794: 84 ff ff 97 	bl	0x1000085a4 <__ZN5gimli4read4unit18Attribute$LT$R$GT$11udata_value17hfde1e04f2708312fE>
100008798: 1f 04 00 f1 	cmp	x0, #1
10000879c: 80 02 00 54 	b.eq	0x1000087ec <__ZN5gimli4read4unit18Attribute$LT$R$GT$5value17h64bdc8c3f778027dE+0x1d8>
1000087a0: 88 02 40 f9 	ldr	x8, [x20]
1000087a4: 1f 21 00 f1 	cmp	x8, #8
1000087a8: c0 f6 ff 54 	b.eq	0x100008680 <__ZN5gimli4read4unit18Attribute$LT$R$GT$5value17h64bdc8c3f778027dE+0x6c>
1000087ac: 1f 05 00 f1 	cmp	x8, #1
1000087b0: 80 f6 ff 54 	b.eq	0x100008680 <__ZN5gimli4read4unit18Attribute$LT$R$GT$5value17h64bdc8c3f778027dE+0x6c>
1000087b4: cc 00 00 14 	b	0x100008ae4 <__ZN5gimli4read4unit18Attribute$LT$R$GT$5value17h64bdc8c3f778027dE+0x4d0>
1000087b8: 88 02 40 f9 	ldr	x8, [x20]
1000087bc: 1f 29 00 f1 	cmp	x8, #10
1000087c0: 21 19 00 54 	b.ne	0x100008ae4 <__ZN5gimli4read4unit18Attribute$LT$R$GT$5value17h64bdc8c3f778027dE+0x4d0>
1000087c4: 88 06 40 f9 	ldr	x8, [x20, #8]
1000087c8: e9 02 80 52 	mov	w9, #23
1000087cc: 69 22 00 a9 	stp	x9, x8, [x19]
1000087d0: fd 7b 41 a9 	ldp	x29, x30, [sp, #16]
1000087d4: f4 4f c2 a8 	ldp	x20, x19, [sp], #32
1000087d8: c0 03 5f d6 	ret
1000087dc: e0 03 14 aa 	mov	x0, x20
1000087e0: 71 ff ff 97 	bl	0x1000085a4 <__ZN5gimli4read4unit18Attribute$LT$R$GT$11udata_value17hfde1e04f2708312fE>
1000087e4: 1f 04 00 f1 	cmp	x0, #1
1000087e8: 41 15 00 54 	b.ne	0x100008a90 <__ZN5gimli4read4unit18Attribute$LT$R$GT$5value17h64bdc8c3f778027dE+0x47c>
1000087ec: e8 00 80 52 	mov	w8, #7
1000087f0: 68 06 00 a9 	stp	x8, x1, [x19]
1000087f4: fd 7b 41 a9 	ldp	x29, x30, [sp, #16]
1000087f8: f4 4f c2 a8 	ldp	x20, x19, [sp], #32
1000087fc: c0 03 5f d6 	ret
100008800: e0 03 14 aa 	mov	x0, x20
100008804: bd 00 00 94 	bl	0x100008af8 <__ZN5gimli4read4unit18Attribute$LT$R$GT$8u8_value17h46e56273533ed6a6E>
100008808: e0 16 00 36 	tbz	w0, #0, 0x100008ae4 <__ZN5gimli4read4unit18Attribute$LT$R$GT$5value17h64bdc8c3f778027dE+0x4d0>
10000880c: 61 22 00 39 	strb	w1, [x19, #8]
100008810: 68 05 80 52 	mov	w8, #43
100008814: 68 02 00 f9 	str	x8, [x19]
100008818: fd 7b 41 a9 	ldp	x29, x30, [sp, #16]
10000881c: f4 4f c2 a8 	ldp	x20, x19, [sp], #32
100008820: c0 03 5f d6 	ret
100008824: 88 02 40 f9 	ldr	x8, [x20]
100008828: 1f 29 00 f1 	cmp	x8, #10
10000882c: c1 15 00 54 	b.ne	0x100008ae4 <__ZN5gimli4read4unit18Attribute$LT$R$GT$5value17h64bdc8c3f778027dE+0x4d0>
100008830: 88 06 40 f9 	ldr	x8, [x20, #8]
100008834: 09 02 80 52 	mov	w9, #16
100008838: 69 22 00 a9 	stp	x9, x8, [x19]
10000883c: fd 7b 41 a9 	ldp	x29, x30, [sp, #16]
100008840: f4 4f c2 a8 	ldp	x20, x19, [sp], #32
100008844: c0 03 5f d6 	ret
100008848: e0 03 14 aa 	mov	x0, x20
10000884c: c9 00 00 94 	bl	0x100008b70 <__ZN5gimli4read4unit18Attribute$LT$R$GT$9u16_value17hf959c53f75d78643E>
100008850: 08 3c 00 12 	and	w8, w0, #0xffff
100008854: 1f 05 00 71 	cmp	w8, #1
100008858: 61 14 00 54 	b.ne	0x100008ae4 <__ZN5gimli4read4unit18Attribute$LT$R$GT$5value17h64bdc8c3f778027dE+0x4d0>
10000885c: 61 12 00 79 	strh	w1, [x19, #8]
100008860: c8 04 80 52 	mov	w8, #38
100008864: 68 02 00 f9 	str	x8, [x19]
100008868: fd 7b 41 a9 	ldp	x29, x30, [sp, #16]
10000886c: f4 4f c2 a8 	ldp	x20, x19, [sp], #32
100008870: c0 03 5f d6 	ret
100008874: e0 03 14 aa 	mov	x0, x20
100008878: a0 00 00 94 	bl	0x100008af8 <__ZN5gimli4read4unit18Attribute$LT$R$GT$8u8_value17h46e56273533ed6a6E>
10000887c: 40 13 00 36 	tbz	w0, #0, 0x100008ae4 <__ZN5gimli4read4unit18Attribute$LT$R$GT$5value17h64bdc8c3f778027dE+0x4d0>
100008880: 61 22 00 39 	strb	w1, [x19, #8]
100008884: 88 04 80 52 	mov	w8, #36
100008888: 68 02 00 f9 	str	x8, [x19]
10000888c: fd 7b 41 a9 	ldp	x29, x30, [sp, #16]
100008890: f4 4f c2 a8 	ldp	x20, x19, [sp], #32
100008894: c0 03 5f d6 	ret
100008898: e0 03 14 aa 	mov	x0, x20
10000889c: 97 00 00 94 	bl	0x100008af8 <__ZN5gimli4read4unit18Attribute$LT$R$GT$8u8_value17h46e56273533ed6a6E>
1000088a0: 20 12 00 36 	tbz	w0, #0, 0x100008ae4 <__ZN5gimli4read4unit18Attribute$LT$R$GT$5value17h64bdc8c3f778027dE+0x4d0>
1000088a4: 61 22 00 39 	strb	w1, [x19, #8]
1000088a8: 48 05 80 52 	mov	w8, #42
1000088ac: 68 02 00 f9 	str	x8, [x19]
1000088b0: fd 7b 41 a9 	ldp	x29, x30, [sp, #16]
1000088b4: f4 4f c2 a8 	ldp	x20, x19, [sp], #32
1000088b8: c0 03 5f d6 	ret
1000088bc: e0 03 14 aa 	mov	x0, x20
1000088c0: 8e 00 00 94 	bl	0x100008af8 <__ZN5gimli4read4unit18Attribute$LT$R$GT$8u8_value17h46e56273533ed6a6E>
1000088c4: 00 11 00 36 	tbz	w0, #0, 0x100008ae4 <__ZN5gimli4read4unit18Attribute$LT$R$GT$5value17h64bdc8c3f778027dE+0x4d0>
1000088c8: 61 22 00 39 	strb	w1, [x19, #8]
1000088cc: 68 04 80 52 	mov	w8, #35
1000088d0: 68 02 00 f9 	str	x8, [x19]
1000088d4: fd 7b 41 a9 	ldp	x29, x30, [sp, #16]
1000088d8: f4 4f c2 a8 	ldp	x20, x19, [sp], #32
1000088dc: c0 03 5f d6 	ret
1000088e0: e0 03 14 aa 	mov	x0, x20
1000088e4: 30 ff ff 97 	bl	0x1000085a4 <__ZN5gimli4read4unit18Attribute$LT$R$GT$11udata_value17hfde1e04f2708312fE>
1000088e8: 1f 04 00 f1 	cmp	x0, #1
1000088ec: c1 0f 00 54 	b.ne	0x100008ae4 <__ZN5gimli4read4unit18Attribute$LT$R$GT$5value17h64bdc8c3f778027dE+0x4d0>
1000088f0: e8 04 80 52 	mov	w8, #39
1000088f4: 68 06 00 a9 	stp	x8, x1, [x19]
1000088f8: fd 7b 41 a9 	ldp	x29, x30, [sp, #16]
1000088fc: f4 4f c2 a8 	ldp	x20, x19, [sp], #32
100008900: c0 03 5f d6 	ret
100008904: e0 03 14 aa 	mov	x0, x20
100008908: 7c 00 00 94 	bl	0x100008af8 <__ZN5gimli4read4unit18Attribute$LT$R$GT$8u8_value17h46e56273533ed6a6E>
10000890c: c0 0e 00 36 	tbz	w0, #0, 0x100008ae4 <__ZN5gimli4read4unit18Attribute$LT$R$GT$5value17h64bdc8c3f778027dE+0x4d0>
100008910: 61 22 00 39 	strb	w1, [x19, #8]
100008914: 28 05 80 52 	mov	w8, #41
100008918: 68 02 00 f9 	str	x8, [x19]
10000891c: fd 7b 41 a9 	ldp	x29, x30, [sp, #16]
100008920: f4 4f c2 a8 	ldp	x20, x19, [sp], #32
100008924: c0 03 5f d6 	ret
100008928: e0 03 14 aa 	mov	x0, x20
10000892c: 73 00 00 94 	bl	0x100008af8 <__ZN5gimli4read4unit18Attribute$LT$R$GT$8u8_value17h46e56273533ed6a6E>
100008930: a0 0d 00 36 	tbz	w0, #0, 0x100008ae4 <__ZN5gimli4read4unit18Attribute$LT$R$GT$5value17h64bdc8c3f778027dE+0x4d0>
100008934: 61 22 00 39 	strb	w1, [x19, #8]
100008938: 08 04 80 52 	mov	w8, #32
10000893c: 68 02 00 f9 	str	x8, [x19]
100008940: fd 7b 41 a9 	ldp	x29, x30, [sp, #16]
100008944: f4 4f c2 a8 	ldp	x20, x19, [sp], #32
100008948: c0 03 5f d6 	ret
10000894c: e0 03 14 aa 	mov	x0, x20
100008950: 6a 00 00 94 	bl	0x100008af8 <__ZN5gimli4read4unit18Attribute$LT$R$GT$8u8_value17h46e56273533ed6a6E>
100008954: 80 0c 00 36 	tbz	w0, #0, 0x100008ae4 <__ZN5gimli4read4unit18Attribute$LT$R$GT$5value17h64bdc8c3f778027dE+0x4d0>
100008958: 61 22 00 39 	strb	w1, [x19, #8]
10000895c: 08 05 80 52 	mov	w8, #40
100008960: 68 02 00 f9 	str	x8, [x19]
100008964: fd 7b 41 a9 	ldp	x29, x30, [sp, #16]
100008968: f4 4f c2 a8 	ldp	x20, x19, [sp], #32
10000896c: c0 03 5f d6 	ret
100008970: 88 02 40 f9 	ldr	x8, [x20]
100008974: 1f 29 00 f1 	cmp	x8, #10
100008978: 61 0b 00 54 	b.ne	0x100008ae4 <__ZN5gimli4read4unit18Attribute$LT$R$GT$5value17h64bdc8c3f778027dE+0x4d0>
10000897c: 88 06 40 f9 	ldr	x8, [x20, #8]
100008980: 89 02 80 52 	mov	w9, #20
100008984: 69 22 00 a9 	stp	x9, x8, [x19]
100008988: fd 7b 41 a9 	ldp	x29, x30, [sp, #16]
10000898c: f4 4f c2 a8 	ldp	x20, x19, [sp], #32
100008990: c0 03 5f d6 	ret
100008994: e0 03 14 aa 	mov	x0, x20
100008998: 58 00 00 94 	bl	0x100008af8 <__ZN5gimli4read4unit18Attribute$LT$R$GT$8u8_value17h46e56273533ed6a6E>
10000899c: 40 0a 00 36 	tbz	w0, #0, 0x100008ae4 <__ZN5gimli4read4unit18Attribute$LT$R$GT$5value17h64bdc8c3f778027dE+0x4d0>
1000089a0: 61 22 00 39 	strb	w1, [x19, #8]
1000089a4: a8 04 80 52 	mov	w8, #37
1000089a8: 68 02 00 f9 	str	x8, [x19]
1000089ac: fd 7b 41 a9 	ldp	x29, x30, [sp, #16]
1000089b0: f4 4f c2 a8 	ldp	x20, x19, [sp], #32
1000089b4: c0 03 5f d6 	ret
1000089b8: e0 03 14 aa 	mov	x0, x20
1000089bc: 4f 00 00 94 	bl	0x100008af8 <__ZN5gimli4read4unit18Attribute$LT$R$GT$8u8_value17h46e56273533ed6a6E>
1000089c0: 20 09 00 36 	tbz	w0, #0, 0x100008ae4 <__ZN5gimli4read4unit18Attribute$LT$R$GT$5value17h64bdc8c3f778027dE+0x4d0>
1000089c4: 61 22 00 39 	strb	w1, [x19, #8]
1000089c8: 28 04 80 52 	mov	w8, #33
1000089cc: 68 02 00 f9 	str	x8, [x19]
1000089d0: fd 7b 41 a9 	ldp	x29, x30, [sp, #16]
1000089d4: f4 4f c2 a8 	ldp	x20, x19, [sp], #32
1000089d8: c0 03 5f d6 	ret
1000089dc: e0 03 14 aa 	mov	x0, x20
1000089e0: 46 00 00 94 	bl	0x100008af8 <__ZN5gimli4read4unit18Attribute$LT$R$GT$8u8_value17h46e56273533ed6a6E>
1000089e4: 00 08 00 36 	tbz	w0, #0, 0x100008ae4 <__ZN5gimli4read4unit18Attribute$LT$R$GT$5value17h64bdc8c3f778027dE+0x4d0>
1000089e8: 61 22 00 39 	strb	w1, [x19, #8]
1000089ec: 48 04 80 52 	mov	w8, #34
1000089f0: 68 02 00 f9 	str	x8, [x19]
1000089f4: fd 7b 41 a9 	ldp	x29, x30, [sp, #16]
1000089f8: f4 4f c2 a8 	ldp	x20, x19, [sp], #32
1000089fc: c0 03 5f d6 	ret
100008a00: 88 02 40 f9 	ldr	x8, [x20]
100008a04: 1f 29 00 f1 	cmp	x8, #10
100008a08: e1 06 00 54 	b.ne	0x100008ae4 <__ZN5gimli4read4unit18Attribute$LT$R$GT$5value17h64bdc8c3f778027dE+0x4d0>
100008a0c: 88 06 40 f9 	ldr	x8, [x20, #8]
100008a10: 89 03 80 52 	mov	w9, #28
100008a14: 69 22 00 a9 	stp	x9, x8, [x19]
100008a18: fd 7b 41 a9 	ldp	x29, x30, [sp, #16]
100008a1c: f4 4f c2 a8 	ldp	x20, x19, [sp], #32
100008a20: c0 03 5f d6 	ret
100008a24: 88 02 40 f9 	ldr	x8, [x20]
100008a28: 1f 29 00 f1 	cmp	x8, #10
100008a2c: c1 05 00 54 	b.ne	0x100008ae4 <__ZN5gimli4read4unit18Attribute$LT$R$GT$5value17h64bdc8c3f778027dE+0x4d0>
100008a30: 88 06 40 f9 	ldr	x8, [x20, #8]
100008a34: a9 02 80 52 	mov	w9, #21
100008a38: 69 22 00 a9 	stp	x9, x8, [x19]
100008a3c: fd 7b 41 a9 	ldp	x29, x30, [sp, #16]
100008a40: f4 4f c2 a8 	ldp	x20, x19, [sp], #32
100008a44: c0 03 5f d6 	ret
100008a48: 88 02 40 f9 	ldr	x8, [x20]
100008a4c: 1f 29 00 f1 	cmp	x8, #10
100008a50: a1 04 00 54 	b.ne	0x100008ae4 <__ZN5gimli4read4unit18Attribute$LT$R$GT$5value17h64bdc8c3f778027dE+0x4d0>
100008a54: 88 06 40 f9 	ldr	x8, [x20, #8]
100008a58: 49 02 80 52 	mov	w9, #18
100008a5c: 69 22 00 a9 	stp	x9, x8, [x19]
100008a60: fd 7b 41 a9 	ldp	x29, x30, [sp, #16]
100008a64: f4 4f c2 a8 	ldp	x20, x19, [sp], #32
100008a68: c0 03 5f d6 	ret
100008a6c: e0 03 14 aa 	mov	x0, x20
100008a70: cd fe ff 97 	bl	0x1000085a4 <__ZN5gimli4read4unit18Attribute$LT$R$GT$11udata_value17hfde1e04f2708312fE>
100008a74: 1f 04 00 f1 	cmp	x0, #1
100008a78: 61 03 00 54 	b.ne	0x100008ae4 <__ZN5gimli4read4unit18Attribute$LT$R$GT$5value17h64bdc8c3f778027dE+0x4d0>
100008a7c: a8 05 80 52 	mov	w8, #45
100008a80: 68 06 00 a9 	stp	x8, x1, [x19]
100008a84: fd 7b 41 a9 	ldp	x29, x30, [sp, #16]
100008a88: f4 4f c2 a8 	ldp	x20, x19, [sp], #32
100008a8c: c0 03 5f d6 	ret
100008a90: 88 02 40 f9 	ldr	x8, [x20]
100008a94: 1f 05 00 f1 	cmp	x8, #1
100008a98: 40 df ff 54 	b.eq	0x100008680 <__ZN5gimli4read4unit18Attribute$LT$R$GT$5value17h64bdc8c3f778027dE+0x6c>
100008a9c: 1f 29 00 f1 	cmp	x8, #10
100008aa0: c0 e0 ff 54 	b.eq	0x1000086b8 <__ZN5gimli4read4unit18Attribute$LT$R$GT$5value17h64bdc8c3f778027dE+0xa4>
100008aa4: 1f 21 00 f1 	cmp	x8, #8
100008aa8: c0 de ff 54 	b.eq	0x100008680 <__ZN5gimli4read4unit18Attribute$LT$R$GT$5value17h64bdc8c3f778027dE+0x6c>
100008aac: 0e 00 00 14 	b	0x100008ae4 <__ZN5gimli4read4unit18Attribute$LT$R$GT$5value17h64bdc8c3f778027dE+0x4d0>
100008ab0: 88 22 40 39 	ldrb	w8, [x20, #8]
100008ab4: 07 00 00 14 	b	0x100008ad0 <__ZN5gimli4read4unit18Attribute$LT$R$GT$5value17h64bdc8c3f778027dE+0x4bc>
100008ab8: 88 12 40 79 	ldrh	w8, [x20, #8]
100008abc: 05 00 00 14 	b	0x100008ad0 <__ZN5gimli4read4unit18Attribute$LT$R$GT$5value17h64bdc8c3f778027dE+0x4bc>
100008ac0: 88 0a 40 b9 	ldr	w8, [x20, #8]
100008ac4: 03 00 00 14 	b	0x100008ad0 <__ZN5gimli4read4unit18Attribute$LT$R$GT$5value17h64bdc8c3f778027dE+0x4bc>
100008ac8: 88 06 40 f9 	ldr	x8, [x20, #8]
100008acc: c8 00 f8 b7 	tbnz	x8, #63, 0x100008ae4 <__ZN5gimli4read4unit18Attribute$LT$R$GT$5value17h64bdc8c3f778027dE+0x4d0>
100008ad0: e9 00 80 52 	mov	w9, #7
100008ad4: 69 22 00 a9 	stp	x9, x8, [x19]
100008ad8: fd 7b 41 a9 	ldp	x29, x30, [sp, #16]
100008adc: f4 4f c2 a8 	ldp	x20, x19, [sp], #32
100008ae0: c0 03 5f d6 	ret
100008ae4: e0 03 13 aa 	mov	x0, x19
100008ae8: e1 03 14 aa 	mov	x1, x20
100008aec: fd 7b 41 a9 	ldp	x29, x30, [sp, #16]
100008af0: f4 4f c2 a8 	ldp	x20, x19, [sp], #32
100008af4: ec 06 00 14 	b	0x10000a6a4 <__ZN90_$LT$gimli..read..unit..AttributeValue$LT$R$C$Offset$GT$$u20$as$u20$core..clone..Clone$GT$5clone17ha6f018f25bb7e35cE>

0000000100008af8 <__ZN5gimli4read4unit18Attribute$LT$R$GT$8u8_value17h46e56273533ed6a6E>:
100008af8: 08 00 40 f9 	ldr	x8, [x0]
100008afc: 08 09 00 d1 	sub	x8, x8, #2
100008b00: 1f 15 00 f1 	cmp	x8, #5
100008b04: 28 03 00 54 	b.hi	0x100008b68 <__ZN5gimli4read4unit18Attribute$LT$R$GT$8u8_value17h46e56273533ed6a6E+0x70>
100008b08: 49 02 15 50 	adr	x9, #172106
100008b0c: 1f 20 03 d5 	nop
100008b10: 8a 00 00 10 	adr	x10, #16
100008b14: 2b 69 68 38 	ldrb	w11, [x9, x8]
100008b18: 4a 09 0b 8b 	add	x10, x10, x11, lsl #2
100008b1c: 40 01 1f d6 	br	x10
100008b20: 01 04 40 f9 	ldr	x1, [x0, #8]
100008b24: 3f 00 04 f1 	cmp	x1, #256
100008b28: e0 27 9f 1a 	cset	w0, lo
100008b2c: c0 03 5f d6 	ret
100008b30: 01 20 40 39 	ldrb	w1, [x0, #8]
100008b34: 3f 00 04 f1 	cmp	x1, #256
100008b38: e0 27 9f 1a 	cset	w0, lo
100008b3c: c0 03 5f d6 	ret
100008b40: 01 10 40 79 	ldrh	w1, [x0, #8]
100008b44: 3f 00 04 f1 	cmp	x1, #256
100008b48: e0 27 9f 1a 	cset	w0, lo
100008b4c: c0 03 5f d6 	ret
100008b50: 01 08 40 b9 	ldr	w1, [x0, #8]
100008b54: 3f 00 04 f1 	cmp	x1, #256
100008b58: e0 27 9f 1a 	cset	w0, lo
100008b5c: c0 03 5f d6 	ret
100008b60: 01 04 40 f9 	ldr	x1, [x0, #8]
100008b64: 01 fe ff b6 	tbz	x1, #63, 0x100008b24 <__ZN5gimli4read4unit18Attribute$LT$R$GT$8u8_value17h46e56273533ed6a6E+0x2c>
100008b68: 00 00 80 52 	mov	w0, #0
100008b6c: c0 03 5f d6 	ret

0000000100008b70 <__ZN5gimli4read4unit18Attribute$LT$R$GT$9u16_value17hf959c53f75d78643E>:
100008b70: 08 00 40 f9 	ldr	x8, [x0]
100008b74: 08 09 00 d1 	sub	x8, x8, #2
100008b78: 1f 15 00 f1 	cmp	x8, #5
100008b7c: 28 03 00 54 	b.hi	0x100008be0 <__ZN5gimli4read4unit18Attribute$LT$R$GT$9u16_value17hf959c53f75d78643E+0x70>
100008b80: c9 fe 14 10 	adr	x9, #171992
100008b84: 1f 20 03 d5 	nop
100008b88: 8a 00 00 10 	adr	x10, #16
100008b8c: 2b 69 68 38 	ldrb	w11, [x9, x8]
100008b90: 4a 09 0b 8b 	add	x10, x10, x11, lsl #2
100008b94: 40 01 1f d6 	br	x10
100008b98: 01 04 40 f9 	ldr	x1, [x0, #8]
100008b9c: 3f 40 40 f1 	cmp	x1, #16, lsl #12        ; =65536
100008ba0: e0 27 9f 1a 	cset	w0, lo
100008ba4: c0 03 5f d6 	ret
100008ba8: 01 20 40 39 	ldrb	w1, [x0, #8]
100008bac: 3f 40 40 f1 	cmp	x1, #16, lsl #12        ; =65536
100008bb0: e0 27 9f 1a 	cset	w0, lo
100008bb4: c0 03 5f d6 	ret
100008bb8: 01 10 40 79 	ldrh	w1, [x0, #8]
100008bbc: 3f 40 40 f1 	cmp	x1, #16, lsl #12        ; =65536
100008bc0: e0 27 9f 1a 	cset	w0, lo
100008bc4: c0 03 5f d6 	ret
100008bc8: 01 08 40 b9 	ldr	w1, [x0, #8]
100008bcc: 3f 40 40 f1 	cmp	x1, #16, lsl #12        ; =65536
100008bd0: e0 27 9f 1a 	cset	w0, lo
100008bd4: c0 03 5f d6 	ret
100008bd8: 01 04 40 f9 	ldr	x1, [x0, #8]
100008bdc: 01 fe ff b6 	tbz	x1, #63, 0x100008b9c <__ZN5gimli4read4unit18Attribute$LT$R$GT$9u16_value17hf959c53f75d78643E+0x2c>
100008be0: 00 00 80 52 	mov	w0, #0
100008be4: c0 03 5f d6 	ret

0000000100008be8 <__ZN5gimli4read5dwarf14Dwarf$LT$R$GT$11attr_string17h16622a18da799a61E>:
100008be8: 68 00 40 f9 	ldr	x8, [x3]
100008bec: 08 69 00 d1 	sub	x8, x8, #26
100008bf0: 1f 15 00 f1 	cmp	x8, #5
100008bf4: 68 04 00 54 	b.hi	0x100008c80 <__ZN5gimli4read5dwarf14Dwarf$LT$R$GT$11attr_string17h16622a18da799a61E+0x98>
100008bf8: 29 fb 14 50 	adr	x9, #171878
100008bfc: 1f 20 03 d5 	nop
100008c00: 8a 00 00 10 	adr	x10, #16
100008c04: 2b 69 68 38 	ldrb	w11, [x9, x8]
100008c08: 4a 09 0b 8b 	add	x10, x10, x11, lsl #2
100008c0c: 40 01 1f d6 	br	x10
100008c10: 6a 04 40 f9 	ldr	x10, [x3, #8]
100008c14: 29 20 46 a9 	ldp	x9, x8, [x1, #96]
100008c18: 08 01 0a eb 	subs	x8, x8, x10
100008c1c: a3 06 00 54 	b.lo	0x100008cf0 <__ZN5gimli4read5dwarf14Dwarf$LT$R$GT$11attr_string17h16622a18da799a61E+0x108>
100008c20: 29 01 0a 8b 	add	x9, x9, x10
100008c24: c0 08 00 54 	b.eq	0x100008d3c <__ZN5gimli4read5dwarf14Dwarf$LT$R$GT$11attr_string17h16622a18da799a61E+0x154>
100008c28: 0a 00 80 d2 	mov	x10, #0
100008c2c: 2b 69 6a 38 	ldrb	w11, [x9, x10]
100008c30: 8b 0c 00 34 	cbz	w11, 0x100008dc0 <__ZN5gimli4read5dwarf14Dwarf$LT$R$GT$11attr_string17h16622a18da799a61E+0x1d8>
100008c34: 4a 05 00 91 	add	x10, x10, #1
100008c38: 1f 01 0a eb 	cmp	x8, x10
100008c3c: 81 ff ff 54 	b.ne	0x100008c2c <__ZN5gimli4read5dwarf14Dwarf$LT$R$GT$11attr_string17h16622a18da799a61E+0x44>
100008c40: 3f 00 00 14 	b	0x100008d3c <__ZN5gimli4read5dwarf14Dwarf$LT$R$GT$11attr_string17h16622a18da799a61E+0x154>
100008c44: 28 68 40 f9 	ldr	x8, [x1, #208]
100008c48: c8 01 00 b4 	cbz	x8, 0x100008c80 <__ZN5gimli4read5dwarf14Dwarf$LT$R$GT$11attr_string17h16622a18da799a61E+0x98>
100008c4c: 6a 04 40 f9 	ldr	x10, [x3, #8]
100008c50: 09 21 47 a9 	ldp	x9, x8, [x8, #112]
100008c54: 08 01 0a eb 	subs	x8, x8, x10
100008c58: c3 04 00 54 	b.lo	0x100008cf0 <__ZN5gimli4read5dwarf14Dwarf$LT$R$GT$11attr_string17h16622a18da799a61E+0x108>
100008c5c: 29 01 0a 8b 	add	x9, x9, x10
100008c60: e0 06 00 54 	b.eq	0x100008d3c <__ZN5gimli4read5dwarf14Dwarf$LT$R$GT$11attr_string17h16622a18da799a61E+0x154>
100008c64: 0a 00 80 d2 	mov	x10, #0
100008c68: 2b 69 6a 38 	ldrb	w11, [x9, x10]
100008c6c: ab 0a 00 34 	cbz	w11, 0x100008dc0 <__ZN5gimli4read5dwarf14Dwarf$LT$R$GT$11attr_string17h16622a18da799a61E+0x1d8>
100008c70: 4a 05 00 91 	add	x10, x10, #1
100008c74: 1f 01 0a eb 	cmp	x8, x10
100008c78: 81 ff ff 54 	b.ne	0x100008c68 <__ZN5gimli4read5dwarf14Dwarf$LT$R$GT$11attr_string17h16622a18da799a61E+0x80>
100008c7c: 30 00 00 14 	b	0x100008d3c <__ZN5gimli4read5dwarf14Dwarf$LT$R$GT$11attr_string17h16622a18da799a61E+0x154>
100008c80: a8 08 80 52 	mov	w8, #69
100008c84: 08 20 00 39 	strb	w8, [x0, #8]
100008c88: 28 00 80 52 	mov	w8, #1
100008c8c: 08 00 00 f9 	str	x8, [x0]
100008c90: c0 03 5f d6 	ret
100008c94: 4b 54 40 f9 	ldr	x11, [x2, #168]
100008c98: 28 24 47 a9 	ldp	x8, x9, [x1, #112]
100008c9c: 2a 01 0b eb 	subs	x10, x9, x11
100008ca0: 63 01 00 54 	b.lo	0x100008ccc <__ZN5gimli4read5dwarf14Dwarf$LT$R$GT$11attr_string17h16622a18da799a61E+0xe4>
100008ca4: 6c 04 40 f9 	ldr	x12, [x3, #8]
100008ca8: 49 24 41 39 	ldrb	w9, [x2, #73]
100008cac: 08 01 0b 8b 	add	x8, x8, x11
100008cb0: 3f 21 00 71 	cmp	w9, #8
100008cb4: 8b 00 80 52 	mov	w11, #4
100008cb8: 0d 01 80 52 	mov	w13, #8
100008cbc: ab 01 8b 9a 	csel	x11, x13, x11, eq
100008cc0: 6b 7d 0c 9b 	mul	x11, x11, x12
100008cc4: 4a 01 0b eb 	subs	x10, x10, x11
100008cc8: 42 04 00 54 	b.hs	0x100008d50 <__ZN5gimli4read5dwarf14Dwarf$LT$R$GT$11attr_string17h16622a18da799a61E+0x168>
100008ccc: 69 02 80 52 	mov	w9, #19
100008cd0: 09 a0 00 a9 	stp	x9, x8, [x0, #8]
100008cd4: 28 00 80 52 	mov	w8, #1
100008cd8: 08 00 00 f9 	str	x8, [x0]
100008cdc: c0 03 5f d6 	ret
100008ce0: 6a 04 40 f9 	ldr	x10, [x3, #8]
100008ce4: 29 20 45 a9 	ldp	x9, x8, [x1, #80]
100008ce8: 08 01 0a eb 	subs	x8, x8, x10
100008cec: 82 01 00 54 	b.hs	0x100008d1c <__ZN5gimli4read5dwarf14Dwarf$LT$R$GT$11attr_string17h16622a18da799a61E+0x134>
100008cf0: 68 02 80 52 	mov	w8, #19
100008cf4: 08 20 00 39 	strb	w8, [x0, #8]
100008cf8: 09 08 00 f9 	str	x9, [x0, #16]
100008cfc: 28 00 80 52 	mov	w8, #1
100008d00: 08 00 00 f9 	str	x8, [x0]
100008d04: c0 03 5f d6 	ret
100008d08: 08 00 80 d2 	mov	x8, #0
100008d0c: 69 a8 40 a9 	ldp	x9, x10, [x3, #8]
100008d10: 09 a8 00 a9 	stp	x9, x10, [x0, #8]
100008d14: 08 00 00 f9 	str	x8, [x0]
100008d18: c0 03 5f d6 	ret
100008d1c: 29 01 0a 8b 	add	x9, x9, x10
100008d20: e0 00 00 54 	b.eq	0x100008d3c <__ZN5gimli4read5dwarf14Dwarf$LT$R$GT$11attr_string17h16622a18da799a61E+0x154>
100008d24: 0a 00 80 d2 	mov	x10, #0
100008d28: 2b 69 6a 38 	ldrb	w11, [x9, x10]
100008d2c: ab 04 00 34 	cbz	w11, 0x100008dc0 <__ZN5gimli4read5dwarf14Dwarf$LT$R$GT$11attr_string17h16622a18da799a61E+0x1d8>
100008d30: 4a 05 00 91 	add	x10, x10, #1
100008d34: 1f 01 0a eb 	cmp	x8, x10
100008d38: 81 ff ff 54 	b.ne	0x100008d28 <__ZN5gimli4read5dwarf14Dwarf$LT$R$GT$11attr_string17h16622a18da799a61E+0x140>
100008d3c: 68 02 80 52 	mov	w8, #19
100008d40: 08 a4 00 a9 	stp	x8, x9, [x0, #8]
100008d44: 28 00 80 52 	mov	w8, #1
100008d48: 08 00 00 f9 	str	x8, [x0]
100008d4c: c0 03 5f d6 	ret
100008d50: 08 01 0b 8b 	add	x8, x8, x11
100008d54: 3f 21 00 71 	cmp	w9, #8
100008d58: a1 00 00 54 	b.ne	0x100008d6c <__ZN5gimli4read5dwarf14Dwarf$LT$R$GT$11attr_string17h16622a18da799a61E+0x184>
100008d5c: 5f 21 00 f1 	cmp	x10, #8
100008d60: 63 fb ff 54 	b.lo	0x100008ccc <__ZN5gimli4read5dwarf14Dwarf$LT$R$GT$11attr_string17h16622a18da799a61E+0xe4>
100008d64: 09 01 40 f9 	ldr	x9, [x8]
100008d68: 04 00 00 14 	b	0x100008d78 <__ZN5gimli4read5dwarf14Dwarf$LT$R$GT$11attr_string17h16622a18da799a61E+0x190>
100008d6c: 5f 11 00 f1 	cmp	x10, #4
100008d70: e3 fa ff 54 	b.lo	0x100008ccc <__ZN5gimli4read5dwarf14Dwarf$LT$R$GT$11attr_string17h16622a18da799a61E+0xe4>
100008d74: 09 01 40 b9 	ldr	w9, [x8]
100008d78: 2a 20 46 a9 	ldp	x10, x8, [x1, #96]
100008d7c: 08 01 09 eb 	subs	x8, x8, x9
100008d80: e2 00 00 54 	b.hs	0x100008d9c <__ZN5gimli4read5dwarf14Dwarf$LT$R$GT$11attr_string17h16622a18da799a61E+0x1b4>
100008d84: 68 02 80 52 	mov	w8, #19
100008d88: 08 20 00 39 	strb	w8, [x0, #8]
100008d8c: 0a 08 00 f9 	str	x10, [x0, #16]
100008d90: 28 00 80 52 	mov	w8, #1
100008d94: 08 00 00 f9 	str	x8, [x0]
100008d98: c0 03 5f d6 	ret
100008d9c: 49 01 09 8b 	add	x9, x10, x9
100008da0: e0 fc ff 54 	b.eq	0x100008d3c <__ZN5gimli4read5dwarf14Dwarf$LT$R$GT$11attr_string17h16622a18da799a61E+0x154>
100008da4: 0a 00 80 d2 	mov	x10, #0
100008da8: 2b 69 6a 38 	ldrb	w11, [x9, x10]
100008dac: ab 00 00 34 	cbz	w11, 0x100008dc0 <__ZN5gimli4read5dwarf14Dwarf$LT$R$GT$11attr_string17h16622a18da799a61E+0x1d8>
100008db0: 4a 05 00 91 	add	x10, x10, #1
100008db4: 1f 01 0a eb 	cmp	x8, x10
100008db8: 81 ff ff 54 	b.ne	0x100008da8 <__ZN5gimli4read5dwarf14Dwarf$LT$R$GT$11attr_string17h16622a18da799a61E+0x1c0>
100008dbc: e0 ff ff 17 	b	0x100008d3c <__ZN5gimli4read5dwarf14Dwarf$LT$R$GT$11attr_string17h16622a18da799a61E+0x154>
100008dc0: 08 00 80 d2 	mov	x8, #0
100008dc4: 09 a8 00 a9 	stp	x9, x10, [x0, #8]
100008dc8: 08 00 00 f9 	str	x8, [x0]
100008dcc: c0 03 5f d6 	ret

0000000100008dd0 <__ZN5gimli4read6reader6Reader11read_offset17h301d6424ee2ff1d2E>:
100008dd0: 48 1c 00 12 	and	w8, w2, #0xff
100008dd4: 1f 21 00 71 	cmp	w8, #8
100008dd8: 21 01 00 54 	b.ne	0x100008dfc <__ZN5gimli4read6reader6Reader11read_offset17h301d6424ee2ff1d2E+0x2c>
100008ddc: 28 24 40 a9 	ldp	x8, x9, [x1]
100008de0: 29 21 00 f1 	subs	x9, x9, #8
100008de4: c2 02 00 54 	b.hs	0x100008e3c <__ZN5gimli4read6reader6Reader11read_offset17h301d6424ee2ff1d2E+0x6c>
100008de8: 2a 00 80 52 	mov	w10, #1
100008dec: 69 02 80 52 	mov	w9, #19
100008df0: 09 a0 00 a9 	stp	x9, x8, [x0, #8]
100008df4: 0a 00 00 f9 	str	x10, [x0]
100008df8: c0 03 5f d6 	ret
100008dfc: 28 24 40 a9 	ldp	x8, x9, [x1]
100008e00: 2a 11 00 f1 	subs	x10, x9, #4
100008e04: 42 02 00 54 	b.hs	0x100008e4c <__ZN5gimli4read6reader6Reader11read_offset17h301d6424ee2ff1d2E+0x7c>
100008e08: 09 00 80 d2 	mov	x9, #0
100008e0c: 6a 02 80 52 	mov	w10, #19
100008e10: 4b 1d 00 12 	and	w11, w10, #0xff
100008e14: 7f 1d 01 71 	cmp	w11, #71
100008e18: 80 02 00 54 	b.eq	0x100008e68 <__ZN5gimli4read6reader6Reader11read_offset17h301d6424ee2ff1d2E+0x98>
100008e1c: 0a 20 00 39 	strb	w10, [x0, #8]
100008e20: 1f 3c 00 39 	strb	wzr, [x0, #15]
100008e24: 1f d0 00 78 	sturh	wzr, [x0, #13]
100008e28: 1f 90 00 b8 	stur	wzr, [x0, #9]
100008e2c: 2a 00 80 52 	mov	w10, #1
100008e30: 08 08 00 f9 	str	x8, [x0, #16]
100008e34: 0a 00 00 f9 	str	x10, [x0]
100008e38: c0 03 5f d6 	ret
100008e3c: 0b 85 40 f8 	ldr	x11, [x8], #8
100008e40: 28 24 00 a9 	stp	x8, x9, [x1]
100008e44: 1f 2c 00 a9 	stp	xzr, x11, [x0]
100008e48: c0 03 5f d6 	ret
100008e4c: 09 45 40 b8 	ldr	w9, [x8], #4
100008e50: 28 28 00 a9 	stp	x8, x10, [x1]
100008e54: ea 08 80 52 	mov	w10, #71
100008e58: 08 00 80 d2 	mov	x8, #0
100008e5c: 4b 1d 00 12 	and	w11, w10, #0xff
100008e60: 7f 1d 01 71 	cmp	w11, #71
100008e64: c1 fd ff 54 	b.ne	0x100008e1c <__ZN5gimli4read6reader6Reader11read_offset17h301d6424ee2ff1d2E+0x4c>
100008e68: 1f 24 00 a9 	stp	xzr, x9, [x0]
100008e6c: c0 03 5f d6 	ret

0000000100008e70 <__ZN5gimli4read6reader6Reader12read_sleb12817h4d9df5ff586b404eE>:
100008e70: 29 2c 40 a9 	ldp	x9, x11, [x1]
100008e74: eb 0e 00 b4 	cbz	x11, 0x100009050 <__ZN5gimli4read6reader6Reader12read_sleb12817h4d9df5ff586b404eE+0x1e0>
100008e78: ec 03 09 aa 	mov	x12, x9
100008e7c: 8a 15 40 38 	ldrb	w10, [x12], #1
100008e80: 6d 05 00 d1 	sub	x13, x11, #1
100008e84: 2c 34 00 a9 	stp	x12, x13, [x1]
100008e88: 48 19 40 92 	and	x8, x10, #0x7f
100008e8c: 8a 01 38 37 	tbnz	w10, #7, 0x100008ebc <__ZN5gimli4read6reader6Reader12read_sleb12817h4d9df5ff586b404eE+0x4c>
100008e90: 29 00 80 52 	mov	w9, #1
100008e94: eb 00 80 52 	mov	w11, #7
100008e98: 0c 00 80 d2 	mov	x12, #0
100008e9c: 4a 01 1a 12 	and	w10, w10, #0x40
100008ea0: 0d 00 80 92 	mov	x13, #-1
100008ea4: ab 21 cb 9a 	lsl	x11, x13, x11
100008ea8: 3f 19 4a 6a 	tst	w9, w10, lsr #6
100008eac: 69 11 9f 9a 	csel	x9, x11, xzr, ne
100008eb0: 28 01 08 aa 	orr	x8, x9, x8
100008eb4: 0c 20 00 a9 	stp	x12, x8, [x0]
100008eb8: c0 03 5f d6 	ret
100008ebc: 8d 0c 00 b4 	cbz	x13, 0x10000904c <__ZN5gimli4read6reader6Reader12read_sleb12817h4d9df5ff586b404eE+0x1dc>
100008ec0: 2c 09 00 91 	add	x12, x9, #2
100008ec4: 6d 09 00 d1 	sub	x13, x11, #2
100008ec8: 2c 34 00 a9 	stp	x12, x13, [x1]
100008ecc: 2a 05 40 39 	ldrb	w10, [x9, #1]
100008ed0: 4e 19 40 92 	and	x14, x10, #0x7f
100008ed4: c8 19 79 b3 	bfi	x8, x14, #7, #7
100008ed8: 8a 00 38 37 	tbnz	w10, #7, 0x100008ee8 <__ZN5gimli4read6reader6Reader12read_sleb12817h4d9df5ff586b404eE+0x78>
100008edc: 29 00 80 52 	mov	w9, #1
100008ee0: cb 01 80 52 	mov	w11, #14
100008ee4: ed ff ff 17 	b	0x100008e98 <__ZN5gimli4read6reader6Reader12read_sleb12817h4d9df5ff586b404eE+0x28>
100008ee8: 2d 0b 00 b4 	cbz	x13, 0x10000904c <__ZN5gimli4read6reader6Reader12read_sleb12817h4d9df5ff586b404eE+0x1dc>
100008eec: 2c 0d 00 91 	add	x12, x9, #3
100008ef0: 6d 0d 00 d1 	sub	x13, x11, #3
100008ef4: 2c 34 00 a9 	stp	x12, x13, [x1]
100008ef8: 2a 09 40 39 	ldrb	w10, [x9, #2]
100008efc: 4e 19 40 92 	and	x14, x10, #0x7f
100008f00: c8 19 72 b3 	bfi	x8, x14, #14, #7
100008f04: 8a 00 38 37 	tbnz	w10, #7, 0x100008f14 <__ZN5gimli4read6reader6Reader12read_sleb12817h4d9df5ff586b404eE+0xa4>
100008f08: 29 00 80 52 	mov	w9, #1
100008f0c: ab 02 80 52 	mov	w11, #21
100008f10: e2 ff ff 17 	b	0x100008e98 <__ZN5gimli4read6reader6Reader12read_sleb12817h4d9df5ff586b404eE+0x28>
100008f14: cd 09 00 b4 	cbz	x13, 0x10000904c <__ZN5gimli4read6reader6Reader12read_sleb12817h4d9df5ff586b404eE+0x1dc>
100008f18: 2c 11 00 91 	add	x12, x9, #4
100008f1c: 6d 11 00 d1 	sub	x13, x11, #4
100008f20: 2c 34 00 a9 	stp	x12, x13, [x1]
100008f24: 2a 0d 40 39 	ldrb	w10, [x9, #3]
100008f28: 4e 19 40 92 	and	x14, x10, #0x7f
100008f2c: c8 19 6b b3 	bfi	x8, x14, #21, #7
100008f30: 8a 00 38 37 	tbnz	w10, #7, 0x100008f40 <__ZN5gimli4read6reader6Reader12read_sleb12817h4d9df5ff586b404eE+0xd0>
100008f34: 29 00 80 52 	mov	w9, #1
100008f38: 8b 03 80 52 	mov	w11, #28
100008f3c: d7 ff ff 17 	b	0x100008e98 <__ZN5gimli4read6reader6Reader12read_sleb12817h4d9df5ff586b404eE+0x28>
100008f40: 6d 08 00 b4 	cbz	x13, 0x10000904c <__ZN5gimli4read6reader6Reader12read_sleb12817h4d9df5ff586b404eE+0x1dc>
100008f44: 2c 15 00 91 	add	x12, x9, #5
100008f48: 6d 15 00 d1 	sub	x13, x11, #5
100008f4c: 2c 34 00 a9 	stp	x12, x13, [x1]
100008f50: 2a 11 40 39 	ldrb	w10, [x9, #4]
100008f54: 4e 19 40 92 	and	x14, x10, #0x7f
100008f58: c8 19 64 b3 	bfi	x8, x14, #28, #7
100008f5c: 8a 00 38 37 	tbnz	w10, #7, 0x100008f6c <__ZN5gimli4read6reader6Reader12read_sleb12817h4d9df5ff586b404eE+0xfc>
100008f60: 29 00 80 52 	mov	w9, #1
100008f64: 6b 04 80 52 	mov	w11, #35
100008f68: cc ff ff 17 	b	0x100008e98 <__ZN5gimli4read6reader6Reader12read_sleb12817h4d9df5ff586b404eE+0x28>
100008f6c: 0d 07 00 b4 	cbz	x13, 0x10000904c <__ZN5gimli4read6reader6Reader12read_sleb12817h4d9df5ff586b404eE+0x1dc>
100008f70: 2c 19 00 91 	add	x12, x9, #6
100008f74: 6d 19 00 d1 	sub	x13, x11, #6
100008f78: 2c 34 00 a9 	stp	x12, x13, [x1]
100008f7c: 2a 15 40 39 	ldrb	w10, [x9, #5]
100008f80: 4e 19 00 12 	and	w14, w10, #0x7f
100008f84: c8 19 5d b3 	bfi	x8, x14, #35, #7
100008f88: 8a 00 38 37 	tbnz	w10, #7, 0x100008f98 <__ZN5gimli4read6reader6Reader12read_sleb12817h4d9df5ff586b404eE+0x128>
100008f8c: 29 00 80 52 	mov	w9, #1
100008f90: 4b 05 80 52 	mov	w11, #42
100008f94: c1 ff ff 17 	b	0x100008e98 <__ZN5gimli4read6reader6Reader12read_sleb12817h4d9df5ff586b404eE+0x28>
100008f98: ad 05 00 b4 	cbz	x13, 0x10000904c <__ZN5gimli4read6reader6Reader12read_sleb12817h4d9df5ff586b404eE+0x1dc>
100008f9c: 2c 1d 00 91 	add	x12, x9, #7
100008fa0: 6d 1d 00 d1 	sub	x13, x11, #7
100008fa4: 2c 34 00 a9 	stp	x12, x13, [x1]
100008fa8: 2a 19 40 39 	ldrb	w10, [x9, #6]
100008fac: 4e 19 00 12 	and	w14, w10, #0x7f
100008fb0: c8 19 56 b3 	bfi	x8, x14, #42, #7
100008fb4: 8a 00 38 37 	tbnz	w10, #7, 0x100008fc4 <__ZN5gimli4read6reader6Reader12read_sleb12817h4d9df5ff586b404eE+0x154>
100008fb8: 29 00 80 52 	mov	w9, #1
100008fbc: 2b 06 80 52 	mov	w11, #49
100008fc0: b6 ff ff 17 	b	0x100008e98 <__ZN5gimli4read6reader6Reader12read_sleb12817h4d9df5ff586b404eE+0x28>
100008fc4: 4d 04 00 b4 	cbz	x13, 0x10000904c <__ZN5gimli4read6reader6Reader12read_sleb12817h4d9df5ff586b404eE+0x1dc>
100008fc8: 2c 21 00 91 	add	x12, x9, #8
100008fcc: 6d 21 00 d1 	sub	x13, x11, #8
100008fd0: 2c 34 00 a9 	stp	x12, x13, [x1]
100008fd4: 2a 1d 40 39 	ldrb	w10, [x9, #7]
100008fd8: 4e 19 00 12 	and	w14, w10, #0x7f
100008fdc: c8 19 4f b3 	bfi	x8, x14, #49, #7
100008fe0: 8a 00 38 37 	tbnz	w10, #7, 0x100008ff0 <__ZN5gimli4read6reader6Reader12read_sleb12817h4d9df5ff586b404eE+0x180>
100008fe4: 29 00 80 52 	mov	w9, #1
100008fe8: 0b 07 80 52 	mov	w11, #56
100008fec: ab ff ff 17 	b	0x100008e98 <__ZN5gimli4read6reader6Reader12read_sleb12817h4d9df5ff586b404eE+0x28>
100008ff0: ed 02 00 b4 	cbz	x13, 0x10000904c <__ZN5gimli4read6reader6Reader12read_sleb12817h4d9df5ff586b404eE+0x1dc>
100008ff4: 2c 25 00 91 	add	x12, x9, #9
100008ff8: 6d 25 00 d1 	sub	x13, x11, #9
100008ffc: 2c 34 00 a9 	stp	x12, x13, [x1]
100009000: 2a 21 40 39 	ldrb	w10, [x9, #8]
100009004: 4e 19 00 12 	and	w14, w10, #0x7f
100009008: c8 19 48 b3 	bfi	x8, x14, #56, #7
10000900c: 8a 00 38 37 	tbnz	w10, #7, 0x10000901c <__ZN5gimli4read6reader6Reader12read_sleb12817h4d9df5ff586b404eE+0x1ac>
100009010: 29 00 80 52 	mov	w9, #1
100009014: eb 07 80 52 	mov	w11, #63
100009018: a0 ff ff 17 	b	0x100008e98 <__ZN5gimli4read6reader6Reader12read_sleb12817h4d9df5ff586b404eE+0x28>
10000901c: 8d 01 00 b4 	cbz	x13, 0x10000904c <__ZN5gimli4read6reader6Reader12read_sleb12817h4d9df5ff586b404eE+0x1dc>
100009020: 2a 29 00 91 	add	x10, x9, #10
100009024: 6b 29 00 d1 	sub	x11, x11, #10
100009028: 2a 2c 00 a9 	stp	x10, x11, [x1]
10000902c: 2a 25 40 39 	ldrb	w10, [x9, #9]
100009030: 6a 00 00 34 	cbz	w10, 0x10000903c <__ZN5gimli4read6reader6Reader12read_sleb12817h4d9df5ff586b404eE+0x1cc>
100009034: 5f fd 01 71 	cmp	w10, #127
100009038: e1 01 00 54 	b.ne	0x100009074 <__ZN5gimli4read6reader6Reader12read_sleb12817h4d9df5ff586b404eE+0x204>
10000903c: 09 00 80 52 	mov	w9, #0
100009040: 48 01 41 b3 	bfi	x8, x10, #63, #1
100009044: cb 00 80 52 	mov	w11, #6
100009048: 94 ff ff 17 	b	0x100008e98 <__ZN5gimli4read6reader6Reader12read_sleb12817h4d9df5ff586b404eE+0x28>
10000904c: e9 03 0c aa 	mov	x9, x12
100009050: 68 02 80 52 	mov	w8, #19
100009054: 08 20 00 39 	strb	w8, [x0, #8]
100009058: 1f 3c 00 39 	strb	wzr, [x0, #15]
10000905c: 1f d0 00 78 	sturh	wzr, [x0, #13]
100009060: 1f 90 00 b8 	stur	wzr, [x0, #9]
100009064: 2c 00 80 52 	mov	w12, #1
100009068: 09 08 00 f9 	str	x9, [x0, #16]
10000906c: 0c 00 00 f9 	str	x12, [x0]
100009070: c0 03 5f d6 	ret
100009074: e8 00 80 52 	mov	w8, #7
100009078: 08 20 00 39 	strb	w8, [x0, #8]
10000907c: 2c 00 80 52 	mov	w12, #1
100009080: 0c 00 00 f9 	str	x12, [x0]
100009084: c0 03 5f d6 	ret

0000000100009088 <__ZN5gimli4read6reader6Reader17read_sized_offset17ha824d5194a6a583aE>:
100009088: 48 1c 00 12 	and	w8, w2, #0xff
10000908c: 09 03 80 52 	mov	w9, #24
100009090: 08 05 00 51 	sub	w8, w8, #1
100009094: 1f 1d 00 71 	cmp	w8, #7
100009098: 28 07 00 54 	b.hi	0x10000917c <__ZN5gimli4read6reader6Reader17read_sized_offset17ha824d5194a6a583aE+0xf4>
10000909c: 4a d6 14 10 	adr	x10, #170696
1000090a0: 1f 20 03 d5 	nop
1000090a4: 8b 00 00 10 	adr	x11, #16
1000090a8: 4c 69 68 38 	ldrb	w12, [x10, x8]
1000090ac: 6b 09 0c 8b 	add	x11, x11, x12, lsl #2
1000090b0: 60 01 1f d6 	br	x11
1000090b4: 28 30 40 a9 	ldp	x8, x12, [x1]
1000090b8: 2c 05 00 b4 	cbz	x12, 0x10000915c <__ZN5gimli4read6reader6Reader17read_sized_offset17ha824d5194a6a583aE+0xd4>
1000090bc: 09 00 80 d2 	mov	x9, #0
1000090c0: 0a 00 80 d2 	mov	x10, #0
1000090c4: 0b 15 40 38 	ldrb	w11, [x8], #1
1000090c8: 8c 05 00 d1 	sub	x12, x12, #1
1000090cc: 28 30 00 a9 	stp	x8, x12, [x1]
1000090d0: 4a 1d 78 92 	and	x10, x10, #0xff00
1000090d4: 49 01 09 aa 	orr	x9, x10, x9
1000090d8: 6a 1d 40 92 	and	x10, x11, #0xff
1000090dc: 29 01 0a aa 	orr	x9, x9, x10
1000090e0: 1f 24 00 a9 	stp	xzr, x9, [x0]
1000090e4: c0 03 5f d6 	ret
1000090e8: 28 24 40 a9 	ldp	x8, x9, [x1]
1000090ec: 2a 09 00 f1 	subs	x10, x9, #2
1000090f0: 63 03 00 54 	b.lo	0x10000915c <__ZN5gimli4read6reader6Reader17read_sized_offset17ha824d5194a6a583aE+0xd4>
1000090f4: 09 00 80 d2 	mov	x9, #0
1000090f8: 0b 25 40 78 	ldrh	w11, [x8], #2
1000090fc: 28 28 00 a9 	stp	x8, x10, [x1]
100009100: 6a 1d 78 92 	and	x10, x11, #0xff00
100009104: 4a 1d 78 92 	and	x10, x10, #0xff00
100009108: 49 01 09 aa 	orr	x9, x10, x9
10000910c: 6a 1d 40 92 	and	x10, x11, #0xff
100009110: 29 01 0a aa 	orr	x9, x9, x10
100009114: 1f 24 00 a9 	stp	xzr, x9, [x0]
100009118: c0 03 5f d6 	ret
10000911c: 28 24 40 a9 	ldp	x8, x9, [x1]
100009120: 29 11 00 f1 	subs	x9, x9, #4
100009124: c3 01 00 54 	b.lo	0x10000915c <__ZN5gimli4read6reader6Reader17read_sized_offset17ha824d5194a6a583aE+0xd4>
100009128: 0b 45 40 b8 	ldr	w11, [x8], #4
10000912c: 28 24 00 a9 	stp	x8, x9, [x1]
100009130: 6a 5d 78 92 	and	x10, x11, #0xffffff00
100009134: 69 3d 70 92 	and	x9, x11, #0xffff0000
100009138: 4a 1d 78 92 	and	x10, x10, #0xff00
10000913c: 49 01 09 aa 	orr	x9, x10, x9
100009140: 6a 1d 40 92 	and	x10, x11, #0xff
100009144: 29 01 0a aa 	orr	x9, x9, x10
100009148: 1f 24 00 a9 	stp	xzr, x9, [x0]
10000914c: c0 03 5f d6 	ret
100009150: 28 24 40 a9 	ldp	x8, x9, [x1]
100009154: 29 21 00 f1 	subs	x9, x9, #8
100009158: e2 01 00 54 	b.hs	0x100009194 <__ZN5gimli4read6reader6Reader17read_sized_offset17ha824d5194a6a583aE+0x10c>
10000915c: 02 00 80 52 	mov	w2, #0
100009160: 69 02 80 52 	mov	w9, #19
100009164: 4a 1c 40 92 	and	x10, x2, #0xff
100009168: 49 1d 78 b3 	bfi	x9, x10, #8, #8
10000916c: 09 a0 00 a9 	stp	x9, x8, [x0, #8]
100009170: 28 00 80 52 	mov	w8, #1
100009174: 08 00 00 f9 	str	x8, [x0]
100009178: c0 03 5f d6 	ret
10000917c: 4a 1c 40 92 	and	x10, x2, #0xff
100009180: 49 1d 78 b3 	bfi	x9, x10, #8, #8
100009184: 09 a0 00 a9 	stp	x9, x8, [x0, #8]
100009188: 28 00 80 52 	mov	w8, #1
10000918c: 08 00 00 f9 	str	x8, [x0]
100009190: c0 03 5f d6 	ret
100009194: 0b 85 40 f8 	ldr	x11, [x8], #8
100009198: 28 24 00 a9 	stp	x8, x9, [x1]
10000919c: 6a dd 78 92 	and	x10, x11, #0xffffffffffffff00
1000091a0: 69 bd 70 92 	and	x9, x11, #0xffffffffffff0000
1000091a4: 4a 1d 78 92 	and	x10, x10, #0xff00
1000091a8: 49 01 09 aa 	orr	x9, x10, x9
1000091ac: 6a 1d 40 92 	and	x10, x11, #0xff
1000091b0: 29 01 0a aa 	orr	x9, x9, x10
1000091b4: 1f 24 00 a9 	stp	xzr, x9, [x0]
1000091b8: c0 03 5f d6 	ret

00000001000091bc <__ZN5gimli4read7Section4load17h0c62b32d62cea48dE>:
1000091bc: f4 4f be a9 	stp	x20, x19, [sp, #-32]!
1000091c0: fd 7b 01 a9 	stp	x29, x30, [sp, #16]
1000091c4: fd 43 00 91 	add	x29, sp, #16
1000091c8: 13 00 40 f9 	ldr	x19, [x0]
1000091cc: 00 01 80 52 	mov	w0, #8
1000091d0: c6 62 00 94 	bl	0x100021ce8 <__ZN5gimli6common9SectionId4name17h126be8fadcfc3017E>
1000091d4: e2 03 00 aa 	mov	x2, x0
1000091d8: e3 03 01 aa 	mov	x3, x1
1000091dc: e0 03 13 aa 	mov	x0, x19
1000091e0: e1 03 02 aa 	mov	x1, x2
1000091e4: e2 03 03 aa 	mov	x2, x3
1000091e8: e6 5c 00 94 	bl	0x100020580 <__ZN3std12backtrace_rs9symbolize5gimli5macho6Object7section17h068478a6002de460E>
1000091ec: a8 ec 14 10 	adr	x8, #171412
1000091f0: 1f 20 03 d5 	nop
1000091f4: 1f 00 00 f1 	cmp	x0, #0
1000091f8: 08 01 80 9a 	csel	x8, x8, x0, eq
1000091fc: 1f 01 00 f1 	cmp	x8, #0
100009200: 04 18 40 fa 	ccmp	x0, #0, #4, ne
100009204: e1 03 81 9a 	csel	x1, xzr, x1, eq
100009208: e0 03 08 aa 	mov	x0, x8
10000920c: fd 7b 41 a9 	ldp	x29, x30, [sp, #16]
100009210: f4 4f c2 a8 	ldp	x20, x19, [sp], #32
100009214: c0 03 5f d6 	ret

0000000100009218 <__ZN5gimli4read7Section4load17h0ecf4b426d1b546dE>:
100009218: f4 4f be a9 	stp	x20, x19, [sp, #-32]!
10000921c: fd 7b 01 a9 	stp	x29, x30, [sp, #16]
100009220: fd 43 00 91 	add	x29, sp, #16
100009224: 13 00 40 f9 	ldr	x19, [x0]
100009228: 40 02 80 52 	mov	w0, #18
10000922c: af 62 00 94 	bl	0x100021ce8 <__ZN5gimli6common9SectionId4name17h126be8fadcfc3017E>
100009230: e2 03 00 aa 	mov	x2, x0
100009234: e3 03 01 aa 	mov	x3, x1
100009238: e0 03 13 aa 	mov	x0, x19
10000923c: e1 03 02 aa 	mov	x1, x2
100009240: e2 03 03 aa 	mov	x2, x3
100009244: cf 5c 00 94 	bl	0x100020580 <__ZN3std12backtrace_rs9symbolize5gimli5macho6Object7section17h068478a6002de460E>
100009248: c8 e9 14 10 	adr	x8, #171320
10000924c: 1f 20 03 d5 	nop
100009250: 1f 00 00 f1 	cmp	x0, #0
100009254: 08 01 80 9a 	csel	x8, x8, x0, eq
100009258: 1f 01 00 f1 	cmp	x8, #0
10000925c: 04 18 40 fa 	ccmp	x0, #0, #4, ne
100009260: e1 03 81 9a 	csel	x1, xzr, x1, eq
100009264: e0 03 08 aa 	mov	x0, x8
100009268: fd 7b 41 a9 	ldp	x29, x30, [sp, #16]
10000926c: f4 4f c2 a8 	ldp	x20, x19, [sp], #32
100009270: c0 03 5f d6 	ret

0000000100009274 <__ZN5gimli4read7Section4load17h19db3aae250776f7E>:
100009274: f4 4f be a9 	stp	x20, x19, [sp, #-32]!
100009278: fd 7b 01 a9 	stp	x29, x30, [sp, #16]
10000927c: fd 43 00 91 	add	x29, sp, #16
100009280: 13 00 40 f9 	ldr	x19, [x0]
100009284: 60 02 80 52 	mov	w0, #19
100009288: 98 62 00 94 	bl	0x100021ce8 <__ZN5gimli6common9SectionId4name17h126be8fadcfc3017E>
10000928c: e2 03 00 aa 	mov	x2, x0
100009290: e3 03 01 aa 	mov	x3, x1
100009294: e0 03 13 aa 	mov	x0, x19
100009298: e1 03 02 aa 	mov	x1, x2
10000929c: e2 03 03 aa 	mov	x2, x3
1000092a0: b8 5c 00 94 	bl	0x100020580 <__ZN3std12backtrace_rs9symbolize5gimli5macho6Object7section17h068478a6002de460E>
1000092a4: e8 e6 14 10 	adr	x8, #171228
1000092a8: 1f 20 03 d5 	nop
1000092ac: 1f 00 00 f1 	cmp	x0, #0
1000092b0: 08 01 80 9a 	csel	x8, x8, x0, eq
1000092b4: 1f 01 00 f1 	cmp	x8, #0
1000092b8: 04 18 40 fa 	ccmp	x0, #0, #4, ne
1000092bc: e1 03 81 9a 	csel	x1, xzr, x1, eq
1000092c0: e0 03 08 aa 	mov	x0, x8
1000092c4: fd 7b 41 a9 	ldp	x29, x30, [sp, #16]
1000092c8: f4 4f c2 a8 	ldp	x20, x19, [sp], #32
1000092cc: c0 03 5f d6 	ret

00000001000092d0 <__ZN5gimli4read7Section4load17h19fc67609772f4deE>:
1000092d0: f4 4f be a9 	stp	x20, x19, [sp, #-32]!
1000092d4: fd 7b 01 a9 	stp	x29, x30, [sp, #16]
1000092d8: fd 43 00 91 	add	x29, sp, #16
1000092dc: 13 00 40 f9 	ldr	x19, [x0]
1000092e0: 20 02 80 52 	mov	w0, #17
1000092e4: 81 62 00 94 	bl	0x100021ce8 <__ZN5gimli6common9SectionId4name17h126be8fadcfc3017E>
1000092e8: e2 03 00 aa 	mov	x2, x0
1000092ec: e3 03 01 aa 	mov	x3, x1
1000092f0: e0 03 13 aa 	mov	x0, x19
1000092f4: e1 03 02 aa 	mov	x1, x2
1000092f8: e2 03 03 aa 	mov	x2, x3
1000092fc: a1 5c 00 94 	bl	0x100020580 <__ZN3std12backtrace_rs9symbolize5gimli5macho6Object7section17h068478a6002de460E>
100009300: 08 e4 14 10 	adr	x8, #171136
100009304: 1f 20 03 d5 	nop
100009308: 1f 00 00 f1 	cmp	x0, #0
10000930c: 08 01 80 9a 	csel	x8, x8, x0, eq
100009310: 1f 01 00 f1 	cmp	x8, #0
100009314: 04 18 40 fa 	ccmp	x0, #0, #4, ne
100009318: e1 03 81 9a 	csel	x1, xzr, x1, eq
10000931c: e0 03 08 aa 	mov	x0, x8
100009320: fd 7b 41 a9 	ldp	x29, x30, [sp, #16]
100009324: f4 4f c2 a8 	ldp	x20, x19, [sp], #32
100009328: c0 03 5f d6 	ret

000000010000932c <__ZN5gimli4read7aranges30ArangeHeader$LT$R$C$Offset$GT$5parse17had0d305d33ca6e8cE>:
10000932c: 28 24 40 a9 	ldp	x8, x9, [x1]
100009330: 2c 11 00 f1 	subs	x12, x9, #4
100009334: 62 00 00 54 	b.hs	0x100009340 <__ZN5gimli4read7aranges30ArangeHeader$LT$R$C$Offset$GT$5parse17had0d305d33ca6e8cE+0x14>
100009338: 69 02 80 52 	mov	w9, #19
10000933c: 17 00 00 14 	b	0x100009398 <__ZN5gimli4read7aranges30ArangeHeader$LT$R$C$Offset$GT$5parse17had0d305d33ca6e8cE+0x6c>
100009340: eb 03 08 aa 	mov	x11, x8
100009344: 6a 45 40 b8 	ldr	w10, [x11], #4
100009348: 2b 30 00 a9 	stp	x11, x12, [x1]
10000934c: 5f 41 00 31 	cmn	w10, #16
100009350: 42 01 00 54 	b.hs	0x100009378 <__ZN5gimli4read7aranges30ArangeHeader$LT$R$C$Offset$GT$5parse17had0d305d33ca6e8cE+0x4c>
100009354: 88 00 80 52 	mov	w8, #4
100009358: e9 03 0a aa 	mov	x9, x10
10000935c: 8c 01 09 eb 	subs	x12, x12, x9
100009360: 02 04 00 54 	b.hs	0x1000093e0 <__ZN5gimli4read7aranges30ArangeHeader$LT$R$C$Offset$GT$5parse17had0d305d33ca6e8cE+0xb4>
100009364: 68 02 80 52 	mov	w8, #19
100009368: 08 ac 00 a9 	stp	x8, x11, [x0, #8]
10000936c: 2a 00 80 52 	mov	w10, #1
100009370: 0a 00 00 f9 	str	x10, [x0]
100009374: c0 03 5f d6 	ret
100009378: 5f 05 00 31 	cmn	w10, #1
10000937c: 60 00 00 54 	b.eq	0x100009388 <__ZN5gimli4read7aranges30ArangeHeader$LT$R$C$Offset$GT$5parse17had0d305d33ca6e8cE+0x5c>
100009380: 09 02 80 52 	mov	w9, #16
100009384: 05 00 00 14 	b	0x100009398 <__ZN5gimli4read7aranges30ArangeHeader$LT$R$C$Offset$GT$5parse17had0d305d33ca6e8cE+0x6c>
100009388: 9f 21 00 f1 	cmp	x12, #8
10000938c: c2 01 00 54 	b.hs	0x1000093c4 <__ZN5gimli4read7aranges30ArangeHeader$LT$R$C$Offset$GT$5parse17had0d305d33ca6e8cE+0x98>
100009390: 69 02 80 52 	mov	w9, #19
100009394: e8 03 0b aa 	mov	x8, x11
100009398: 09 04 00 f9 	str	x9, [x0, #8]
10000939c: 09 fd 48 d3 	lsr	x9, x8, #8
1000093a0: 08 40 00 39 	strb	w8, [x0, #16]
1000093a4: 0a fd 78 d3 	lsr	x10, x8, #56
1000093a8: 0a 5c 00 39 	strb	w10, [x0, #23]
1000093ac: 08 fd 68 d3 	lsr	x8, x8, #40
1000093b0: 08 50 01 78 	sturh	w8, [x0, #21]
1000093b4: 2a 00 80 52 	mov	w10, #1
1000093b8: 09 10 01 b8 	stur	w9, [x0, #17]
1000093bc: 0a 00 00 f9 	str	x10, [x0]
1000093c0: c0 03 5f d6 	ret
1000093c4: 0b 31 00 91 	add	x11, x8, #12
1000093c8: 2c 31 00 d1 	sub	x12, x9, #12
1000093cc: 2b 30 00 a9 	stp	x11, x12, [x1]
1000093d0: 09 41 40 f8 	ldur	x9, [x8, #4]
1000093d4: 08 01 80 52 	mov	w8, #8
1000093d8: 8c 01 09 eb 	subs	x12, x12, x9
1000093dc: 43 fc ff 54 	b.lo	0x100009364 <__ZN5gimli4read7aranges30ArangeHeader$LT$R$C$Offset$GT$5parse17had0d305d33ca6e8cE+0x38>
1000093e0: 6d 01 09 8b 	add	x13, x11, x9
1000093e4: 2d 30 00 a9 	stp	x13, x12, [x1]
1000093e8: 2d 09 00 f1 	subs	x13, x9, #2
1000093ec: 02 02 00 54 	b.hs	0x10000942c <__ZN5gimli4read7aranges30ArangeHeader$LT$R$C$Offset$GT$5parse17had0d305d33ca6e8cE+0x100>
1000093f0: 0c 00 80 52 	mov	w12, #0
1000093f4: 6f 02 80 52 	mov	w15, #19
1000093f8: ed 03 09 aa 	mov	x13, x9
1000093fc: ee 03 0b aa 	mov	x14, x11
100009400: f0 1d 00 12 	and	w16, w15, #0xff
100009404: 1f 1e 01 71 	cmp	w16, #71
100009408: e0 01 00 54 	b.eq	0x100009444 <__ZN5gimli4read7aranges30ArangeHeader$LT$R$C$Offset$GT$5parse17had0d305d33ca6e8cE+0x118>
10000940c: 0f 20 00 39 	strb	w15, [x0, #8]
100009410: 1f 3c 00 39 	strb	wzr, [x0, #15]
100009414: 1f d0 00 78 	sturh	wzr, [x0, #13]
100009418: 1f 90 00 b8 	stur	wzr, [x0, #9]
10000941c: 2a 00 80 52 	mov	w10, #1
100009420: 0e 08 00 f9 	str	x14, [x0, #16]
100009424: 0a 00 00 f9 	str	x10, [x0]
100009428: c0 03 5f d6 	ret
10000942c: 0e 00 80 d2 	mov	x14, #0
100009430: 6c 25 40 78 	ldrh	w12, [x11], #2
100009434: ef 08 80 52 	mov	w15, #71
100009438: f0 1d 00 12 	and	w16, w15, #0xff
10000943c: 1f 1e 01 71 	cmp	w16, #71
100009440: 61 fe ff 54 	b.ne	0x10000940c <__ZN5gimli4read7aranges30ArangeHeader$LT$R$C$Offset$GT$5parse17had0d305d33ca6e8cE+0xe0>
100009444: 8e 39 1f 12 	and	w14, w12, #0xfffe
100009448: df 09 00 71 	cmp	w14, #2
10000944c: 01 02 00 54 	b.ne	0x10000948c <__ZN5gimli4read7aranges30ArangeHeader$LT$R$C$Offset$GT$5parse17had0d305d33ca6e8cE+0x160>
100009450: 5f 41 00 31 	cmn	w10, #16
100009454: a2 02 00 54 	b.hs	0x1000094a8 <__ZN5gimli4read7aranges30ArangeHeader$LT$R$C$Offset$GT$5parse17had0d305d33ca6e8cE+0x17c>
100009458: b0 11 00 f1 	subs	x16, x13, #4
10000945c: 43 f8 ff 54 	b.lo	0x100009364 <__ZN5gimli4read7aranges30ArangeHeader$LT$R$C$Offset$GT$5parse17had0d305d33ca6e8cE+0x38>
100009460: 6d 45 40 b8 	ldr	w13, [x11], #4
100009464: b0 02 00 b4 	cbz	x16, 0x1000094b8 <__ZN5gimli4read7aranges30ArangeHeader$LT$R$C$Offset$GT$5parse17had0d305d33ca6e8cE+0x18c>
100009468: ef 03 0b aa 	mov	x15, x11
10000946c: ee 15 40 38 	ldrb	w14, [x15], #1
100009470: 1f 06 00 f1 	cmp	x16, #1
100009474: 41 03 00 54 	b.ne	0x1000094dc <__ZN5gimli4read7aranges30ArangeHeader$LT$R$C$Offset$GT$5parse17had0d305d33ca6e8cE+0x1b0>
100009478: 10 00 80 d2 	mov	x16, #0
10000947c: 0b 00 80 52 	mov	w11, #0
100009480: 61 02 80 52 	mov	w1, #19
100009484: f1 03 0f aa 	mov	x17, x15
100009488: 1a 00 00 14 	b	0x1000094f0 <__ZN5gimli4read7aranges30ArangeHeader$LT$R$C$Offset$GT$5parse17had0d305d33ca6e8cE+0x1c4>
10000948c: e8 03 0c 2a 	mov	w8, w12
100009490: 29 02 80 52 	mov	w9, #17
100009494: 09 20 00 39 	strb	w9, [x0, #8]
100009498: 08 08 00 f9 	str	x8, [x0, #16]
10000949c: 2a 00 80 52 	mov	w10, #1
1000094a0: 0a 00 00 f9 	str	x10, [x0]
1000094a4: c0 03 5f d6 	ret
1000094a8: b0 21 00 f1 	subs	x16, x13, #8
1000094ac: c3 f5 ff 54 	b.lo	0x100009364 <__ZN5gimli4read7aranges30ArangeHeader$LT$R$C$Offset$GT$5parse17had0d305d33ca6e8cE+0x38>
1000094b0: 6d 85 40 f8 	ldr	x13, [x11], #8
1000094b4: b0 fd ff b5 	cbnz	x16, 0x100009468 <__ZN5gimli4read7aranges30ArangeHeader$LT$R$C$Offset$GT$5parse17had0d305d33ca6e8cE+0x13c>
1000094b8: 68 02 80 52 	mov	w8, #19
1000094bc: 08 20 00 39 	strb	w8, [x0, #8]
1000094c0: 1f 3c 00 39 	strb	wzr, [x0, #15]
1000094c4: 1f d0 00 78 	sturh	wzr, [x0, #13]
1000094c8: 1f 90 00 b8 	stur	wzr, [x0, #9]
1000094cc: 2a 00 80 52 	mov	w10, #1
1000094d0: 0b 08 00 f9 	str	x11, [x0, #16]
1000094d4: 0a 00 00 f9 	str	x10, [x0]
1000094d8: c0 03 5f d6 	ret
1000094dc: 11 00 80 d2 	mov	x17, #0
1000094e0: 6f 09 00 91 	add	x15, x11, #2
1000094e4: 10 0a 00 d1 	sub	x16, x16, #2
1000094e8: 6b 05 40 39 	ldrb	w11, [x11, #1]
1000094ec: e1 08 80 52 	mov	w1, #71
1000094f0: 23 1c 00 12 	and	w3, w1, #0xff
1000094f4: 7f 1c 01 71 	cmp	w3, #71
1000094f8: a1 03 00 54 	b.ne	0x10000956c <__ZN5gimli4read7aranges30ArangeHeader$LT$R$C$Offset$GT$5parse17had0d305d33ca6e8cE+0x240>
1000094fc: 5f 41 00 31 	cmn	w10, #16
100009500: 0a 03 80 52 	mov	w10, #24
100009504: 91 01 80 52 	mov	w17, #12
100009508: 2a 32 8a 1a 	csel	w10, w17, w10, lo
10000950c: c1 01 0e 0b 	add	w1, w14, w14
100009510: 31 1c 00 12 	and	w17, w1, #0xff
100009514: 3f 02 01 6b 	cmp	w17, w1
100009518: a1 03 00 54 	b.ne	0x10000958c <__ZN5gimli4read7aranges30ArangeHeader$LT$R$C$Offset$GT$5parse17had0d305d33ca6e8cE+0x260>
10000951c: 31 02 0b 0b 	add	w17, w17, w11
100009520: 21 7e 08 53 	lsr	w1, w17, #8
100009524: 41 03 00 37 	tbnz	w1, #0, 0x10000958c <__ZN5gimli4read7aranges30ArangeHeader$LT$R$C$Offset$GT$5parse17had0d305d33ca6e8cE+0x260>
100009528: 3f 1e 00 72 	tst	w17, #0xff
10000952c: 00 03 00 54 	b.eq	0x10000958c <__ZN5gimli4read7aranges30ArangeHeader$LT$R$C$Offset$GT$5parse17had0d305d33ca6e8cE+0x260>
100009530: 21 1e 00 12 	and	w1, w17, #0xff
100009534: 43 09 c1 1a 	udiv	w3, w10, w1
100009538: 6a a8 01 1b 	msub	w10, w3, w1, w10
10000953c: 31 02 0a 4b 	sub	w17, w17, w10
100009540: 5f 01 00 71 	cmp	w10, #0
100009544: ea 03 91 1a 	csel	w10, wzr, w17, eq
100009548: 51 1d 40 92 	and	x17, x10, #0xff
10000954c: 10 02 11 eb 	subs	x16, x16, x17
100009550: 82 02 00 54 	b.hs	0x1000095a0 <__ZN5gimli4read7aranges30ArangeHeader$LT$R$C$Offset$GT$5parse17had0d305d33ca6e8cE+0x274>
100009554: 68 02 80 52 	mov	w8, #19
100009558: 08 20 00 39 	strb	w8, [x0, #8]
10000955c: 0f 08 00 f9 	str	x15, [x0, #16]
100009560: 2a 00 80 52 	mov	w10, #1
100009564: 0a 00 00 f9 	str	x10, [x0]
100009568: c0 03 5f d6 	ret
10000956c: 01 20 00 39 	strb	w1, [x0, #8]
100009570: 1f 3c 00 39 	strb	wzr, [x0, #15]
100009574: 1f d0 00 78 	sturh	wzr, [x0, #13]
100009578: 1f 90 00 b8 	stur	wzr, [x0, #9]
10000957c: 2a 00 80 52 	mov	w10, #1
100009580: 11 08 00 f9 	str	x17, [x0, #16]
100009584: 0a 00 00 f9 	str	x10, [x0]
100009588: c0 03 5f d6 	ret
10000958c: 08 06 80 52 	mov	w8, #48
100009590: 08 20 00 39 	strb	w8, [x0, #8]
100009594: 2a 00 80 52 	mov	w10, #1
100009598: 0a 00 00 f9 	str	x10, [x0]
10000959c: c0 03 5f d6 	ret
1000095a0: ef 01 11 8b 	add	x15, x15, x17
1000095a4: 02 a4 00 a9 	stp	x2, x9, [x0, #8]
1000095a8: 0d bc 01 a9 	stp	x13, x15, [x0, #24]
1000095ac: 10 14 00 f9 	str	x16, [x0, #40]
1000095b0: 0e c0 00 39 	strb	w14, [x0, #48]
